Archive member included because of file (symbol)

C:/usr/xtensa/XtDevTools/install/builds/RI-2021.6-win32/Py_210123_eval/xtensa-elf/lib/xcc/\libgcc.a(_udivsi3.o)
                              D:/PYRAMID_SW/dsp_trunk/tags/Sphinx_0p3/testing_app/system_integration/bin/Py_210123_eval/Release/src/dsp_cli_nfca_tx.o (__udivsi3)
C:/usr/xtensa/XtDevTools/install/builds/RI-2021.6-win32/Py_210123_eval/xtensa-elf/arch/lib/\libhandler-reset-unpack.a(reset-vector-unpack.o)
                              (_ResetVector)
C:/usr/xtensa/XtDevTools/install/builds/RI-2021.6-win32/Py_210123_eval/xtensa-elf/arch/lib/\libhandlers-board.a(xtos-interrupt-enable.o)
                              D:/PYRAMID_SW/dsp_trunk/tags/Sphinx_0p3/testing_app/system_integration/bin/Py_210123_eval/Release/src/dsp_hal_intr.o (xtos_interrupt_enable)
C:/usr/xtensa/XtDevTools/install/builds/RI-2021.6-win32/Py_210123_eval/xtensa-elf/arch/lib/\libhandlers-board.a(xtos-set-inthandler.o)
                              D:/PYRAMID_SW/dsp_trunk/tags/Sphinx_0p3/testing_app/system_integration/bin/Py_210123_eval/Release/src/dsp_hal_intr.o (xtos_set_interrupt_handler)
C:/usr/xtensa/XtDevTools/install/builds/RI-2021.6-win32/Py_210123_eval/xtensa-elf/arch/lib/\libhandlers-board.a(xtos-set-exchandler.o)
                              D:/PYRAMID_SW/dsp_trunk/tags/Sphinx_0p3/testing_app/system_integration/bin/Py_210123_eval/Release/src/dsp_mngr.o (xtos_set_exception_handler)
C:/usr/xtensa/XtDevTools/install/builds/RI-2021.6-win32/Py_210123_eval/xtensa-elf/arch/lib/\libhandlers-board.a(exc-syscall-handler.o)
                              (_xtos_syscall_handler)
C:/usr/xtensa/XtDevTools/install/builds/RI-2021.6-win32/Py_210123_eval/xtensa-elf/arch/lib/\libhandlers-board.a(exc-table.o)
                              C:/usr/xtensa/XtDevTools/install/builds/RI-2021.6-win32/Py_210123_eval/xtensa-elf/arch/lib/\libhandlers-board.a(xtos-set-exchandler.o) (xtos_c_handler_table)
C:/usr/xtensa/XtDevTools/install/builds/RI-2021.6-win32/Py_210123_eval/xtensa-elf/arch/lib/\libhandlers-board.a(interrupt-table.o)
                              C:/usr/xtensa/XtDevTools/install/builds/RI-2021.6-win32/Py_210123_eval/xtensa-elf/arch/lib/\libhandlers-board.a(xtos-interrupt-enable.o) (xtos_enabled)
C:/usr/xtensa/XtDevTools/install/builds/RI-2021.6-win32/Py_210123_eval/xtensa-elf/arch/lib/\libhandlers-board.a(user-vector.o)
                              C:/usr/xtensa/XtDevTools/install/builds/RI-2021.6-win32/Py_210123_eval/xtensa-elf/arch/lib/\libhandlers-board.a(xtos-set-exchandler.o) (xtos_exc_handler_table)
C:/usr/xtensa/XtDevTools/install/builds/RI-2021.6-win32/Py_210123_eval/xtensa-elf/arch/lib/\libhandlers-board.a(exc-c-wrapper-handler.o)
                              C:/usr/xtensa/XtDevTools/install/builds/RI-2021.6-win32/Py_210123_eval/xtensa-elf/arch/lib/\libhandlers-board.a(xtos-set-exchandler.o) (xtos_c_wrapper_handler)
C:/usr/xtensa/XtDevTools/install/builds/RI-2021.6-win32/Py_210123_eval/xtensa-elf/arch/lib/\libhandlers-board.a(exc-return.o)
                              C:/usr/xtensa/XtDevTools/install/builds/RI-2021.6-win32/Py_210123_eval/xtensa-elf/arch/lib/\libhandlers-board.a(exc-c-wrapper-handler.o) (_xtos_return_from_exc)
C:/usr/xtensa/XtDevTools/install/builds/RI-2021.6-win32/Py_210123_eval/xtensa-elf/arch/lib/\libhandlers-board.a(int-lowpri-dispatcher.o)
                              C:/usr/xtensa/XtDevTools/install/builds/RI-2021.6-win32/Py_210123_eval/xtensa-elf/arch/lib/\libhandlers-board.a(user-vector.o) (_xtos_l1int_handler)
C:/usr/xtensa/XtDevTools/install/builds/RI-2021.6-win32/Py_210123_eval/xtensa-elf/arch/lib/\libhandlers-board.a(window-vectors.o)
                              (_xtos_alloca_handler)
C:/usr/xtensa/XtDevTools/install/builds/RI-2021.6-win32/Py_210123_eval/xtensa-elf/arch/lib/\libhandlers-board.a(int-init-level1.o)
                              D:/PYRAMID_SW/dsp_trunk/tags/Sphinx_0p3/testing_app/system_integration/bin/Py_210123_eval/Release/src/dsp_hal_intr.o (xtos_dispatch_level1_interrupts)
C:/usr/xtensa/XtDevTools/install/builds/RI-2021.6-win32/Py_210123_eval/xtensa-elf/arch/lib/\libhandlers-board.a(int-init-level2.o)
                              D:/PYRAMID_SW/dsp_trunk/tags/Sphinx_0p3/testing_app/system_integration/bin/Py_210123_eval/Release/src/dsp_hal_intr.o (xtos_dispatch_level2_interrupts)
C:/usr/xtensa/XtDevTools/install/builds/RI-2021.6-win32/Py_210123_eval/xtensa-elf/arch/lib/\libhandlers-board.a(int-init-level3.o)
                              D:/PYRAMID_SW/dsp_trunk/tags/Sphinx_0p3/testing_app/system_integration/bin/Py_210123_eval/Release/src/dsp_hal_intr.o (xtos_dispatch_level3_interrupts)
C:/usr/xtensa/XtDevTools/install/builds/RI-2021.6-win32/Py_210123_eval/xtensa-elf/arch/lib/\libhandlers-board.a(exc-unhandled.o)
                              C:/usr/xtensa/XtDevTools/install/builds/RI-2021.6-win32/Py_210123_eval/xtensa-elf/arch/lib/\libhandlers-board.a(xtos-set-exchandler.o) (xtos_unhandled_exception)
C:/usr/xtensa/XtDevTools/install/builds/RI-2021.6-win32/Py_210123_eval/xtensa-elf/arch/lib/\libhandlers-board.a(tiny-refs-S--level1int-.o)
                              C:/usr/xtensa/XtDevTools/install/builds/RI-2021.6-win32/Py_210123_eval/xtensa-elf/arch/lib/\libhandlers-board.a(int-init-level1.o) (_need_level1int_)
C:/usr/xtensa/XtDevTools/install/builds/RI-2021.6-win32/Py_210123_eval/xtensa-elf/arch/lib/\libhandlers-board.a(int-vector-level2.o)
                              C:/usr/xtensa/XtDevTools/install/builds/RI-2021.6-win32/Py_210123_eval/xtensa-elf/arch/lib/\libhandlers-board.a(int-init-level2.o) (_Level2Vector)
C:/usr/xtensa/XtDevTools/install/builds/RI-2021.6-win32/Py_210123_eval/xtensa-elf/arch/lib/\libhandlers-board.a(int-vector-level3.o)
                              C:/usr/xtensa/XtDevTools/install/builds/RI-2021.6-win32/Py_210123_eval/xtensa-elf/arch/lib/\libhandlers-board.a(int-init-level3.o) (_Level3Vector)
C:/usr/xtensa/XtDevTools/install/builds/RI-2021.6-win32/Py_210123_eval/xtensa-elf/arch/lib/\libhandlers-board.a(int-handler-level2.o)
                              C:/usr/xtensa/XtDevTools/install/builds/RI-2021.6-win32/Py_210123_eval/xtensa-elf/arch/lib/\libhandlers-board.a(int-vector-level2.o) (_Level2FromVector)
C:/usr/xtensa/XtDevTools/install/builds/RI-2021.6-win32/Py_210123_eval/xtensa-elf/arch/lib/\libhandlers-board.a(int-handler-level3.o)
                              C:/usr/xtensa/XtDevTools/install/builds/RI-2021.6-win32/Py_210123_eval/xtensa-elf/arch/lib/\libhandlers-board.a(int-vector-level3.o) (_Level3FromVector)
C:/usr/xtensa/XtDevTools/install/builds/RI-2021.6-win32/Py_210123_eval/xtensa-elf/arch/lib/\libhandlers-min.a(tiny-refs-min.o)
                              C:/usr/xtensa/XtDevTools/install/builds/RI-2021.6-win32/Py_210123_eval/xtensa-elf/arch/lib/\libhandlers-board.a(exc-syscall-handler.o) (_need_user_vector_)
C:/usr/xtensa/XtDevTools/install/builds/RI-2021.6-win32/Py_210123_eval/xtensa-elf/arch/lib/\libhandlers-null.a(_vectors.o)
                              (_xtos_vectors_ref_)
C:/usr/xtensa/XtDevTools/install/builds/RI-2021.6-win32/Py_210123_eval/xtensa-elf/arch/lib/\libhandlers-null.a(_sharedvectors.o)
                              (_xtos_sharedvectors_ref_)
C:/usr/xtensa/XtDevTools/install/builds/RI-2021.6-win32/Py_210123_eval/xtensa-elf/arch/lib/\libhandlers-board.a(debug-vector.o)
                              C:/usr/xtensa/XtDevTools/install/builds/RI-2021.6-win32/Py_210123_eval/xtensa-elf/arch/lib/\libhandlers-null.a(_vectors.o) (_DebugExceptionVector)
C:/usr/xtensa/XtDevTools/install/builds/RI-2021.6-win32/Py_210123_eval/xtensa-elf/arch/lib/\libhandlers-board.a(double-vector.o)
                              C:/usr/xtensa/XtDevTools/install/builds/RI-2021.6-win32/Py_210123_eval/xtensa-elf/arch/lib/\libhandlers-null.a(_vectors.o) (_DoubleExceptionVector)
C:/usr/xtensa/XtDevTools/install/builds/RI-2021.6-win32/Py_210123_eval/xtensa-elf/arch/lib/\libhandlers-board.a(kernel-vector.o)
                              C:/usr/xtensa/XtDevTools/install/builds/RI-2021.6-win32/Py_210123_eval/xtensa-elf/arch/lib/\libhandlers-null.a(_vectors.o) (_KernelExceptionVector)
C:/usr/xtensa/XtDevTools/install/builds/RI-2021.6-win32/Py_210123_eval/xtensa-elf/arch/lib/\libhal.a(cache_asm--hw_configid0.o)
                              C:/usr/xtensa/XtDevTools/install/builds/RI-2021.6-win32/Py_210123_eval/xtensa-elf/arch/lib/\libhandler-reset-unpack.a(reset-vector-unpack.o) (xthals_hw_configid0)
C:/usr/xtensa/XtDevTools/install/builds/RI-2021.6-win32/Py_210123_eval/xtensa-elf/arch/lib/\libhal.a(cache_asm--hw_configid1.o)
                              C:/usr/xtensa/XtDevTools/install/builds/RI-2021.6-win32/Py_210123_eval/xtensa-elf/arch/lib/\libhandler-reset-unpack.a(reset-vector-unpack.o) (xthals_hw_configid1)
C:/usr/xtensa/XtDevTools/install/builds/RI-2021.6-win32/Py_210123_eval/xtensa-elf/arch/lib/\libhal.a(cache_asm--release_major.o)
                              C:/usr/xtensa/XtDevTools/install/builds/RI-2021.6-win32/Py_210123_eval/xtensa-elf/arch/lib/\libhandler-reset-unpack.a(reset-vector-unpack.o) (xthals_release_major)
C:/usr/xtensa/XtDevTools/install/builds/RI-2021.6-win32/Py_210123_eval/xtensa-elf/arch/lib/\libhal.a(cache_asm--release_minor.o)
                              C:/usr/xtensa/XtDevTools/install/builds/RI-2021.6-win32/Py_210123_eval/xtensa-elf/arch/lib/\libhandler-reset-unpack.a(reset-vector-unpack.o) (xthals_release_minor)
C:/usr/xtensa/XtDevTools/install/builds/RI-2021.6-win32/Py_210123_eval/xtensa-elf/arch/lib/\libhal.a(const--intlevel.o)
                              C:/usr/xtensa/XtDevTools/install/builds/RI-2021.6-win32/Py_210123_eval/xtensa-elf/arch/lib/\libhandlers-board.a(xtos-set-inthandler.o) (Xthal_intlevel)

Allocating common symbols
Common symbol       size              file

__AE_SEARCHDONE     0x4               D:/PYRAMID_SW/dsp_trunk/tags/Sphinx_0p3/testing_app/system_integration/bin/Py_210123_eval/Release/dsp_verification.o
__AE_NEXTOFFSET     0x4               D:/PYRAMID_SW/dsp_trunk/tags/Sphinx_0p3/testing_app/system_integration/bin/Py_210123_eval/Release/dsp_verification.o
__AE_FIRST_TS       0x4               D:/PYRAMID_SW/dsp_trunk/tags/Sphinx_0p3/testing_app/system_integration/bin/Py_210123_eval/Release/dsp_verification.o
__AE_TABLESIZE      0x4               D:/PYRAMID_SW/dsp_trunk/tags/Sphinx_0p3/testing_app/system_integration/bin/Py_210123_eval/Release/dsp_verification.o

Linker script and memory map

LOAD C:/usr/xtensa/XtDevTools/install/builds/RI-2021.6-win32/Py_210123_eval/xtensa-elf/arch/lib/crt1-tiny.o
LOAD D:/PYRAMID_SW/dsp_trunk/tags/Sphinx_0p3/testing_app/system_integration/bin/Py_210123_eval/Release/dsp_verification.o
LOAD D:/PYRAMID_SW/dsp_trunk/tags/Sphinx_0p3/testing_app/system_integration/bin/Py_210123_eval/Release/main.o
LOAD D:/PYRAMID_SW/dsp_trunk/tags/Sphinx_0p3/testing_app/system_integration/bin/Py_210123_eval/Release/src/dsp_bootloader.o
LOAD D:/PYRAMID_SW/dsp_trunk/tags/Sphinx_0p3/testing_app/system_integration/bin/Py_210123_eval/Release/src/dsp_cli_nfca_rx.o
LOAD D:/PYRAMID_SW/dsp_trunk/tags/Sphinx_0p3/testing_app/system_integration/bin/Py_210123_eval/Release/src/dsp_cli_nfca_tx.o
LOAD D:/PYRAMID_SW/dsp_trunk/tags/Sphinx_0p3/testing_app/system_integration/bin/Py_210123_eval/Release/src/dsp_cli_nfcb_rx.o
LOAD D:/PYRAMID_SW/dsp_trunk/tags/Sphinx_0p3/testing_app/system_integration/bin/Py_210123_eval/Release/src/dsp_cli_nfcb_tx.o
LOAD D:/PYRAMID_SW/dsp_trunk/tags/Sphinx_0p3/testing_app/system_integration/bin/Py_210123_eval/Release/src/dsp_cli_nfcf_rx.o
LOAD D:/PYRAMID_SW/dsp_trunk/tags/Sphinx_0p3/testing_app/system_integration/bin/Py_210123_eval/Release/src/dsp_cli_nfcf_tx.o
LOAD D:/PYRAMID_SW/dsp_trunk/tags/Sphinx_0p3/testing_app/system_integration/bin/Py_210123_eval/Release/src/dsp_cli_nfcv_rx.o
LOAD D:/PYRAMID_SW/dsp_trunk/tags/Sphinx_0p3/testing_app/system_integration/bin/Py_210123_eval/Release/src/dsp_cli_nfcv_tx.o
LOAD D:/PYRAMID_SW/dsp_trunk/tags/Sphinx_0p3/testing_app/system_integration/bin/Py_210123_eval/Release/src/dsp_cli_rx.o
LOAD D:/PYRAMID_SW/dsp_trunk/tags/Sphinx_0p3/testing_app/system_integration/bin/Py_210123_eval/Release/src/dsp_cli_tx.o
LOAD D:/PYRAMID_SW/dsp_trunk/tags/Sphinx_0p3/testing_app/system_integration/bin/Py_210123_eval/Release/src/dsp_cli_utils.o
LOAD D:/PYRAMID_SW/dsp_trunk/tags/Sphinx_0p3/testing_app/system_integration/bin/Py_210123_eval/Release/src/dsp_cli_wind_lut.o
LOAD D:/PYRAMID_SW/dsp_trunk/tags/Sphinx_0p3/testing_app/system_integration/bin/Py_210123_eval/Release/src/dsp_dbg.o
LOAD D:/PYRAMID_SW/dsp_trunk/tags/Sphinx_0p3/testing_app/system_integration/bin/Py_210123_eval/Release/src/dsp_evnt_mngr.o
LOAD D:/PYRAMID_SW/dsp_trunk/tags/Sphinx_0p3/testing_app/system_integration/bin/Py_210123_eval/Release/src/dsp_hal.o
LOAD D:/PYRAMID_SW/dsp_trunk/tags/Sphinx_0p3/testing_app/system_integration/bin/Py_210123_eval/Release/src/dsp_hal_activetop.o
LOAD D:/PYRAMID_SW/dsp_trunk/tags/Sphinx_0p3/testing_app/system_integration/bin/Py_210123_eval/Release/src/dsp_hal_cli_top.o
LOAD D:/PYRAMID_SW/dsp_trunk/tags/Sphinx_0p3/testing_app/system_integration/bin/Py_210123_eval/Release/src/dsp_hal_dsp_top.o
LOAD D:/PYRAMID_SW/dsp_trunk/tags/Sphinx_0p3/testing_app/system_integration/bin/Py_210123_eval/Release/src/dsp_hal_fifo.o
LOAD D:/PYRAMID_SW/dsp_trunk/tags/Sphinx_0p3/testing_app/system_integration/bin/Py_210123_eval/Release/src/dsp_hal_hmb.o
LOAD D:/PYRAMID_SW/dsp_trunk/tags/Sphinx_0p3/testing_app/system_integration/bin/Py_210123_eval/Release/src/dsp_hal_intr.o
LOAD D:/PYRAMID_SW/dsp_trunk/tags/Sphinx_0p3/testing_app/system_integration/bin/Py_210123_eval/Release/src/dsp_hal_mdm_top.o
LOAD D:/PYRAMID_SW/dsp_trunk/tags/Sphinx_0p3/testing_app/system_integration/bin/Py_210123_eval/Release/src/dsp_hal_sml1_top.o
LOAD D:/PYRAMID_SW/dsp_trunk/tags/Sphinx_0p3/testing_app/system_integration/bin/Py_210123_eval/Release/src/dsp_hal_sml3.o
LOAD D:/PYRAMID_SW/dsp_trunk/tags/Sphinx_0p3/testing_app/system_integration/bin/Py_210123_eval/Release/src/dsp_hal_timer.o
LOAD D:/PYRAMID_SW/dsp_trunk/tags/Sphinx_0p3/testing_app/system_integration/bin/Py_210123_eval/Release/src/dsp_intr_hndlr.o
LOAD D:/PYRAMID_SW/dsp_trunk/tags/Sphinx_0p3/testing_app/system_integration/bin/Py_210123_eval/Release/src/dsp_logs.o
LOAD D:/PYRAMID_SW/dsp_trunk/tags/Sphinx_0p3/testing_app/system_integration/bin/Py_210123_eval/Release/src/dsp_m0_common.o
LOAD D:/PYRAMID_SW/dsp_trunk/tags/Sphinx_0p3/testing_app/system_integration/bin/Py_210123_eval/Release/src/dsp_mngr.o
LOAD D:/PYRAMID_SW/dsp_trunk/tags/Sphinx_0p3/testing_app/system_integration/bin/Py_210123_eval/Release/src/dsp_sml0_apc.o
LOAD D:/PYRAMID_SW/dsp_trunk/tags/Sphinx_0p3/testing_app/system_integration/bin/Py_210123_eval/Release/src/dsp_sml0_lmac.o
LOAD D:/PYRAMID_SW/dsp_trunk/tags/Sphinx_0p3/testing_app/system_integration/bin/Py_210123_eval/Release/src/dsp_sml1.o
LOAD D:/PYRAMID_SW/dsp_trunk/tags/Sphinx_0p3/testing_app/system_integration/bin/Py_210123_eval/Release/src/dsp_sml1_dyn_reg.o
LOAD D:/PYRAMID_SW/dsp_trunk/tags/Sphinx_0p3/testing_app/system_integration/bin/Py_210123_eval/Release/src/dsp_sml1_pcm.o
LOAD D:/PYRAMID_SW/dsp_trunk/tags/Sphinx_0p3/testing_app/system_integration/bin/Py_210123_eval/Release/src/dsp_sml1_pcm_dyn_reg_lut.o
LOAD D:/PYRAMID_SW/dsp_trunk/tags/Sphinx_0p3/testing_app/system_integration/bin/Py_210123_eval/Release/src/dsp_sml1_pcm_listener.o
LOAD D:/PYRAMID_SW/dsp_trunk/tags/Sphinx_0p3/testing_app/system_integration/bin/Py_210123_eval/Release/src/dsp_sml1_pcm_listener_user_ta.o
LOAD D:/PYRAMID_SW/dsp_trunk/tags/Sphinx_0p3/testing_app/system_integration/bin/Py_210123_eval/Release/src/dsp_sml1_pcm_poller.o
LOAD D:/PYRAMID_SW/dsp_trunk/tags/Sphinx_0p3/testing_app/system_integration/bin/Py_210123_eval/Release/src/dsp_sml1_pcm_poller_user_ta.o
LOAD D:/PYRAMID_SW/dsp_trunk/tags/Sphinx_0p3/testing_app/system_integration/bin/Py_210123_eval/Release/src/dsp_sml1_user_ta_lut.o
LOAD D:/PYRAMID_SW/dsp_trunk/tags/Sphinx_0p3/testing_app/system_integration/bin/Py_210123_eval/Release/test_10_loopbck_nfcv_rw.o
LOAD D:/PYRAMID_SW/dsp_trunk/tags/Sphinx_0p3/testing_app/system_integration/bin/Py_210123_eval/Release/test_1_loopbck_nfcf_rw_std.o
LOAD D:/PYRAMID_SW/dsp_trunk/tags/Sphinx_0p3/testing_app/system_integration/bin/Py_210123_eval/Release/test_2_loopbck_nfcf_ce.o
LOAD D:/PYRAMID_SW/dsp_trunk/tags/Sphinx_0p3/testing_app/system_integration/bin/Py_210123_eval/Release/test_3_loopbck_nfca_rw_std.o
LOAD D:/PYRAMID_SW/dsp_trunk/tags/Sphinx_0p3/testing_app/system_integration/bin/Py_210123_eval/Release/test_4_loopbck_nfca_ce.o
LOAD D:/PYRAMID_SW/dsp_trunk/tags/Sphinx_0p3/testing_app/system_integration/bin/Py_210123_eval/Release/test_5_loopbck_nfca_rw_sdd.o
LOAD D:/PYRAMID_SW/dsp_trunk/tags/Sphinx_0p3/testing_app/system_integration/bin/Py_210123_eval/Release/test_6_loopbck_nfca_ce_swp_intf.o
LOAD D:/PYRAMID_SW/dsp_trunk/tags/Sphinx_0p3/testing_app/system_integration/bin/Py_210123_eval/Release/test_7_loopbck_nfcb_rw.o
LOAD D:/PYRAMID_SW/dsp_trunk/tags/Sphinx_0p3/testing_app/system_integration/bin/Py_210123_eval/Release/test_8_loopbck_nfcb_ce.o
LOAD D:/PYRAMID_SW/dsp_trunk/tags/Sphinx_0p3/testing_app/system_integration/bin/Py_210123_eval/Release/test_9_loopbck_nfca_rw_t1t.o
LOAD D:/PYRAMID_SW/dsp_trunk/tags/Sphinx_0p3/testing_app/system_integration/bin/Py_210123_eval/Release/test_integration.o
LOAD C:/usr/xtensa/XtDevTools/install/builds/RI-2021.6-win32/Py_210123_eval/xtensa-elf/lib/\libstdc++.a
LOAD C:/usr/xtensa/XtDevTools/install/builds/RI-2021.6-win32/Py_210123_eval/xtensa-elf/lib/\libm.a
LOAD C:/usr/xtensa/XtDevTools/install/builds/RI-2021.6-win32/Py_210123_eval/xtensa-elf/lib/xcc/\libgcc.a
LOAD C:/usr/xtensa/XtDevTools/install/builds/RI-2021.6-win32/Py_210123_eval/xtensa-elf/lib/\libc.a
LOAD C:/usr/xtensa/XtDevTools/install/builds/RI-2021.6-win32/Py_210123_eval/xtensa-elf/lib/\libgloss.a
LOAD C:/usr/xtensa/XtDevTools/install/builds/RI-2021.6-win32/Py_210123_eval/xtensa-elf/arch/lib/\libtinyrt.a
LOAD C:/usr/xtensa/XtDevTools/install/builds/RI-2021.6-win32/Py_210123_eval/xtensa-elf/lib/\libc.a
LOAD C:/usr/xtensa/XtDevTools/install/builds/RI-2021.6-win32/Py_210123_eval/xtensa-elf/arch/lib/\libhandler-reset-unpack.a
LOAD C:/usr/xtensa/XtDevTools/install/builds/RI-2021.6-win32/Py_210123_eval/xtensa-elf/arch/lib/\libhandlers-board.a
LOAD C:/usr/xtensa/XtDevTools/install/builds/RI-2021.6-win32/Py_210123_eval/xtensa-elf/arch/lib/\libhandlers-min.a
LOAD C:/usr/xtensa/XtDevTools/install/builds/RI-2021.6-win32/Py_210123_eval/xtensa-elf/arch/lib/\libhandlers-null.a
LOAD C:/usr/xtensa/XtDevTools/install/builds/RI-2021.6-win32/Py_210123_eval/xtensa-elf/arch/lib/\libhandler-reset.a
LOAD C:/usr/xtensa/XtDevTools/install/builds/RI-2021.6-win32/Py_210123_eval/xtensa-elf/arch/lib/\libhandlers-board.a
LOAD C:/usr/xtensa/XtDevTools/install/builds/RI-2021.6-win32/Py_210123_eval/xtensa-elf/arch/lib/\libtinyrt.a
LOAD C:/usr/xtensa/XtDevTools/install/builds/RI-2021.6-win32/Py_210123_eval/xtensa-elf/arch/lib/\libhal.a
LOAD C:/usr/xtensa/XtDevTools/install/builds/RI-2021.6-win32/Py_210123_eval/xtensa-elf/lib/\libc.a
LOAD C:/usr/xtensa/XtDevTools/install/builds/RI-2021.6-win32/Py_210123_eval/xtensa-elf/lib/xcc/\libgcc.a
                0x50000000                _memmap_mem_irom0_start = 0x50000000
                0x50010000                _memmap_mem_irom0_end = 0x50010000
                0x50040000                _memmap_mem_drom0_start = 0x50040000
                0x50048000                _memmap_mem_drom0_end = 0x50048000
                0x50080000                _memmap_mem_iram0_start = 0x50080000
                0x50088000                _memmap_mem_iram0_end = 0x50088000
                0x500a0000                _memmap_mem_dram0_start = 0x500a0000
                0x500a8000                _memmap_mem_dram0_end = 0x500a8000
                0x500b0000                _memmap_mem_iram1_start = 0x500b0000
                0x500b8000                _memmap_mem_iram1_end = 0x500b8000
                0x500c0000                _memmap_mem_dram1_start = 0x500c0000
                0x500c8000                _memmap_mem_dram1_end = 0x500c8000
                0x80000000                _memmap_mem_srom_start = 0x80000000
                0x80100000                _memmap_mem_srom_end = 0x80100000
                0x90000000                _memmap_mem_sram_start = 0x90000000
                0x90100000                _memmap_mem_sram_end = 0x90100000
                0x50000000                _memmap_seg_irom0_0_start = 0x50000000
                0x50000300                _memmap_seg_irom0_0_max = 0x50000300
                0x50000400                _memmap_seg_dv_0_start = 0x50000400
                0x50000578                _memmap_seg_dv_0_max = 0x50000578
                0x50000578                _memmap_seg_dv_1_start = 0x50000578
                0x50000580                _memmap_seg_dv_1_max = 0x50000580
                0x50000580                _memmap_seg_dv_2_start = 0x50000580
                0x500005b8                _memmap_seg_dv_2_max = 0x500005b8
                0x500005b8                _memmap_seg_dv_3_start = 0x500005b8
                0x500005c0                _memmap_seg_dv_3_max = 0x500005c0
                0x500005c0                _memmap_seg_dv_4_start = 0x500005c0
                0x500005f8                _memmap_seg_dv_4_max = 0x500005f8
                0x500005f8                _memmap_seg_dv_5_start = 0x500005f8
                0x50000600                _memmap_seg_dv_5_max = 0x50000600
                0x50000600                _memmap_seg_dv_6_start = 0x50000600
                0x50000638                _memmap_seg_dv_6_max = 0x50000638
                0x50000638                _memmap_seg_dv_7_start = 0x50000638
                0x50000640                _memmap_seg_dv_7_max = 0x50000640
                0x50000640                _memmap_seg_dv_8_start = 0x50000640
                0x50000678                _memmap_seg_dv_8_max = 0x50000678
                0x50000678                _memmap_seg_dv_9_start = 0x50000678
                0x50000680                _memmap_seg_dv_9_max = 0x50000680
                0x50000680                _memmap_seg_dv_10_start = 0x50000680
                0x500006b8                _memmap_seg_dv_10_max = 0x500006b8
                0x500006b8                _memmap_seg_dv_11_start = 0x500006b8
                0x50000700                _memmap_seg_dv_11_max = 0x50000700
                0x50000700                _memmap_seg_dv_12_start = 0x50000700
                0x50010000                _memmap_seg_dv_12_max = 0x50010000
                0x50040000                _memmap_seg_drom0_0_start = 0x50040000
                0x50048000                _memmap_seg_drom0_0_max = 0x50048000
                0x50080000                _memmap_seg_ipatch_start = 0x50080000
                0x50088000                _memmap_seg_ipatch_max = 0x50088000
                0x500a0000                _memmap_seg_dnoload_start = 0x500a0000
                0x500a2200                _memmap_seg_dnoload_max = 0x500a2200
                0x500a2200                _memmap_seg_dram0_0_start = 0x500a2200
                0x500a4200                _memmap_seg_dram0_0_max = 0x500a4200
                0x500a4200                _memmap_seg_dpatch_start = 0x500a4200
                0x500a8000                _memmap_seg_dpatch_max = 0x500a8000
                0x500b0000                _memmap_seg_iram1_0_start = 0x500b0000
                0x500b4000                _memmap_seg_iram1_0_max = 0x500b4000
                0x500b4000                _memmap_seg_iram1_1_start = 0x500b4000
                0x500b6000                _memmap_seg_iram1_1_max = 0x500b6000
                0x500b6000                _memmap_seg_iram1_2_start = 0x500b6000
                0x500b8000                _memmap_seg_iram1_2_max = 0x500b8000
                0x500c0000                _memmap_seg_dram1_0_start = 0x500c0000
                0x500c4000                _memmap_seg_dram1_0_max = 0x500c4000
                0x500c4000                _memmap_seg_dram1_1_start = 0x500c4000
                0x500c6000                _memmap_seg_dram1_1_max = 0x500c6000
                0x500c6000                _memmap_seg_dram1_2_start = 0x500c6000
                0x500c8000                _memmap_seg_dram1_2_max = 0x500c8000
                0x00000000                _rom_store_table = 0x0
                0x50000000                PROVIDE (_memmap_reset_vector, 0x50000000)
                0x50000400                PROVIDE (_memmap_vecbase_reset, 0x50000400)
                0x00011200                _memmap_cacheattr_wb_base = 0x11200
                0x00011200                _memmap_cacheattr_wt_base = 0x11200
                0x00022200                _memmap_cacheattr_bp_base = 0x22200
                0xfff000ff                _memmap_cacheattr_unused_mask = 0xfff000ff
                0x2221122f                _memmap_cacheattr_wb_trapnull = 0x2221122f
                0x2221122f                _memmap_cacheattr_wba_trapnull = 0x2221122f
                0x2221122f                _memmap_cacheattr_wbna_trapnull = 0x2221122f
                0x2221122f                _memmap_cacheattr_wt_trapnull = 0x2221122f
                0x2222222f                _memmap_cacheattr_bp_trapnull = 0x2222222f
                0xfff112ff                _memmap_cacheattr_wb_strict = 0xfff112ff
                0xfff112ff                _memmap_cacheattr_wt_strict = 0xfff112ff
                0xfff222ff                _memmap_cacheattr_bp_strict = 0xfff222ff
                0x22211222                _memmap_cacheattr_wb_allvalid = 0x22211222
                0x22211222                _memmap_cacheattr_wt_allvalid = 0x22211222
                0x22222222                _memmap_cacheattr_bp_allvalid = 0x22222222
                0x0000001c                _memmap_region_map = 0x1c
                0x2221122f                PROVIDE (_memmap_cacheattr_reset, _memmap_cacheattr_wb_trapnull)

.ResetVector.text
                0x50000000       0xf0
                0x50000000                _ResetVector_text_start = ABSOLUTE (.)
 *(.ResetVector.text)
 .ResetVector.text
                0x50000000       0xef C:/usr/xtensa/XtDevTools/install/builds/RI-2021.6-win32/Py_210123_eval/xtensa-elf/arch/lib/\libhandler-reset-unpack.a(reset-vector-unpack.o)
                                         0xf2 (size before relaxing)
                0x50000000                _ResetVector
                0x5000002c                _ResetHandler
                0x500000f0                . = ALIGN (0x4)
 *fill*         0x500000ef        0x1 
                0x500000f0                _ResetVector_text_end = ABSOLUTE (.)

.ResetHandler.text
                0x500000f0        0x0
                0x500000f0                _ResetHandler_text_start = ABSOLUTE (.)
 *(.ResetHandler.literal .ResetHandler.text)
                0x500000f0                . = ALIGN (0x4)
                0x500000f0                _ResetHandler_text_end = ABSOLUTE (.)
                0x500000f0                _memmap_seg_irom0_0_end = ALIGN (0x8)

.WindowVectors.text
                0x50000400      0x16c
                0x50000400                _WindowVectors_text_start = ABSOLUTE (.)
 *(.WindowVectors.text)
 .WindowVectors.text
                0x50000400      0x16a C:/usr/xtensa/XtDevTools/install/builds/RI-2021.6-win32/Py_210123_eval/xtensa-elf/arch/lib/\libhandlers-board.a(window-vectors.o)
                0x50000400                _WindowOverflow4
                0x50000410                _xtos_alloca_handler
                0x50000440                _WindowUnderflow4
                0x50000480                _WindowOverflow8
                0x500004c0                _WindowUnderflow8
                0x50000500                _WindowOverflow12
                0x50000540                _WindowUnderflow12
                0x5000056c                . = ALIGN (0x4)
 *fill*         0x5000056a        0x2 
                0x5000056c                _WindowVectors_text_end = ABSOLUTE (.)
                0x50000570                _memmap_seg_dv_0_end = ALIGN (0x8)

.Level2InterruptVector.literal
                0x50000578        0x0
                0x50000578                _Level2InterruptVector_literal_start = ABSOLUTE (.)
 *(.Level2InterruptVector.literal)
                0x50000578                . = ALIGN (0x4)
                0x50000578                _Level2InterruptVector_literal_end = ABSOLUTE (.)
                0x50000578                _memmap_seg_dv_1_end = ALIGN (0x8)

.Level2InterruptVector.text
                0x50000580        0x8
                0x50000580                _Level2InterruptVector_text_start = ABSOLUTE (.)
 *(.Level2InterruptVector.text)
 .Level2InterruptVector.text
                0x50000580        0x6 C:/usr/xtensa/XtDevTools/install/builds/RI-2021.6-win32/Py_210123_eval/xtensa-elf/arch/lib/\libhandlers-board.a(int-vector-level2.o)
                0x50000580                _Level2Vector
                0x50000588                . = ALIGN (0x4)
 *fill*         0x50000586        0x2 
                0x50000588                _Level2InterruptVector_text_end = ABSOLUTE (.)
                0x50000588                _memmap_seg_dv_2_end = ALIGN (0x8)

.Level3InterruptVector.literal
                0x500005b8        0x0
                0x500005b8                _Level3InterruptVector_literal_start = ABSOLUTE (.)
 *(.Level3InterruptVector.literal)
                0x500005b8                . = ALIGN (0x4)
                0x500005b8                _Level3InterruptVector_literal_end = ABSOLUTE (.)
                0x500005b8                _memmap_seg_dv_3_end = ALIGN (0x8)

.Level3InterruptVector.text
                0x500005c0        0x8
                0x500005c0                _Level3InterruptVector_text_start = ABSOLUTE (.)
 *(.Level3InterruptVector.text)
 .Level3InterruptVector.text
                0x500005c0        0x6 C:/usr/xtensa/XtDevTools/install/builds/RI-2021.6-win32/Py_210123_eval/xtensa-elf/arch/lib/\libhandlers-board.a(int-vector-level3.o)
                0x500005c0                _Level3Vector
                0x500005c8                . = ALIGN (0x4)
 *fill*         0x500005c6        0x2 
                0x500005c8                _Level3InterruptVector_text_end = ABSOLUTE (.)
                0x500005c8                _memmap_seg_dv_4_end = ALIGN (0x8)

.DebugExceptionVector.literal
                0x500005f8        0x0
                0x500005f8                _DebugExceptionVector_literal_start = ABSOLUTE (.)
 *(.DebugExceptionVector.literal)
                0x500005f8                . = ALIGN (0x4)
                0x500005f8                _DebugExceptionVector_literal_end = ABSOLUTE (.)
                0x500005f8                _memmap_seg_dv_5_end = ALIGN (0x8)

.DebugExceptionVector.text
                0x50000600        0xc
                0x50000600                _DebugExceptionVector_text_start = ABSOLUTE (.)
 *(.DebugExceptionVector.text)
 .DebugExceptionVector.text
                0x50000600        0xb C:/usr/xtensa/XtDevTools/install/builds/RI-2021.6-win32/Py_210123_eval/xtensa-elf/arch/lib/\libhandlers-board.a(debug-vector.o)
                0x50000600                _DebugExceptionVector
                0x5000060c                . = ALIGN (0x4)
 *fill*         0x5000060b        0x1 
                0x5000060c                _DebugExceptionVector_text_end = ABSOLUTE (.)
                0x50000610                _memmap_seg_dv_6_end = ALIGN (0x8)

.KernelExceptionVector.literal
                0x50000638        0x0
                0x50000638                _KernelExceptionVector_literal_start = ABSOLUTE (.)
 *(.KernelExceptionVector.literal)
                0x50000638                . = ALIGN (0x4)
                0x50000638                _KernelExceptionVector_literal_end = ABSOLUTE (.)
                0x50000638                _memmap_seg_dv_7_end = ALIGN (0x8)

.KernelExceptionVector.text
                0x50000640        0x8
                0x50000640                _KernelExceptionVector_text_start = ABSOLUTE (.)
 *(.KernelExceptionVector.text)
 .KernelExceptionVector.text
                0x50000640        0x6 C:/usr/xtensa/XtDevTools/install/builds/RI-2021.6-win32/Py_210123_eval/xtensa-elf/arch/lib/\libhandlers-board.a(kernel-vector.o)
                0x50000640                _KernelExceptionVector
                0x50000648                . = ALIGN (0x4)
 *fill*         0x50000646        0x2 
                0x50000648                _KernelExceptionVector_text_end = ABSOLUTE (.)
                0x50000648                _memmap_seg_dv_8_end = ALIGN (0x8)

.UserExceptionVector.literal
                0x50000678        0x4
                0x50000678                _UserExceptionVector_literal_start = ABSOLUTE (.)
 *(.UserExceptionVector.literal)
 .UserExceptionVector.literal
                0x50000678        0x4 C:/usr/xtensa/XtDevTools/install/builds/RI-2021.6-win32/Py_210123_eval/xtensa-elf/arch/lib/\libhandlers-board.a(user-vector.o)
                0x5000067c                . = ALIGN (0x4)
                0x5000067c                _UserExceptionVector_literal_end = ABSOLUTE (.)
                0x50000680                _memmap_seg_dv_9_end = ALIGN (0x8)

.UserExceptionVector.text
                0x50000680       0x18
                0x50000680                _UserExceptionVector_text_start = ABSOLUTE (.)
 *(.UserExceptionVector.text)
 .UserExceptionVector.text
                0x50000680       0x17 C:/usr/xtensa/XtDevTools/install/builds/RI-2021.6-win32/Py_210123_eval/xtensa-elf/arch/lib/\libhandlers-board.a(user-vector.o)
                0x50000680                _UserExceptionVector
                0x50000698                . = ALIGN (0x4)
 *fill*         0x50000697        0x1 
                0x50000698                _UserExceptionVector_text_end = ABSOLUTE (.)
                0x50000698                _memmap_seg_dv_10_end = ALIGN (0x8)

.DoubleExceptionVector.literal
                0x500006b8        0x0
                0x500006b8                _DoubleExceptionVector_literal_start = ABSOLUTE (.)
 *(.DoubleExceptionVector.literal)
                0x500006b8                . = ALIGN (0x4)
                0x500006b8                _DoubleExceptionVector_literal_end = ABSOLUTE (.)
                0x500006b8                _memmap_seg_dv_11_end = ALIGN (0x8)
                0x500006b8                _memmap_mem_irom0_max = ABSOLUTE (.)

.srom.rodata    0x50040000        0x0
                0x50040000                _srom_rodata_start = ABSOLUTE (.)
 *(.srom.rodata)
                0x50040000                . = ALIGN (0x4)
                0x50040000                _srom_rodata_end = ABSOLUTE (.)

.sram.rodata    0x50040000        0x0
                0x50040000                _sram_rodata_start = ABSOLUTE (.)
 *(.sram.rodata)
                0x50040000                . = ALIGN (0x4)
                0x50040000                _sram_rodata_end = ABSOLUTE (.)

.rtos.rodata    0x50040000       0x40
                0x50040000                _rtos_rodata_start = ABSOLUTE (.)
 *(.rtos.rodata)
 .rtos.rodata   0x50040000       0x40 C:/usr/xtensa/XtDevTools/install/builds/RI-2021.6-win32/Py_210123_eval/xtensa-elf/arch/lib/\libhal.a(const--intlevel.o)
                0x50040000                Xthal_intlevel
                0x50040040                . = ALIGN (0x4)
                0x50040040                _rtos_rodata_end = ABSOLUTE (.)

.rodata         0x50040040     0x566c
                0x50040040                _rodata_start = ABSOLUTE (.)
 *(.rodata)
 .rodata        0x50040040      0xad8 D:/PYRAMID_SW/dsp_trunk/tags/Sphinx_0p3/testing_app/system_integration/bin/Py_210123_eval/Release/src/dsp_bootloader.o
                0x50040040                FUNC_DATA_SECTION
                0x500404a0                VAR_DATA_SECTION
                0x50040710                XTENSA_DATA_SECTION
 *fill*         0x50040b18        0x8 
 .rodata        0x50040b20       0xc0 D:/PYRAMID_SW/dsp_trunk/tags/Sphinx_0p3/testing_app/system_integration/bin/Py_210123_eval/Release/src/dsp_cli_nfca_rx.o
 .rodata        0x50040be0       0x34 D:/PYRAMID_SW/dsp_trunk/tags/Sphinx_0p3/testing_app/system_integration/bin/Py_210123_eval/Release/src/dsp_cli_nfcb_rx.o
 *fill*         0x50040c14        0xc 
 .rodata        0x50040c20       0x20 D:/PYRAMID_SW/dsp_trunk/tags/Sphinx_0p3/testing_app/system_integration/bin/Py_210123_eval/Release/src/dsp_cli_nfcb_tx.o
                0x50040c20                TECH_B_RW_PATTERN
                0x50040c30                TECH_B_CE_PATTERN
 .rodata        0x50040c40       0x34 D:/PYRAMID_SW/dsp_trunk/tags/Sphinx_0p3/testing_app/system_integration/bin/Py_210123_eval/Release/src/dsp_cli_nfcv_rx.o
 .rodata        0x50040c74        0x8 D:/PYRAMID_SW/dsp_trunk/tags/Sphinx_0p3/testing_app/system_integration/bin/Py_210123_eval/Release/src/dsp_cli_nfcv_tx.o
                0x50040c74                TECH_V_RW_EOF
                0x50040c76                TECH_V_RW_SOF
                0x50040c78                TECH_V_RW_PATTERN
 *fill*         0x50040c7c        0x4 
 .rodata        0x50040c80       0x1a D:/PYRAMID_SW/dsp_trunk/tags/Sphinx_0p3/testing_app/system_integration/bin/Py_210123_eval/Release/src/dsp_cli_utils.o
                0x50040c80                cli_tx_nfca_fifo_chips
                0x50040c88                cli_tx_nfcf_fifo_chips
                0x50040c90                cli_tx_nfcb_fifo_chips
                0x50040c98                cli_tx_nfcv_fifo_chips
 *fill*         0x50040c9a        0x6 
 .rodata        0x50040ca0       0xb8 D:/PYRAMID_SW/dsp_trunk/tags/Sphinx_0p3/testing_app/system_integration/bin/Py_210123_eval/Release/src/dsp_cli_wind_lut.o
                0x50040ca0                cli_tx_bit_rate_lut
                0x50040cb0                cli_tx_win_lut
                0x50040cb4                cli_tx_nfcv_win_lut
                0x50040cb8                cli_bd_fctr_lut
                0x50040cc0                cli_tx_nfca_fdt_lstn_fctr_lut
                0x50040cc8                cli_tx_nfca_fifo_WTM_lut
                0x50040cd0                cli_tx_nfcb_fifo_WTM_lut
                0x50040cd8                cli_tx_nfcf_fifo_WTM_lut
                0x50040cda                cli_tx_nfcv_fifo_WTM_lut
                0x50040ce0                cli_tx_nfca_chip_rate_lut
                0x50040ce8                cli_tx_nfcb_chip_rate_lut
                0x50040cf0                cli_tx_nfcf_chip_rate_lut
                0x50040cf2                cli_tx_nfcv_chip_rate_lut
                0x50040d00                cli_tx_nfca_prog_delay_rdly_lut
                0x50040d10                cli_tx_nfcb_prog_delay_rdly_lut
                0x50040d20                cli_tx_nfcf_prog_delay_rdly_lut
                0x50040d24                cli_tx_nfcv_prog_delay_rdly_lut
                0x50040d30                cli_tx_nfca_prog_delay_byp_lut
                0x50040d40                cli_tx_nfcb_prog_delay_byp_lut
                0x50040d50                cli_tx_nfcf_prog_delay_byp_lut
                0x50040d54                cli_tx_nfcv_prog_delay_byp_lut
 *fill*         0x50040d58        0x8 
 .rodata        0x50040d60       0x10 D:/PYRAMID_SW/dsp_trunk/tags/Sphinx_0p3/testing_app/system_integration/bin/Py_210123_eval/Release/src/dsp_sml0_lmac.o
                0x50040d60                lmac_fssi_scaling_factor
 .rodata        0x50040d70     0x395e D:/PYRAMID_SW/dsp_trunk/tags/Sphinx_0p3/testing_app/system_integration/bin/Py_210123_eval/Release/src/dsp_sml1_pcm_dyn_reg_lut.o
                0x50040d70                poller_dyn_regs
                0x50041210                listener_dyn_regs
                0x500416b0                indx_map_poller_sml0_pll_pll_mode_dependent_rom
                0x500416b8                indx_map_listener_sml0_pll_pll_mode_dependent_rom
                0x500416c0                sml0_pll_pll_mode_dependent_rom
                0x500416f0                indx_map_poller_sml0_pll_pll_mode_dependent_dh
                0x500416f8                indx_map_listener_sml0_pll_pll_mode_dependent_dh
                0x50041700                indx_map_poller_active_pll_mode_dependent_rom
                0x50041708                indx_map_listener_active_pll_mode_dependent_rom
                0x50041710                active_pll_mode_dependent_rom
                0x50041740                indx_map_poller_active_pll_mode_dependent_dh
                0x50041748                indx_map_listener_active_pll_mode_dependent_dh
                0x50041750                indx_map_poller_standby_pll_mode_dependent_rom
                0x50041758                indx_map_listener_standby_pll_mode_dependent_rom
                0x50041760                standby_pll_mode_dependent_rom
                0x50041790                indx_map_poller_sml0_pll_bw_ctrl_dh
                0x500417a0                indx_map_listener_sml0_pll_bw_ctrl_dh
                0x500417e0                indx_map_poller_sml0_pll_ce_rx_dh
                0x500417f0                indx_map_listener_sml0_pll_ce_rx_dh
                0x50041800                indx_map_poller_active_ce_rx_rom
                0x50041810                indx_map_listener_active_ce_rx_rom
                0x50041820                active_ce_rx_rom
                0x500418a0                indx_map_poller_active_ce_rx_dh
                0x500418b0                indx_map_listener_active_ce_rx_dh
                0x500418c0                indx_map_poller_sml0_pll_ce_xtal_dh
                0x500418d0                indx_map_listener_sml0_pll_ce_xtal_dh
                0x500418e0                indx_map_poller_active_ce_tx_rom
                0x500418f0                indx_map_listener_active_ce_tx_rom
                0x50041900                active_ce_tx_rom
                0x50041950                indx_map_poller_active_ce_tx_dh
                0x50041960                indx_map_listener_active_ce_tx_dh
                0x50041970                indx_map_poller_active_pause_time_limit_ctrl_rom
                0x50041980                indx_map_listener_active_pause_time_limit_ctrl_rom
                0x50041990                active_pause_time_limit_ctrl_rom
                0x50041a20                indx_map_poller_sml0_rx_bb_agc_23_rom
                0x50041a30                indx_map_listener_sml0_rx_bb_agc_23_rom
                0x50041a40                sml0_rx_bb_agc_23_rom
                0x50041bb0                indx_map_poller_sml0_rx_bb_agc_6_rom
                0x50041bb8                indx_map_listener_sml0_rx_bb_agc_6_rom
                0x50041bc0                sml0_rx_bb_agc_6_rom
                0x50041c10                indx_map_poller_sml0_tx_txldo_dh
                0x50041c18                indx_map_listener_sml0_tx_txldo_dh
                0x50041c20                indx_map_poller_sml0_tx_pa_en_dh
                0x50041c30                indx_map_listener_sml0_tx_pa_en_dh
                0x50041c40                indx_map_poller_sml0_tx_pa_bbws_dh
                0x50041c50                indx_map_listener_sml0_tx_pa_bbws_dh
                0x50041c60                indx_map_poller_sml0_tx_pa_bbws_idle_rom
                0x50041c64                indx_map_listener_sml0_tx_pa_bbws_idle_rom
                0x50041c70                sml0_tx_pa_bbws_idle_rom
                0x50041cb0                indx_map_poller_sml0_tx_pa_soft_start_dh
                0x50041cb8                indx_map_listener_sml0_tx_pa_soft_start_dh
                0x50041cc0                indx_map_poller_sml0_tx_pa_top_controller_rom
                0x50041cc8                indx_map_listener_sml0_tx_pa_top_controller_rom
                0x50041cd0                sml0_tx_pa_top_controller_rom
                0x50041ce0                indx_map_poller_sml0_tx_pa_cdc_dh
                0x50041ce8                indx_map_listener_sml0_tx_pa_cdc_dh
                0x50041cf0                indx_map_poller_sml1_txctrl_eof_dh
                0x50041cf8                indx_map_listener_sml1_txctrl_eof_dh
                0x50041d00                indx_map_poller_active_trxmode_rom
                0x50041d08                indx_map_listener_active_trxmode_rom
                0x50041d10                active_trxmode_rom
                0x50041d40                indx_map_poller_sml0_rx_trxmode_otp
                0x50041d48                indx_map_listener_sml0_rx_trxmode_otp
                0x50041d50                indx_map_poller_sml0_rx_trxmode_rom
                0x50041d58                indx_map_listener_sml0_rx_trxmode_rom
                0x50041d60                sml0_rx_trxmode_rom
                0x50041e40                indx_map_poller_active_trxmode_bbabw_rom
                0x50041e50                indx_map_listener_active_trxmode_bbabw_rom
                0x50041e60                active_trxmode_bbabw_rom
                0x50041ef0                indx_map_poller_dfemdm_dfe_mdm_dyn_dh_22_dh
                0x50041f00                indx_map_listener_dfemdm_dfe_mdm_dyn_dh_22_dh
                0x50041f10                indx_map_poller_dfemdm_dfe_mdm_dyn_dh_4_dh
                0x50041f20                indx_map_listener_dfemdm_dfe_mdm_dyn_dh_4_dh
                0x50041f30                indx_map_poller_dfemdm_dfe_mdm_dyn_dh_2_dh
                0x50041f38                indx_map_listener_dfemdm_dfe_mdm_dyn_dh_2_dh
                0x50041f40                indx_map_poller_dfemdm_dfe_mdm_dyn_otp_22_otp
                0x50041f50                indx_map_listener_dfemdm_dfe_mdm_dyn_otp_22_otp
                0x50041f60                indx_map_poller_dfemdm_dfe_mdm_dyn_otp_7_otp
                0x50041f70                indx_map_listener_dfemdm_dfe_mdm_dyn_otp_7_otp
                0x50041f78                indx_map_poller_dfemdm_dfe_mdm_dyn_otp_2_otp
                0x50041f80                indx_map_listener_dfemdm_dfe_mdm_dyn_otp_2_otp
                0x50041f90                indx_map_poller_dfemdm_dfe_mdm_dyn_rom_22_rom
                0x50041fa0                indx_map_listener_dfemdm_dfe_mdm_dyn_rom_22_rom
                0x50041fb0                dfemdm_dfe_mdm_dyn_rom_22_rom
                0x500429b0                indx_map_poller_dfemdm_dfe_mdm_dyn_rom_g1_10_rom
                0x500429c0                indx_map_listener_dfemdm_dfe_mdm_dyn_rom_g1_10_rom
                0x500429d0                dfemdm_dfe_mdm_dyn_rom_g1_10_rom
                0x50042ae0                indx_map_poller_dfemdm_dfe_mdm_dyn_rom_g2_10_rom
                0x50042af0                indx_map_listener_dfemdm_dfe_mdm_dyn_rom_g2_10_rom
                0x50042b00                dfemdm_dfe_mdm_dyn_rom_g2_10_rom
                0x50043940                indx_map_poller_dfemdm_dfe_mdm_dyn_rom_g1_9_rom
                0x50043950                indx_map_listener_dfemdm_dfe_mdm_dyn_rom_g1_9_rom
                0x50043960                dfemdm_dfe_mdm_dyn_rom_g1_9_rom
                0x50043c10                indx_map_poller_dfemdm_dfe_mdm_dyn_rom_g2_9_rom
                0x50043c20                indx_map_listener_dfemdm_dfe_mdm_dyn_rom_g2_9_rom
                0x50043c30                dfemdm_dfe_mdm_dyn_rom_g2_9_rom
                0x50043c80                indx_map_poller_dfemdm_dfe_mdm_dyn_rom_6_rom
                0x50043c90                indx_map_listener_dfemdm_dfe_mdm_dyn_rom_6_rom
                0x50043ca0                dfemdm_dfe_mdm_dyn_rom_6_rom
                0x50043d50                indx_map_poller_dfemdm_dfe_mdm_dyn_rom_5_rom
                0x50043d60                indx_map_listener_dfemdm_dfe_mdm_dyn_rom_5_rom
                0x50043d70                dfemdm_dfe_mdm_dyn_rom_5_rom
                0x50043dc0                indx_map_poller_dfemdm_dfe_mdm_dyn_rom_4_rom
                0x50043dc8                indx_map_listener_dfemdm_dfe_mdm_dyn_rom_4_rom
                0x50043dd0                dfemdm_dfe_mdm_dyn_rom_4_rom
                0x50044390                indx_map_poller_dfemdm_dfe_mdm_dyn_rom_g1_2_rom
                0x500443a0                indx_map_listener_dfemdm_dfe_mdm_dyn_rom_g1_2_rom
                0x500443b0                dfemdm_dfe_mdm_dyn_rom_g1_2_rom
                0x500443e0                indx_map_poller_dfemdm_dfe_mdm_dyn_rom_g2_2_rom
                0x500443f0                indx_map_listener_dfemdm_dfe_mdm_dyn_rom_g2_2_rom
                0x50044400                dfemdm_dfe_mdm_dyn_rom_g2_2_rom
                0x50044490                indx_map_poller_dfemdm_dfe_mdm_dyn_rom_g3_2_rom
                0x500444a0                indx_map_listener_dfemdm_dfe_mdm_dyn_rom_g3_2_rom
                0x500444b0                dfemdm_dfe_mdm_dyn_rom_g3_2_rom
                0x500444c0                indx_map_poller_standby_bbagc_load_en_rom
                0x500444c8                indx_map_listener_standby_bbagc_load_en_rom
                0x500444d0                standby_bbagc_load_en_rom
                0x50044500                indx_map_poller_sml1_sml1_rom_dyn_rom
                0x50044508                indx_map_listener_sml1_sml1_rom_dyn_rom
                0x50044510                sml1_sml1_rom_dyn_rom
                0x50044680                indx_map_poller_sml1_txctrl_mdm_blndzn_od_otp
                0x50044690                indx_map_listener_sml1_txctrl_mdm_blndzn_od_otp
                0x500446a0                indx_map_poller_sml1_pa_strength_dh
                0x500446b0                indx_map_listener_sml1_pa_strength_dh
                0x500446c0                indx_map_poller_sml1_fssi_otp_dyn_otp
                0x500446c8                indx_map_listener_sml1_fssi_otp_dyn_otp
 *fill*         0x500446ce        0x2 
 .rodata        0x500446d0      0xfd4 D:/PYRAMID_SW/dsp_trunk/tags/Sphinx_0p3/testing_app/system_integration/bin/Py_210123_eval/Release/src/dsp_sml1_user_ta_lut.o
                0x500446d0                pcm_poller_uta_val
                0x50044d30                pcm_poller_fod_start_val
                0x50044e40                pcm_listener_uta_val
                0x50045550                pcm_listener_fod_start_val
 *(SORT(.rodata.sort.*))
 *(SORT(.rodata.keepsort.*) .rodata.keep.*)
 *(.rodata.*)
 *(.gnu.linkonce.r.*)
 *(.rodata1)
                0x500456a4                __XT_EXCEPTION_TABLE__ = ABSOLUTE (.)
 *(.xt_except_table)
 *(.gcc_except_table)
 *(.gnu.linkonce.e.*)
 *(.gnu.version_r)
 *(.eh_frame)
 *crtbegin.o(.ctors)
 *(EXCLUDE_FILE(*crtend.o) .ctors)
 *(SORT(.ctors.*))
 *(.ctors)
 *crtbegin.o(.dtors)
 *(EXCLUDE_FILE(*crtend.o) .dtors)
 *(SORT(.dtors.*))
 *(.dtors)
                0x500456a4                __XT_EXCEPTION_DESCS__ = ABSOLUTE (.)
 *(.xt_except_desc)
 *(.gnu.linkonce.h.*)
                0x500456a4                __XT_EXCEPTION_DESCS_END__ = ABSOLUTE (.)
 *(.xt_except_desc_end)
 *(.dynamic)
 *(.gnu.version_d)
                0x500456a4                . = ALIGN (0x4)
                0x500456a4                _bss_table_start = ABSOLUTE (.)
                0x500456a4        0x4 LONG 0x500a2610 _bss_start
                0x500456a8        0x4 LONG 0x500a3950 _bss_end
                0x500456ac                _bss_table_end = ABSOLUTE (.)
                0x500456ac                . = ALIGN (0x4)
                0x500456ac                _rodata_end = ABSOLUTE (.)

.dram0.rodata   0x500456ac        0x0
                0x500456ac                _dram0_rodata_start = ABSOLUTE (.)
 *(.dram0.rodata)
 *(.dram.rodata)
                0x500456ac                . = ALIGN (0x4)
                0x500456ac                _dram0_rodata_end = ABSOLUTE (.)

.clib.rodata    0x500456ac        0x0
                0x500456ac                _clib_rodata_start = ABSOLUTE (.)
 *(.clib.rodata)
                0x500456ac                . = ALIGN (0x4)
                0x500456ac                _clib_rodata_end = ABSOLUTE (.)

.drom0.rodata   0x500456ac        0x0
                0x500456ac                _drom0_rodata_start = ABSOLUTE (.)
 *(.drom0.rodata)
 *(.drom.rodata)
                0x500456ac                . = ALIGN (0x4)
                0x500456ac                _drom0_rodata_end = ABSOLUTE (.)
                0x500456b0                _memmap_seg_drom0_0_end = ALIGN (0x8)
                0x500456ac                _memmap_mem_drom0_max = ABSOLUTE (.)

.patch.text     0x50080000        0x0
                0x50080000                _patch_text_start = ABSOLUTE (.)
 *(.patch.literal .patch.text)
                0x50080000                . = ALIGN (0x4)
                0x50080000                _patch_text_end = ABSOLUTE (.)
                0x50080000                _memmap_seg_ipatch_end = ALIGN (0x8)
                0x50080000                _memmap_mem_iram0_max = ABSOLUTE (.)

.noload.data    0x500a0000     0x214c
                0x500a0000                _noload_data_start = ABSOLUTE (.)
 *(.noload.data)
 .noload.data   0x500a0000      0x6cc D:/PYRAMID_SW/dsp_trunk/tags/Sphinx_0p3/testing_app/system_integration/bin/Py_210123_eval/Release/src/dsp_bootloader.o
                0x500a0000                g_func_lookup_table
                0x500a045c                g_var_lookup_table
 *fill*         0x500a06cc        0x4 
 .noload.data   0x500a06d0      0x584 D:/PYRAMID_SW/dsp_trunk/tags/Sphinx_0p3/testing_app/system_integration/bin/Py_210123_eval/Release/src/dsp_hal_sml3.o
                0x500a06d0                g_dsp_otp_flags
                0x500a06f0                otp_static_aon
                0x500a0750                otp_static_stdby
                0x500a07f0                otp_static_active
                0x500a0860                otp_static_sml0rx
                0x500a09c0                otp_static_sml0tx
                0x500a09d0                otp_static_sml1
                0x500a0a60                otp_static_dsptop
                0x500a0a80                otp_static_new_backup
                0x500a0ad0                dh_static_active
                0x500a0b10                dh_static_sml0rx
                0x500a0b80                dh_static_sml0tx
                0x500a0bb0                dh_static_sml0pll
                0x500a0bf0                dh_static_sml1
 *fill*         0x500a0c54        0xc 
 .noload.data   0x500a0c60     0x14ec D:/PYRAMID_SW/dsp_trunk/tags/Sphinx_0p3/testing_app/system_integration/bin/Py_210123_eval/Release/src/dsp_sml1_pcm_dyn_reg_lut.o
                0x500a0c60                sml0_pll_pll_mode_dependent_dh
                0x500a0ca0                active_pll_mode_dependent_dh
                0x500a0cf0                sml0_pll_bw_ctrl_dh
                0x500a0dc0                sml0_pll_ce_rx_dh
                0x500a0e60                active_ce_rx_dh
                0x500a0f30                sml0_pll_ce_xtal_dh
                0x500a0fa0                active_ce_tx_dh
                0x500a0ff0                sml0_tx_txldo_dh
                0x500a1040                sml0_tx_pa_en_dh
                0x500a1100                sml0_tx_pa_bbws_dh
                0x500a11c0                sml0_tx_pa_soft_start_dh
                0x500a1220                sml0_tx_pa_cdc_dh
                0x500a1260                sml1_txctrl_eof_dh
                0x500a12c0                sml0_rx_trxmode_otp
                0x500a12f0                dfemdm_dfe_mdm_dyn_dh_22_dh
                0x500a1610                dfemdm_dfe_mdm_dyn_dh_4_dh
                0x500a1720                dfemdm_dfe_mdm_dyn_dh_2_dh
                0x500a1aa0                dfemdm_dfe_mdm_dyn_otp_22_otp
                0x500a1d10                dfemdm_dfe_mdm_dyn_otp_7_otp
                0x500a1e10                dfemdm_dfe_mdm_dyn_otp_2_otp
                0x500a1e30                sml1_pa_strength_dh
                0x500a20c0                sml1_fssi_otp_dyn_otp
                0x500a20e0                pactrl_p_n_ctrl_off
                0x500a20f0                sml1_txctrl_mdm_blndzn_od_otp
                0x500a214c                . = ALIGN (0x4)
                0x500a214c                _noload_data_end = ABSOLUTE (.)
                0x500a2150                _memmap_seg_dnoload_end = ALIGN (0x8)

.clib.data      0x500a2200        0x0
                0x500a2200                _clib_data_start = ABSOLUTE (.)
 *(.clib.data)
                0x500a2200                . = ALIGN (0x4)
                0x500a2200                _clib_data_end = ABSOLUTE (.)

.clib.percpu.data
                0x500a2200        0x0
                0x500a2200                _clib_percpu_data_start = ABSOLUTE (.)
 *(.clib.percpu.data)
                0x500a2200                . = ALIGN (0x4)
                0x500a2200                _clib_percpu_data_end = ABSOLUTE (.)

.rtos.percpu.data
                0x500a2200      0x408
                0x500a2200                _rtos_percpu_data_start = ABSOLUTE (.)
 *(.rtos.percpu.data)
 .rtos.percpu.data
                0x500a2200        0x0 C:/usr/xtensa/XtDevTools/install/builds/RI-2021.6-win32/Py_210123_eval/xtensa-elf/arch/lib/\libhandler-reset-unpack.a(reset-vector-unpack.o)
 .rtos.percpu.data
                0x500a2200        0x0 C:/usr/xtensa/XtDevTools/install/builds/RI-2021.6-win32/Py_210123_eval/xtensa-elf/arch/lib/\libhandlers-board.a(xtos-interrupt-enable.o)
 .rtos.percpu.data
                0x500a2200        0x0 C:/usr/xtensa/XtDevTools/install/builds/RI-2021.6-win32/Py_210123_eval/xtensa-elf/arch/lib/\libhandlers-board.a(xtos-set-inthandler.o)
 .rtos.percpu.data
                0x500a2200        0x0 C:/usr/xtensa/XtDevTools/install/builds/RI-2021.6-win32/Py_210123_eval/xtensa-elf/arch/lib/\libhandlers-board.a(xtos-set-exchandler.o)
 .rtos.percpu.data
                0x500a2200        0x0 C:/usr/xtensa/XtDevTools/install/builds/RI-2021.6-win32/Py_210123_eval/xtensa-elf/arch/lib/\libhandlers-board.a(exc-syscall-handler.o)
 .rtos.percpu.data
                0x500a2200      0x100 C:/usr/xtensa/XtDevTools/install/builds/RI-2021.6-win32/Py_210123_eval/xtensa-elf/arch/lib/\libhandlers-board.a(exc-table.o)
                0x500a2200                xtos_c_handler_table
 .rtos.percpu.data
                0x500a2300      0x208 C:/usr/xtensa/XtDevTools/install/builds/RI-2021.6-win32/Py_210123_eval/xtensa-elf/arch/lib/\libhandlers-board.a(interrupt-table.o)
                0x500a2300                _xtos_intstruct
                0x500a2300                xtos_enabled
                0x500a2304                xtos_vpri_enabled
                0x500a2308                xtos_interrupt_table
                0x500a2408                xtos_interrupt_mask_table
 .rtos.percpu.data
                0x500a2508      0x100 C:/usr/xtensa/XtDevTools/install/builds/RI-2021.6-win32/Py_210123_eval/xtensa-elf/arch/lib/\libhandlers-board.a(user-vector.o)
                0x500a2508                xtos_exc_handler_table
 .rtos.percpu.data
                0x500a2608        0x0 C:/usr/xtensa/XtDevTools/install/builds/RI-2021.6-win32/Py_210123_eval/xtensa-elf/arch/lib/\libhandlers-board.a(exc-c-wrapper-handler.o)
 .rtos.percpu.data
                0x500a2608        0x0 C:/usr/xtensa/XtDevTools/install/builds/RI-2021.6-win32/Py_210123_eval/xtensa-elf/arch/lib/\libhandlers-board.a(exc-return.o)
 .rtos.percpu.data
                0x500a2608        0x0 C:/usr/xtensa/XtDevTools/install/builds/RI-2021.6-win32/Py_210123_eval/xtensa-elf/arch/lib/\libhandlers-board.a(int-lowpri-dispatcher.o)
 .rtos.percpu.data
                0x500a2608        0x0 C:/usr/xtensa/XtDevTools/install/builds/RI-2021.6-win32/Py_210123_eval/xtensa-elf/arch/lib/\libhandlers-board.a(window-vectors.o)
 .rtos.percpu.data
                0x500a2608        0x0 C:/usr/xtensa/XtDevTools/install/builds/RI-2021.6-win32/Py_210123_eval/xtensa-elf/arch/lib/\libhandlers-board.a(int-init-level1.o)
 .rtos.percpu.data
                0x500a2608        0x0 C:/usr/xtensa/XtDevTools/install/builds/RI-2021.6-win32/Py_210123_eval/xtensa-elf/arch/lib/\libhandlers-board.a(int-init-level2.o)
 .rtos.percpu.data
                0x500a2608        0x0 C:/usr/xtensa/XtDevTools/install/builds/RI-2021.6-win32/Py_210123_eval/xtensa-elf/arch/lib/\libhandlers-board.a(int-init-level3.o)
 .rtos.percpu.data
                0x500a2608        0x0 C:/usr/xtensa/XtDevTools/install/builds/RI-2021.6-win32/Py_210123_eval/xtensa-elf/arch/lib/\libhandlers-board.a(exc-unhandled.o)
 .rtos.percpu.data
                0x500a2608        0x0 C:/usr/xtensa/XtDevTools/install/builds/RI-2021.6-win32/Py_210123_eval/xtensa-elf/arch/lib/\libhandlers-board.a(tiny-refs-S--level1int-.o)
 .rtos.percpu.data
                0x500a2608        0x0 C:/usr/xtensa/XtDevTools/install/builds/RI-2021.6-win32/Py_210123_eval/xtensa-elf/arch/lib/\libhandlers-board.a(int-vector-level2.o)
 .rtos.percpu.data
                0x500a2608        0x0 C:/usr/xtensa/XtDevTools/install/builds/RI-2021.6-win32/Py_210123_eval/xtensa-elf/arch/lib/\libhandlers-board.a(int-vector-level3.o)
 .rtos.percpu.data
                0x500a2608        0x0 C:/usr/xtensa/XtDevTools/install/builds/RI-2021.6-win32/Py_210123_eval/xtensa-elf/arch/lib/\libhandlers-board.a(int-handler-level2.o)
 .rtos.percpu.data
                0x500a2608        0x0 C:/usr/xtensa/XtDevTools/install/builds/RI-2021.6-win32/Py_210123_eval/xtensa-elf/arch/lib/\libhandlers-board.a(int-handler-level3.o)
 .rtos.percpu.data
                0x500a2608        0x0 C:/usr/xtensa/XtDevTools/install/builds/RI-2021.6-win32/Py_210123_eval/xtensa-elf/arch/lib/\libhandlers-min.a(tiny-refs-min.o)
 .rtos.percpu.data
                0x500a2608        0x0 C:/usr/xtensa/XtDevTools/install/builds/RI-2021.6-win32/Py_210123_eval/xtensa-elf/arch/lib/\libhandlers-null.a(_vectors.o)
 .rtos.percpu.data
                0x500a2608        0x0 C:/usr/xtensa/XtDevTools/install/builds/RI-2021.6-win32/Py_210123_eval/xtensa-elf/arch/lib/\libhandlers-null.a(_sharedvectors.o)
 .rtos.percpu.data
                0x500a2608        0x0 C:/usr/xtensa/XtDevTools/install/builds/RI-2021.6-win32/Py_210123_eval/xtensa-elf/arch/lib/\libhandlers-board.a(debug-vector.o)
 .rtos.percpu.data
                0x500a2608        0x0 C:/usr/xtensa/XtDevTools/install/builds/RI-2021.6-win32/Py_210123_eval/xtensa-elf/arch/lib/\libhandlers-board.a(double-vector.o)
 .rtos.percpu.data
                0x500a2608        0x0 C:/usr/xtensa/XtDevTools/install/builds/RI-2021.6-win32/Py_210123_eval/xtensa-elf/arch/lib/\libhandlers-board.a(kernel-vector.o)
                0x500a2608                . = ALIGN (0x4)
                0x500a2608                _rtos_percpu_data_end = ABSOLUTE (.)

.rtos.data      0x500a2608        0x0
                0x500a2608                _rtos_data_start = ABSOLUTE (.)
 *(.rtos.data)
 .rtos.data     0x500a2608        0x0 C:/usr/xtensa/XtDevTools/install/builds/RI-2021.6-win32/Py_210123_eval/xtensa-elf/arch/lib/\libhal.a(cache_asm--hw_configid0.o)
 .rtos.data     0x500a2608        0x0 C:/usr/xtensa/XtDevTools/install/builds/RI-2021.6-win32/Py_210123_eval/xtensa-elf/arch/lib/\libhal.a(cache_asm--hw_configid1.o)
 .rtos.data     0x500a2608        0x0 C:/usr/xtensa/XtDevTools/install/builds/RI-2021.6-win32/Py_210123_eval/xtensa-elf/arch/lib/\libhal.a(cache_asm--release_major.o)
 .rtos.data     0x500a2608        0x0 C:/usr/xtensa/XtDevTools/install/builds/RI-2021.6-win32/Py_210123_eval/xtensa-elf/arch/lib/\libhal.a(cache_asm--release_minor.o)
 .rtos.data     0x500a2608        0x0 C:/usr/xtensa/XtDevTools/install/builds/RI-2021.6-win32/Py_210123_eval/xtensa-elf/arch/lib/\libhal.a(const--intlevel.o)
                0x500a2608                . = ALIGN (0x4)
                0x500a2608                _rtos_data_end = ABSOLUTE (.)

.dram0.data     0x500a2608        0x0
                0x500a2608                _dram0_data_start = ABSOLUTE (.)
 *(.dram0.data)
 *(.dram.data)
                0x500a2608                . = ALIGN (0x4)
                0x500a2608                _dram0_data_end = ABSOLUTE (.)

.data           0x500a2608        0x0
                0x500a2608                _data_start = ABSOLUTE (.)
 *(.data)
 .data          0x500a2608        0x0 C:/usr/xtensa/XtDevTools/install/builds/RI-2021.6-win32/Py_210123_eval/xtensa-elf/arch/lib/crt1-tiny.o
 .data          0x500a2608        0x0 D:/PYRAMID_SW/dsp_trunk/tags/Sphinx_0p3/testing_app/system_integration/bin/Py_210123_eval/Release/dsp_verification.o
 .data          0x500a2608        0x0 D:/PYRAMID_SW/dsp_trunk/tags/Sphinx_0p3/testing_app/system_integration/bin/Py_210123_eval/Release/main.o
 .data          0x500a2608        0x0 D:/PYRAMID_SW/dsp_trunk/tags/Sphinx_0p3/testing_app/system_integration/bin/Py_210123_eval/Release/src/dsp_bootloader.o
 .data          0x500a2608        0x0 D:/PYRAMID_SW/dsp_trunk/tags/Sphinx_0p3/testing_app/system_integration/bin/Py_210123_eval/Release/src/dsp_cli_nfca_rx.o
 .data          0x500a2608        0x0 D:/PYRAMID_SW/dsp_trunk/tags/Sphinx_0p3/testing_app/system_integration/bin/Py_210123_eval/Release/src/dsp_cli_nfca_tx.o
 .data          0x500a2608        0x0 D:/PYRAMID_SW/dsp_trunk/tags/Sphinx_0p3/testing_app/system_integration/bin/Py_210123_eval/Release/src/dsp_cli_nfcb_rx.o
 .data          0x500a2608        0x0 D:/PYRAMID_SW/dsp_trunk/tags/Sphinx_0p3/testing_app/system_integration/bin/Py_210123_eval/Release/src/dsp_cli_nfcb_tx.o
 .data          0x500a2608        0x0 D:/PYRAMID_SW/dsp_trunk/tags/Sphinx_0p3/testing_app/system_integration/bin/Py_210123_eval/Release/src/dsp_cli_nfcf_rx.o
 .data          0x500a2608        0x0 D:/PYRAMID_SW/dsp_trunk/tags/Sphinx_0p3/testing_app/system_integration/bin/Py_210123_eval/Release/src/dsp_cli_nfcf_tx.o
 .data          0x500a2608        0x0 D:/PYRAMID_SW/dsp_trunk/tags/Sphinx_0p3/testing_app/system_integration/bin/Py_210123_eval/Release/src/dsp_cli_nfcv_rx.o
 .data          0x500a2608        0x0 D:/PYRAMID_SW/dsp_trunk/tags/Sphinx_0p3/testing_app/system_integration/bin/Py_210123_eval/Release/src/dsp_cli_nfcv_tx.o
 .data          0x500a2608        0x0 D:/PYRAMID_SW/dsp_trunk/tags/Sphinx_0p3/testing_app/system_integration/bin/Py_210123_eval/Release/src/dsp_cli_rx.o
 .data          0x500a2608        0x0 D:/PYRAMID_SW/dsp_trunk/tags/Sphinx_0p3/testing_app/system_integration/bin/Py_210123_eval/Release/src/dsp_cli_tx.o
 .data          0x500a2608        0x0 D:/PYRAMID_SW/dsp_trunk/tags/Sphinx_0p3/testing_app/system_integration/bin/Py_210123_eval/Release/src/dsp_cli_utils.o
 .data          0x500a2608        0x0 D:/PYRAMID_SW/dsp_trunk/tags/Sphinx_0p3/testing_app/system_integration/bin/Py_210123_eval/Release/src/dsp_cli_wind_lut.o
 .data          0x500a2608        0x0 D:/PYRAMID_SW/dsp_trunk/tags/Sphinx_0p3/testing_app/system_integration/bin/Py_210123_eval/Release/src/dsp_dbg.o
 .data          0x500a2608        0x0 D:/PYRAMID_SW/dsp_trunk/tags/Sphinx_0p3/testing_app/system_integration/bin/Py_210123_eval/Release/src/dsp_evnt_mngr.o
 .data          0x500a2608        0x0 D:/PYRAMID_SW/dsp_trunk/tags/Sphinx_0p3/testing_app/system_integration/bin/Py_210123_eval/Release/src/dsp_hal.o
 .data          0x500a2608        0x0 D:/PYRAMID_SW/dsp_trunk/tags/Sphinx_0p3/testing_app/system_integration/bin/Py_210123_eval/Release/src/dsp_hal_activetop.o
 .data          0x500a2608        0x0 D:/PYRAMID_SW/dsp_trunk/tags/Sphinx_0p3/testing_app/system_integration/bin/Py_210123_eval/Release/src/dsp_hal_cli_top.o
 .data          0x500a2608        0x0 D:/PYRAMID_SW/dsp_trunk/tags/Sphinx_0p3/testing_app/system_integration/bin/Py_210123_eval/Release/src/dsp_hal_dsp_top.o
 .data          0x500a2608        0x0 D:/PYRAMID_SW/dsp_trunk/tags/Sphinx_0p3/testing_app/system_integration/bin/Py_210123_eval/Release/src/dsp_hal_fifo.o
 .data          0x500a2608        0x0 D:/PYRAMID_SW/dsp_trunk/tags/Sphinx_0p3/testing_app/system_integration/bin/Py_210123_eval/Release/src/dsp_hal_hmb.o
 .data          0x500a2608        0x0 D:/PYRAMID_SW/dsp_trunk/tags/Sphinx_0p3/testing_app/system_integration/bin/Py_210123_eval/Release/src/dsp_hal_intr.o
 .data          0x500a2608        0x0 D:/PYRAMID_SW/dsp_trunk/tags/Sphinx_0p3/testing_app/system_integration/bin/Py_210123_eval/Release/src/dsp_hal_mdm_top.o
 .data          0x500a2608        0x0 D:/PYRAMID_SW/dsp_trunk/tags/Sphinx_0p3/testing_app/system_integration/bin/Py_210123_eval/Release/src/dsp_hal_sml1_top.o
 .data          0x500a2608        0x0 D:/PYRAMID_SW/dsp_trunk/tags/Sphinx_0p3/testing_app/system_integration/bin/Py_210123_eval/Release/src/dsp_hal_sml3.o
 .data          0x500a2608        0x0 D:/PYRAMID_SW/dsp_trunk/tags/Sphinx_0p3/testing_app/system_integration/bin/Py_210123_eval/Release/src/dsp_hal_timer.o
 .data          0x500a2608        0x0 D:/PYRAMID_SW/dsp_trunk/tags/Sphinx_0p3/testing_app/system_integration/bin/Py_210123_eval/Release/src/dsp_intr_hndlr.o
 .data          0x500a2608        0x0 D:/PYRAMID_SW/dsp_trunk/tags/Sphinx_0p3/testing_app/system_integration/bin/Py_210123_eval/Release/src/dsp_logs.o
 .data          0x500a2608        0x0 D:/PYRAMID_SW/dsp_trunk/tags/Sphinx_0p3/testing_app/system_integration/bin/Py_210123_eval/Release/src/dsp_m0_common.o
 .data          0x500a2608        0x0 D:/PYRAMID_SW/dsp_trunk/tags/Sphinx_0p3/testing_app/system_integration/bin/Py_210123_eval/Release/src/dsp_mngr.o
 .data          0x500a2608        0x0 D:/PYRAMID_SW/dsp_trunk/tags/Sphinx_0p3/testing_app/system_integration/bin/Py_210123_eval/Release/src/dsp_sml0_apc.o
 .data          0x500a2608        0x0 D:/PYRAMID_SW/dsp_trunk/tags/Sphinx_0p3/testing_app/system_integration/bin/Py_210123_eval/Release/src/dsp_sml0_lmac.o
 .data          0x500a2608        0x0 D:/PYRAMID_SW/dsp_trunk/tags/Sphinx_0p3/testing_app/system_integration/bin/Py_210123_eval/Release/src/dsp_sml1.o
 .data          0x500a2608        0x0 D:/PYRAMID_SW/dsp_trunk/tags/Sphinx_0p3/testing_app/system_integration/bin/Py_210123_eval/Release/src/dsp_sml1_dyn_reg.o
 .data          0x500a2608        0x0 D:/PYRAMID_SW/dsp_trunk/tags/Sphinx_0p3/testing_app/system_integration/bin/Py_210123_eval/Release/src/dsp_sml1_pcm.o
 .data          0x500a2608        0x0 D:/PYRAMID_SW/dsp_trunk/tags/Sphinx_0p3/testing_app/system_integration/bin/Py_210123_eval/Release/src/dsp_sml1_pcm_dyn_reg_lut.o
 .data          0x500a2608        0x0 D:/PYRAMID_SW/dsp_trunk/tags/Sphinx_0p3/testing_app/system_integration/bin/Py_210123_eval/Release/src/dsp_sml1_pcm_listener.o
 .data          0x500a2608        0x0 D:/PYRAMID_SW/dsp_trunk/tags/Sphinx_0p3/testing_app/system_integration/bin/Py_210123_eval/Release/src/dsp_sml1_pcm_listener_user_ta.o
 .data          0x500a2608        0x0 D:/PYRAMID_SW/dsp_trunk/tags/Sphinx_0p3/testing_app/system_integration/bin/Py_210123_eval/Release/src/dsp_sml1_pcm_poller.o
 .data          0x500a2608        0x0 D:/PYRAMID_SW/dsp_trunk/tags/Sphinx_0p3/testing_app/system_integration/bin/Py_210123_eval/Release/src/dsp_sml1_pcm_poller_user_ta.o
 .data          0x500a2608        0x0 D:/PYRAMID_SW/dsp_trunk/tags/Sphinx_0p3/testing_app/system_integration/bin/Py_210123_eval/Release/src/dsp_sml1_user_ta_lut.o
 .data          0x500a2608        0x0 D:/PYRAMID_SW/dsp_trunk/tags/Sphinx_0p3/testing_app/system_integration/bin/Py_210123_eval/Release/test_10_loopbck_nfcv_rw.o
 .data          0x500a2608        0x0 D:/PYRAMID_SW/dsp_trunk/tags/Sphinx_0p3/testing_app/system_integration/bin/Py_210123_eval/Release/test_1_loopbck_nfcf_rw_std.o
 .data          0x500a2608        0x0 D:/PYRAMID_SW/dsp_trunk/tags/Sphinx_0p3/testing_app/system_integration/bin/Py_210123_eval/Release/test_2_loopbck_nfcf_ce.o
 .data          0x500a2608        0x0 D:/PYRAMID_SW/dsp_trunk/tags/Sphinx_0p3/testing_app/system_integration/bin/Py_210123_eval/Release/test_3_loopbck_nfca_rw_std.o
 .data          0x500a2608        0x0 D:/PYRAMID_SW/dsp_trunk/tags/Sphinx_0p3/testing_app/system_integration/bin/Py_210123_eval/Release/test_4_loopbck_nfca_ce.o
 .data          0x500a2608        0x0 D:/PYRAMID_SW/dsp_trunk/tags/Sphinx_0p3/testing_app/system_integration/bin/Py_210123_eval/Release/test_5_loopbck_nfca_rw_sdd.o
 .data          0x500a2608        0x0 D:/PYRAMID_SW/dsp_trunk/tags/Sphinx_0p3/testing_app/system_integration/bin/Py_210123_eval/Release/test_6_loopbck_nfca_ce_swp_intf.o
 .data          0x500a2608        0x0 D:/PYRAMID_SW/dsp_trunk/tags/Sphinx_0p3/testing_app/system_integration/bin/Py_210123_eval/Release/test_7_loopbck_nfcb_rw.o
 .data          0x500a2608        0x0 D:/PYRAMID_SW/dsp_trunk/tags/Sphinx_0p3/testing_app/system_integration/bin/Py_210123_eval/Release/test_8_loopbck_nfcb_ce.o
 .data          0x500a2608        0x0 D:/PYRAMID_SW/dsp_trunk/tags/Sphinx_0p3/testing_app/system_integration/bin/Py_210123_eval/Release/test_9_loopbck_nfca_rw_t1t.o
 .data          0x500a2608        0x0 D:/PYRAMID_SW/dsp_trunk/tags/Sphinx_0p3/testing_app/system_integration/bin/Py_210123_eval/Release/test_integration.o
 .data          0x500a2608        0x0 C:/usr/xtensa/XtDevTools/install/builds/RI-2021.6-win32/Py_210123_eval/xtensa-elf/lib/xcc/\libgcc.a(_udivsi3.o)
 *(SORT(.data.sort.*))
 *(SORT(.data.keepsort.*) .data.keep.*)
 *(.data.*)
 *(.gnu.linkonce.d.*)
 *(.gnu.linkonce.d.*personality*)
 *(.data1)
 *(.sdata)
 *(.sdata.*)
 *(.gnu.linkonce.s.*)
 *(.sdata2)
 *(.sdata2.*)
 *(.gnu.linkonce.s2.*)
 *(.jcr)
 *(__llvm_prf_cnts)
 *(__llvm_prf_data)
 *(__llvm_prf_vnds)
                0x500a2608                . = ALIGN (0x4)
                0x500a2608                _data_end = ABSOLUTE (.)

.bss            0x500a2610     0x1340
                0x500a2610                . = ALIGN (0x8)
                0x500a2610                _bss_start = ABSOLUTE (.)
 *(.dynsbss)
 *(.sbss)
 *(.sbss.*)
 *(.gnu.linkonce.sb.*)
 *(.scommon)
 *(.sbss2)
 *(.sbss2.*)
 *(.gnu.linkonce.sb2.*)
 *(.dynbss)
 *(.bss)
 .bss           0x500a2610        0x0 C:/usr/xtensa/XtDevTools/install/builds/RI-2021.6-win32/Py_210123_eval/xtensa-elf/arch/lib/crt1-tiny.o
 .bss           0x500a2610       0x10 D:/PYRAMID_SW/dsp_trunk/tags/Sphinx_0p3/testing_app/system_integration/bin/Py_210123_eval/Release/dsp_verification.o
                0x500a261c                temp_data
 .bss           0x500a2620        0x0 D:/PYRAMID_SW/dsp_trunk/tags/Sphinx_0p3/testing_app/system_integration/bin/Py_210123_eval/Release/main.o
 .bss           0x500a2620        0x0 D:/PYRAMID_SW/dsp_trunk/tags/Sphinx_0p3/testing_app/system_integration/bin/Py_210123_eval/Release/src/dsp_bootloader.o
 .bss           0x500a2620       0x38 D:/PYRAMID_SW/dsp_trunk/tags/Sphinx_0p3/testing_app/system_integration/bin/Py_210123_eval/Release/src/dsp_cli_nfca_rx.o
                0x500a2620                g_sof_flag
                0x500a2621                g_rx_valid_parity_ctr
                0x500a2622                g_eof_flag
                0x500a2623                g_sof_flag_enc
                0x500a2624                g_last_bit_in
                0x500a2628                rx_mdm_end_tm_cptr_g
                0x500a262c                g_sof_flag_ce
                0x500a2630                t1t_data_ptr
                0x500a2634                t1t_data_len
                0x500a2638                nfca_act_state
                0x500a263c                t1t_crc
                0x500a2640                sdd_res_9320
                0x500a2648                sdd_res_9520
                0x500a2650                sdd_res_9720
 .bss           0x500a2658        0x4 D:/PYRAMID_SW/dsp_trunk/tags/Sphinx_0p3/testing_app/system_integration/bin/Py_210123_eval/Release/src/dsp_cli_nfca_tx.o
                0x500a2658                g_nfca_tx_last_n_bytes_flag
                0x500a2659                g_nfca_tx_last_byte_flag
                0x500a265a                g_nfca_tx_last_bit_flag
                0x500a265b                g_rrdd_max
 .bss           0x500a265c        0x0 D:/PYRAMID_SW/dsp_trunk/tags/Sphinx_0p3/testing_app/system_integration/bin/Py_210123_eval/Release/src/dsp_cli_nfcb_rx.o
 .bss           0x500a265c        0x0 D:/PYRAMID_SW/dsp_trunk/tags/Sphinx_0p3/testing_app/system_integration/bin/Py_210123_eval/Release/src/dsp_cli_nfcb_tx.o
 .bss           0x500a265c        0x0 D:/PYRAMID_SW/dsp_trunk/tags/Sphinx_0p3/testing_app/system_integration/bin/Py_210123_eval/Release/src/dsp_cli_nfcf_rx.o
 .bss           0x500a265c        0x0 D:/PYRAMID_SW/dsp_trunk/tags/Sphinx_0p3/testing_app/system_integration/bin/Py_210123_eval/Release/src/dsp_cli_nfcf_tx.o
 .bss           0x500a265c        0x0 D:/PYRAMID_SW/dsp_trunk/tags/Sphinx_0p3/testing_app/system_integration/bin/Py_210123_eval/Release/src/dsp_cli_nfcv_rx.o
 .bss           0x500a265c        0x0 D:/PYRAMID_SW/dsp_trunk/tags/Sphinx_0p3/testing_app/system_integration/bin/Py_210123_eval/Release/src/dsp_cli_nfcv_tx.o
 .bss           0x500a265c        0x0 D:/PYRAMID_SW/dsp_trunk/tags/Sphinx_0p3/testing_app/system_integration/bin/Py_210123_eval/Release/src/dsp_cli_rx.o
 .bss           0x500a265c        0x7 D:/PYRAMID_SW/dsp_trunk/tags/Sphinx_0p3/testing_app/system_integration/bin/Py_210123_eval/Release/src/dsp_cli_tx.o
                0x500a265c                cli_tx_rate
                0x500a2660                tx_win_size_bytes
                0x500a2661                tx_win_size_bits
                0x500a2662                g_is_tx_finished
 .bss           0x500a2663        0x0 D:/PYRAMID_SW/dsp_trunk/tags/Sphinx_0p3/testing_app/system_integration/bin/Py_210123_eval/Release/src/dsp_cli_utils.o
 .bss           0x500a2663        0x0 D:/PYRAMID_SW/dsp_trunk/tags/Sphinx_0p3/testing_app/system_integration/bin/Py_210123_eval/Release/src/dsp_cli_wind_lut.o
 .bss           0x500a2663        0x0 D:/PYRAMID_SW/dsp_trunk/tags/Sphinx_0p3/testing_app/system_integration/bin/Py_210123_eval/Release/src/dsp_dbg.o
 *fill*         0x500a2663        0xd 
 .bss           0x500a2670       0x90 D:/PYRAMID_SW/dsp_trunk/tags/Sphinx_0p3/testing_app/system_integration/bin/Py_210123_eval/Release/src/dsp_evnt_mngr.o
                0x500a2670                hndld_evnts
 .bss           0x500a2700        0x0 D:/PYRAMID_SW/dsp_trunk/tags/Sphinx_0p3/testing_app/system_integration/bin/Py_210123_eval/Release/src/dsp_hal.o
 .bss           0x500a2700        0x0 D:/PYRAMID_SW/dsp_trunk/tags/Sphinx_0p3/testing_app/system_integration/bin/Py_210123_eval/Release/src/dsp_hal_activetop.o
 .bss           0x500a2700        0xc D:/PYRAMID_SW/dsp_trunk/tags/Sphinx_0p3/testing_app/system_integration/bin/Py_210123_eval/Release/src/dsp_hal_cli_top.o
                0x500a2700                rxend_time
                0x500a2704                poll_to_poll_flg
                0x500a2705                lstn_to_poll_flg
                0x500a2708                cli_top_reg
 .bss           0x500a270c        0x0 D:/PYRAMID_SW/dsp_trunk/tags/Sphinx_0p3/testing_app/system_integration/bin/Py_210123_eval/Release/src/dsp_hal_dsp_top.o
 .bss           0x500a270c        0x1 D:/PYRAMID_SW/dsp_trunk/tags/Sphinx_0p3/testing_app/system_integration/bin/Py_210123_eval/Release/src/dsp_hal_fifo.o
                0x500a270c                g_fdt_max_flag
 .bss           0x500a270d        0x0 D:/PYRAMID_SW/dsp_trunk/tags/Sphinx_0p3/testing_app/system_integration/bin/Py_210123_eval/Release/src/dsp_hal_hmb.o
 .bss           0x500a270d        0x0 D:/PYRAMID_SW/dsp_trunk/tags/Sphinx_0p3/testing_app/system_integration/bin/Py_210123_eval/Release/src/dsp_hal_intr.o
 .bss           0x500a270d        0x0 D:/PYRAMID_SW/dsp_trunk/tags/Sphinx_0p3/testing_app/system_integration/bin/Py_210123_eval/Release/src/dsp_hal_mdm_top.o
 .bss           0x500a270d        0x0 D:/PYRAMID_SW/dsp_trunk/tags/Sphinx_0p3/testing_app/system_integration/bin/Py_210123_eval/Release/src/dsp_hal_sml1_top.o
 .bss           0x500a270d        0x0 D:/PYRAMID_SW/dsp_trunk/tags/Sphinx_0p3/testing_app/system_integration/bin/Py_210123_eval/Release/src/dsp_hal_sml3.o
 *fill*         0x500a270d        0x3 
 .bss           0x500a2710       0x84 D:/PYRAMID_SW/dsp_trunk/tags/Sphinx_0p3/testing_app/system_integration/bin/Py_210123_eval/Release/src/dsp_hal_timer.o
                0x500a2710                TIMER_S
                0x500a2714                timer_clk
                0x500a2718                tmr_rate_g
                0x500a2720                alarms_state
                0x500a2760                alarm_clbk
 .bss           0x500a2794        0x0 D:/PYRAMID_SW/dsp_trunk/tags/Sphinx_0p3/testing_app/system_integration/bin/Py_210123_eval/Release/src/dsp_intr_hndlr.o
 *fill*         0x500a2794        0xc 
 .bss           0x500a27a0      0x170 D:/PYRAMID_SW/dsp_trunk/tags/Sphinx_0p3/testing_app/system_integration/bin/Py_210123_eval/Release/src/dsp_logs.o
                0x500a27a0                log_count
                0x500a27a4                logger_interface
                0x500a27bc                logger_interface_ptr
                0x500a27c0                active_bank_address
                0x500a27c4                next_word_index
                0x500a27d0                dsp_logs_banks
 .bss           0x500a2910      0x7c0 D:/PYRAMID_SW/dsp_trunk/tags/Sphinx_0p3/testing_app/system_integration/bin/Py_210123_eval/Release/src/dsp_m0_common.o
                0x500a2910                dsp_m0_common
                0x500a2df0                dsp_m0_common_ptr
                0x500a2df4                dsp_m0_mdm
                0x500a2f74                dsp_m0_mdm_ptr
                0x500a2f78                dsp_techa_act_mode
                0x500a2f7c                cli_rx_ip_data
                0x500a2f90                data_buffer
 .bss           0x500a30d0      0x80d D:/PYRAMID_SW/dsp_trunk/tags/Sphinx_0p3/testing_app/system_integration/bin/Py_210123_eval/Release/src/dsp_mngr.o
                0x500a30d0                ce_next_cmd_flag
                0x500a30d1                g_emd_flag
                0x500a30d2                g_frame_counting_en
                0x500a30d4                g_frame_counter
                0x500a30d8                cli_config
                0x500a3594                g_sml1
                0x500a38dc                dsp_assert_flag
 .bss           0x500a38dd        0x0 D:/PYRAMID_SW/dsp_trunk/tags/Sphinx_0p3/testing_app/system_integration/bin/Py_210123_eval/Release/src/dsp_sml0_apc.o
 .bss           0x500a38dd        0x0 D:/PYRAMID_SW/dsp_trunk/tags/Sphinx_0p3/testing_app/system_integration/bin/Py_210123_eval/Release/src/dsp_sml0_lmac.o
 .bss           0x500a38dd        0x0 D:/PYRAMID_SW/dsp_trunk/tags/Sphinx_0p3/testing_app/system_integration/bin/Py_210123_eval/Release/src/dsp_sml1.o
 .bss           0x500a38dd        0x0 D:/PYRAMID_SW/dsp_trunk/tags/Sphinx_0p3/testing_app/system_integration/bin/Py_210123_eval/Release/src/dsp_sml1_dyn_reg.o
 .bss           0x500a38dd        0x0 D:/PYRAMID_SW/dsp_trunk/tags/Sphinx_0p3/testing_app/system_integration/bin/Py_210123_eval/Release/src/dsp_sml1_pcm.o
 .bss           0x500a38dd        0x0 D:/PYRAMID_SW/dsp_trunk/tags/Sphinx_0p3/testing_app/system_integration/bin/Py_210123_eval/Release/src/dsp_sml1_pcm_dyn_reg_lut.o
 *fill*         0x500a38dd        0x3 
 .bss           0x500a38e0        0x2 D:/PYRAMID_SW/dsp_trunk/tags/Sphinx_0p3/testing_app/system_integration/bin/Py_210123_eval/Release/src/dsp_sml1_pcm_listener.o
                0x500a38e0                g_invld_pat
                0x500a38e1                g_rf_off_counter
 *fill*         0x500a38e2        0xe 
 .bss           0x500a38f0       0x20 D:/PYRAMID_SW/dsp_trunk/tags/Sphinx_0p3/testing_app/system_integration/bin/Py_210123_eval/Release/src/dsp_sml1_pcm_listener_user_ta.o
                0x500a38f0                regs_listener
 .bss           0x500a3910        0x0 D:/PYRAMID_SW/dsp_trunk/tags/Sphinx_0p3/testing_app/system_integration/bin/Py_210123_eval/Release/src/dsp_sml1_pcm_poller.o
 .bss           0x500a3910       0x30 D:/PYRAMID_SW/dsp_trunk/tags/Sphinx_0p3/testing_app/system_integration/bin/Py_210123_eval/Release/src/dsp_sml1_pcm_poller_user_ta.o
                0x500a3910                force_rfagc_temp_value
                0x500a3911                val_len
                0x500a3920                regs_poller
 .bss           0x500a3940        0x0 D:/PYRAMID_SW/dsp_trunk/tags/Sphinx_0p3/testing_app/system_integration/bin/Py_210123_eval/Release/src/dsp_sml1_user_ta_lut.o
 .bss           0x500a3940        0x0 D:/PYRAMID_SW/dsp_trunk/tags/Sphinx_0p3/testing_app/system_integration/bin/Py_210123_eval/Release/test_10_loopbck_nfcv_rw.o
 .bss           0x500a3940        0x0 D:/PYRAMID_SW/dsp_trunk/tags/Sphinx_0p3/testing_app/system_integration/bin/Py_210123_eval/Release/test_1_loopbck_nfcf_rw_std.o
 .bss           0x500a3940        0x0 D:/PYRAMID_SW/dsp_trunk/tags/Sphinx_0p3/testing_app/system_integration/bin/Py_210123_eval/Release/test_2_loopbck_nfcf_ce.o
 .bss           0x500a3940        0x0 D:/PYRAMID_SW/dsp_trunk/tags/Sphinx_0p3/testing_app/system_integration/bin/Py_210123_eval/Release/test_3_loopbck_nfca_rw_std.o
 .bss           0x500a3940        0x0 D:/PYRAMID_SW/dsp_trunk/tags/Sphinx_0p3/testing_app/system_integration/bin/Py_210123_eval/Release/test_4_loopbck_nfca_ce.o
 .bss           0x500a3940        0x0 D:/PYRAMID_SW/dsp_trunk/tags/Sphinx_0p3/testing_app/system_integration/bin/Py_210123_eval/Release/test_5_loopbck_nfca_rw_sdd.o
 .bss           0x500a3940        0x0 D:/PYRAMID_SW/dsp_trunk/tags/Sphinx_0p3/testing_app/system_integration/bin/Py_210123_eval/Release/test_6_loopbck_nfca_ce_swp_intf.o
 .bss           0x500a3940        0x0 D:/PYRAMID_SW/dsp_trunk/tags/Sphinx_0p3/testing_app/system_integration/bin/Py_210123_eval/Release/test_7_loopbck_nfcb_rw.o
 .bss           0x500a3940        0x0 D:/PYRAMID_SW/dsp_trunk/tags/Sphinx_0p3/testing_app/system_integration/bin/Py_210123_eval/Release/test_8_loopbck_nfcb_ce.o
 .bss           0x500a3940        0x0 D:/PYRAMID_SW/dsp_trunk/tags/Sphinx_0p3/testing_app/system_integration/bin/Py_210123_eval/Release/test_9_loopbck_nfca_rw_t1t.o
 .bss           0x500a3940        0x0 D:/PYRAMID_SW/dsp_trunk/tags/Sphinx_0p3/testing_app/system_integration/bin/Py_210123_eval/Release/test_integration.o
 .bss           0x500a3940        0x0 C:/usr/xtensa/XtDevTools/install/builds/RI-2021.6-win32/Py_210123_eval/xtensa-elf/lib/xcc/\libgcc.a(_udivsi3.o)
 *(SORT(.bss.sort.*))
 *(SORT(.bss.keepsort.*) .bss.keep.*)
 *(.bss.*)
 *(.gnu.linkonce.b.*)
 *(COMMON)
 COMMON         0x500a3940       0x10 D:/PYRAMID_SW/dsp_trunk/tags/Sphinx_0p3/testing_app/system_integration/bin/Py_210123_eval/Release/dsp_verification.o
                0x500a3940                __AE_SEARCHDONE
                0x500a3944                __AE_NEXTOFFSET
                0x500a3948                __AE_FIRST_TS
                0x500a394c                __AE_TABLESIZE
 *(.clib.bss)
 *(.clib.percpu.bss)
 *(.rtos.percpu.bss)
 .rtos.percpu.bss
                0x500a3950        0x0 C:/usr/xtensa/XtDevTools/install/builds/RI-2021.6-win32/Py_210123_eval/xtensa-elf/arch/lib/\libhandler-reset-unpack.a(reset-vector-unpack.o)
 .rtos.percpu.bss
                0x500a3950        0x0 C:/usr/xtensa/XtDevTools/install/builds/RI-2021.6-win32/Py_210123_eval/xtensa-elf/arch/lib/\libhandlers-board.a(xtos-interrupt-enable.o)
 .rtos.percpu.bss
                0x500a3950        0x0 C:/usr/xtensa/XtDevTools/install/builds/RI-2021.6-win32/Py_210123_eval/xtensa-elf/arch/lib/\libhandlers-board.a(xtos-set-inthandler.o)
 .rtos.percpu.bss
                0x500a3950        0x0 C:/usr/xtensa/XtDevTools/install/builds/RI-2021.6-win32/Py_210123_eval/xtensa-elf/arch/lib/\libhandlers-board.a(xtos-set-exchandler.o)
 .rtos.percpu.bss
                0x500a3950        0x0 C:/usr/xtensa/XtDevTools/install/builds/RI-2021.6-win32/Py_210123_eval/xtensa-elf/arch/lib/\libhandlers-board.a(exc-syscall-handler.o)
 .rtos.percpu.bss
                0x500a3950        0x0 C:/usr/xtensa/XtDevTools/install/builds/RI-2021.6-win32/Py_210123_eval/xtensa-elf/arch/lib/\libhandlers-board.a(exc-table.o)
 .rtos.percpu.bss
                0x500a3950        0x0 C:/usr/xtensa/XtDevTools/install/builds/RI-2021.6-win32/Py_210123_eval/xtensa-elf/arch/lib/\libhandlers-board.a(interrupt-table.o)
 .rtos.percpu.bss
                0x500a3950        0x0 C:/usr/xtensa/XtDevTools/install/builds/RI-2021.6-win32/Py_210123_eval/xtensa-elf/arch/lib/\libhandlers-board.a(user-vector.o)
 .rtos.percpu.bss
                0x500a3950        0x0 C:/usr/xtensa/XtDevTools/install/builds/RI-2021.6-win32/Py_210123_eval/xtensa-elf/arch/lib/\libhandlers-board.a(exc-c-wrapper-handler.o)
 .rtos.percpu.bss
                0x500a3950        0x0 C:/usr/xtensa/XtDevTools/install/builds/RI-2021.6-win32/Py_210123_eval/xtensa-elf/arch/lib/\libhandlers-board.a(exc-return.o)
 .rtos.percpu.bss
                0x500a3950        0x0 C:/usr/xtensa/XtDevTools/install/builds/RI-2021.6-win32/Py_210123_eval/xtensa-elf/arch/lib/\libhandlers-board.a(int-lowpri-dispatcher.o)
 .rtos.percpu.bss
                0x500a3950        0x0 C:/usr/xtensa/XtDevTools/install/builds/RI-2021.6-win32/Py_210123_eval/xtensa-elf/arch/lib/\libhandlers-board.a(window-vectors.o)
 .rtos.percpu.bss
                0x500a3950        0x0 C:/usr/xtensa/XtDevTools/install/builds/RI-2021.6-win32/Py_210123_eval/xtensa-elf/arch/lib/\libhandlers-board.a(int-init-level1.o)
 .rtos.percpu.bss
                0x500a3950        0x0 C:/usr/xtensa/XtDevTools/install/builds/RI-2021.6-win32/Py_210123_eval/xtensa-elf/arch/lib/\libhandlers-board.a(int-init-level2.o)
 .rtos.percpu.bss
                0x500a3950        0x0 C:/usr/xtensa/XtDevTools/install/builds/RI-2021.6-win32/Py_210123_eval/xtensa-elf/arch/lib/\libhandlers-board.a(int-init-level3.o)
 .rtos.percpu.bss
                0x500a3950        0x0 C:/usr/xtensa/XtDevTools/install/builds/RI-2021.6-win32/Py_210123_eval/xtensa-elf/arch/lib/\libhandlers-board.a(exc-unhandled.o)
 .rtos.percpu.bss
                0x500a3950        0x0 C:/usr/xtensa/XtDevTools/install/builds/RI-2021.6-win32/Py_210123_eval/xtensa-elf/arch/lib/\libhandlers-board.a(tiny-refs-S--level1int-.o)
 .rtos.percpu.bss
                0x500a3950        0x0 C:/usr/xtensa/XtDevTools/install/builds/RI-2021.6-win32/Py_210123_eval/xtensa-elf/arch/lib/\libhandlers-board.a(int-vector-level2.o)
 .rtos.percpu.bss
                0x500a3950        0x0 C:/usr/xtensa/XtDevTools/install/builds/RI-2021.6-win32/Py_210123_eval/xtensa-elf/arch/lib/\libhandlers-board.a(int-vector-level3.o)
 .rtos.percpu.bss
                0x500a3950        0x0 C:/usr/xtensa/XtDevTools/install/builds/RI-2021.6-win32/Py_210123_eval/xtensa-elf/arch/lib/\libhandlers-board.a(int-handler-level2.o)
 .rtos.percpu.bss
                0x500a3950        0x0 C:/usr/xtensa/XtDevTools/install/builds/RI-2021.6-win32/Py_210123_eval/xtensa-elf/arch/lib/\libhandlers-board.a(int-handler-level3.o)
 .rtos.percpu.bss
                0x500a3950        0x0 C:/usr/xtensa/XtDevTools/install/builds/RI-2021.6-win32/Py_210123_eval/xtensa-elf/arch/lib/\libhandlers-min.a(tiny-refs-min.o)
 .rtos.percpu.bss
                0x500a3950        0x0 C:/usr/xtensa/XtDevTools/install/builds/RI-2021.6-win32/Py_210123_eval/xtensa-elf/arch/lib/\libhandlers-null.a(_vectors.o)
 .rtos.percpu.bss
                0x500a3950        0x0 C:/usr/xtensa/XtDevTools/install/builds/RI-2021.6-win32/Py_210123_eval/xtensa-elf/arch/lib/\libhandlers-null.a(_sharedvectors.o)
 .rtos.percpu.bss
                0x500a3950        0x0 C:/usr/xtensa/XtDevTools/install/builds/RI-2021.6-win32/Py_210123_eval/xtensa-elf/arch/lib/\libhandlers-board.a(debug-vector.o)
 .rtos.percpu.bss
                0x500a3950        0x0 C:/usr/xtensa/XtDevTools/install/builds/RI-2021.6-win32/Py_210123_eval/xtensa-elf/arch/lib/\libhandlers-board.a(double-vector.o)
 .rtos.percpu.bss
                0x500a3950        0x0 C:/usr/xtensa/XtDevTools/install/builds/RI-2021.6-win32/Py_210123_eval/xtensa-elf/arch/lib/\libhandlers-board.a(kernel-vector.o)
 *(.rtos.bss)
 .rtos.bss      0x500a3950        0x0 C:/usr/xtensa/XtDevTools/install/builds/RI-2021.6-win32/Py_210123_eval/xtensa-elf/arch/lib/\libhal.a(cache_asm--hw_configid0.o)
 .rtos.bss      0x500a3950        0x0 C:/usr/xtensa/XtDevTools/install/builds/RI-2021.6-win32/Py_210123_eval/xtensa-elf/arch/lib/\libhal.a(cache_asm--hw_configid1.o)
 .rtos.bss      0x500a3950        0x0 C:/usr/xtensa/XtDevTools/install/builds/RI-2021.6-win32/Py_210123_eval/xtensa-elf/arch/lib/\libhal.a(cache_asm--release_major.o)
 .rtos.bss      0x500a3950        0x0 C:/usr/xtensa/XtDevTools/install/builds/RI-2021.6-win32/Py_210123_eval/xtensa-elf/arch/lib/\libhal.a(cache_asm--release_minor.o)
 .rtos.bss      0x500a3950        0x0 C:/usr/xtensa/XtDevTools/install/builds/RI-2021.6-win32/Py_210123_eval/xtensa-elf/arch/lib/\libhal.a(const--intlevel.o)
 *(.dram0.bss)
                0x500a3950                . = ALIGN (0x8)
                0x500a3950                _bss_end = ABSOLUTE (.)
                0x500a3950                _end = ALIGN (0x8)
                0x500a3950                PROVIDE (end, ALIGN (0x8))
                0x500a3950                _stack_sentry = ALIGN (0x8)
                0x500a3950                _memmap_seg_dram0_0_end = ALIGN (0x8)
                0x500a4200                PROVIDE (__stack, 0x500a4200)
                0x500a4200                _heap_sentry = 0x500a4200

.patch.data     0x500a4200        0x0
                0x500a4200                _patch_data_start = ABSOLUTE (.)
 *(.patch.data)
                0x500a4200                . = ALIGN (0x4)
                0x500a4200                _patch_data_end = ABSOLUTE (.)
                0x500a4200                _memmap_seg_dpatch_end = ALIGN (0x8)
                0x500a4200                _memmap_mem_dram0_max = ABSOLUTE (.)

.iram1_0.text   0x500b0000        0x0
                0x500b0000                _iram1_0_text_start = ABSOLUTE (.)
 *(.iram1_0.literal .iram1_0.text)
                0x500b0000                . = ALIGN (0x4)
                0x500b0000                _iram1_0_text_end = ABSOLUTE (.)
                0x500b0000                _memmap_seg_iram1_0_end = ALIGN (0x8)

.iram1_1.text   0x500b4000        0x0
                0x500b4000                _iram1_1_text_start = ABSOLUTE (.)
 *(.iram1_1.literal .iram1_1.text)
                0x500b4000                . = ALIGN (0x4)
                0x500b4000                _iram1_1_text_end = ABSOLUTE (.)
                0x500b4000                _memmap_seg_iram1_1_end = ALIGN (0x8)

.iram1_2.text   0x500b6000        0x0
                0x500b6000                _iram1_2_text_start = ABSOLUTE (.)
 *(.iram1_2.literal .iram1_2.text)
                0x500b6000                . = ALIGN (0x4)
                0x500b6000                _iram1_2_text_end = ABSOLUTE (.)
                0x500b6000                _memmap_seg_iram1_2_end = ALIGN (0x8)
                0x500b6000                _memmap_mem_iram1_max = ABSOLUTE (.)

.DoubleExceptionVector.text
                0x50000700        0x8
                0x50000700                _DoubleExceptionVector_text_start = ABSOLUTE (.)
 *(.DoubleExceptionVector.text)
 .DoubleExceptionVector.text
                0x50000700        0x6 C:/usr/xtensa/XtDevTools/install/builds/RI-2021.6-win32/Py_210123_eval/xtensa-elf/arch/lib/\libhandlers-board.a(double-vector.o)
                0x50000700                _DoubleExceptionVector
                0x50000708                . = ALIGN (0x4)
 *fill*         0x50000706        0x2 
                0x50000708                _DoubleExceptionVector_text_end = ABSOLUTE (.)

__llvm_prf_names
                0x50000708        0x0
                0x50000708                __llvm_prf_names_start = ABSOLUTE (.)
 *(__llvm_prf_names)
                0x50000708                . = ALIGN (0x4)
                0x50000708                __llvm_prf_names_end = ABSOLUTE (.)

.text           0x50000708     0xf8f8
                0x50000708                _stext = .
                0x50000708                _text_start = ABSOLUTE (.)
 *(.entry.text)
 *(.init.literal)
 *(.init)
 *(.literal.sort.* SORT(.text.sort.*))
 *(.literal.keepsort.* SORT(.text.keepsort.*) .literal.keep.* .text.keep.* .literal.*personality* .text.*personality*)
 *(.literal .text .literal.* .text.* .stub .gnu.warning .gnu.linkonce.literal.* .gnu.linkonce.t.*.literal .gnu.linkonce.t.*)
 .literal       0x50000708       0x10 C:/usr/xtensa/XtDevTools/install/builds/RI-2021.6-win32/Py_210123_eval/xtensa-elf/arch/lib/crt1-tiny.o
                                         0x14 (size before relaxing)
 .literal       0x50000718        0x4 D:/PYRAMID_SW/dsp_trunk/tags/Sphinx_0p3/testing_app/system_integration/bin/Py_210123_eval/Release/dsp_verification.o
 .literal       0x5000071c       0x10 D:/PYRAMID_SW/dsp_trunk/tags/Sphinx_0p3/testing_app/system_integration/bin/Py_210123_eval/Release/main.o
 .literal       0x5000072c       0x3c D:/PYRAMID_SW/dsp_trunk/tags/Sphinx_0p3/testing_app/system_integration/bin/Py_210123_eval/Release/src/dsp_bootloader.o
                                         0x44 (size before relaxing)
 .literal       0x50000768       0x4c D:/PYRAMID_SW/dsp_trunk/tags/Sphinx_0p3/testing_app/system_integration/bin/Py_210123_eval/Release/src/dsp_cli_nfca_rx.o
                                        0x13c (size before relaxing)
 .literal       0x500007b4       0x30 D:/PYRAMID_SW/dsp_trunk/tags/Sphinx_0p3/testing_app/system_integration/bin/Py_210123_eval/Release/src/dsp_cli_nfca_tx.o
                                        0x188 (size before relaxing)
 .literal       0x500007e4        0x4 D:/PYRAMID_SW/dsp_trunk/tags/Sphinx_0p3/testing_app/system_integration/bin/Py_210123_eval/Release/src/dsp_cli_nfcb_rx.o
                                         0x44 (size before relaxing)
 .literal       0x500007e8        0x8 D:/PYRAMID_SW/dsp_trunk/tags/Sphinx_0p3/testing_app/system_integration/bin/Py_210123_eval/Release/src/dsp_cli_nfcb_tx.o
                                         0x6c (size before relaxing)
 .literal       0x500007f0       0x10 D:/PYRAMID_SW/dsp_trunk/tags/Sphinx_0p3/testing_app/system_integration/bin/Py_210123_eval/Release/src/dsp_cli_nfcf_rx.o
                                         0x84 (size before relaxing)
 .literal       0x50000800       0x10 D:/PYRAMID_SW/dsp_trunk/tags/Sphinx_0p3/testing_app/system_integration/bin/Py_210123_eval/Release/src/dsp_cli_nfcf_tx.o
                                         0x7c (size before relaxing)
 .literal       0x50000810        0x4 D:/PYRAMID_SW/dsp_trunk/tags/Sphinx_0p3/testing_app/system_integration/bin/Py_210123_eval/Release/src/dsp_cli_nfcv_rx.o
                                         0x2c (size before relaxing)
 .literal       0x50000814        0xc D:/PYRAMID_SW/dsp_trunk/tags/Sphinx_0p3/testing_app/system_integration/bin/Py_210123_eval/Release/src/dsp_cli_nfcv_tx.o
                                         0x64 (size before relaxing)
 .literal       0x50000820       0x14 D:/PYRAMID_SW/dsp_trunk/tags/Sphinx_0p3/testing_app/system_integration/bin/Py_210123_eval/Release/src/dsp_cli_rx.o
                                         0x54 (size before relaxing)
 .literal       0x50000834       0x10 D:/PYRAMID_SW/dsp_trunk/tags/Sphinx_0p3/testing_app/system_integration/bin/Py_210123_eval/Release/src/dsp_cli_tx.o
                                         0x84 (size before relaxing)
 .literal       0x50000844        0x0 D:/PYRAMID_SW/dsp_trunk/tags/Sphinx_0p3/testing_app/system_integration/bin/Py_210123_eval/Release/src/dsp_cli_utils.o
                                          0x4 (size before relaxing)
 .literal       0x50000844        0x4 D:/PYRAMID_SW/dsp_trunk/tags/Sphinx_0p3/testing_app/system_integration/bin/Py_210123_eval/Release/src/dsp_evnt_mngr.o
                                         0x10 (size before relaxing)
 .literal       0x50000848       0x14 D:/PYRAMID_SW/dsp_trunk/tags/Sphinx_0p3/testing_app/system_integration/bin/Py_210123_eval/Release/src/dsp_hal.o
                                         0x24 (size before relaxing)
 .literal       0x5000085c        0x4 D:/PYRAMID_SW/dsp_trunk/tags/Sphinx_0p3/testing_app/system_integration/bin/Py_210123_eval/Release/src/dsp_hal_activetop.o
 .literal       0x50000860       0x60 D:/PYRAMID_SW/dsp_trunk/tags/Sphinx_0p3/testing_app/system_integration/bin/Py_210123_eval/Release/src/dsp_hal_cli_top.o
                                        0x130 (size before relaxing)
 .literal       0x500008c0        0x4 D:/PYRAMID_SW/dsp_trunk/tags/Sphinx_0p3/testing_app/system_integration/bin/Py_210123_eval/Release/src/dsp_hal_dsp_top.o
 .literal       0x500008c4        0x0 D:/PYRAMID_SW/dsp_trunk/tags/Sphinx_0p3/testing_app/system_integration/bin/Py_210123_eval/Release/src/dsp_hal_fifo.o
                                          0x8 (size before relaxing)
 .literal       0x500008c4        0x4 D:/PYRAMID_SW/dsp_trunk/tags/Sphinx_0p3/testing_app/system_integration/bin/Py_210123_eval/Release/src/dsp_hal_hmb.o
                                         0x18 (size before relaxing)
 .literal       0x500008c8       0x40 D:/PYRAMID_SW/dsp_trunk/tags/Sphinx_0p3/testing_app/system_integration/bin/Py_210123_eval/Release/src/dsp_hal_mdm_top.o
                                         0x7c (size before relaxing)
 .literal       0x50000908        0x0 D:/PYRAMID_SW/dsp_trunk/tags/Sphinx_0p3/testing_app/system_integration/bin/Py_210123_eval/Release/src/dsp_hal_sml1_top.o
                                          0x8 (size before relaxing)
 .literal       0x50000908       0x94 D:/PYRAMID_SW/dsp_trunk/tags/Sphinx_0p3/testing_app/system_integration/bin/Py_210123_eval/Release/src/dsp_hal_sml3.o
                                         0xc8 (size before relaxing)
 .literal       0x5000099c       0x28 D:/PYRAMID_SW/dsp_trunk/tags/Sphinx_0p3/testing_app/system_integration/bin/Py_210123_eval/Release/src/dsp_hal_timer.o
                                         0x60 (size before relaxing)
 .literal       0x500009c4        0x8 D:/PYRAMID_SW/dsp_trunk/tags/Sphinx_0p3/testing_app/system_integration/bin/Py_210123_eval/Release/src/dsp_intr_hndlr.o
                                         0x78 (size before relaxing)
 .literal       0x500009cc       0x10 D:/PYRAMID_SW/dsp_trunk/tags/Sphinx_0p3/testing_app/system_integration/bin/Py_210123_eval/Release/src/dsp_logs.o
                                         0x1c (size before relaxing)
 .literal       0x500009dc        0xc D:/PYRAMID_SW/dsp_trunk/tags/Sphinx_0p3/testing_app/system_integration/bin/Py_210123_eval/Release/src/dsp_m0_common.o
                                         0x10 (size before relaxing)
 .literal       0x500009e8       0x1c D:/PYRAMID_SW/dsp_trunk/tags/Sphinx_0p3/testing_app/system_integration/bin/Py_210123_eval/Release/src/dsp_mngr.o
                                         0xd0 (size before relaxing)
 .literal       0x50000a04       0x14 D:/PYRAMID_SW/dsp_trunk/tags/Sphinx_0p3/testing_app/system_integration/bin/Py_210123_eval/Release/src/dsp_sml0_apc.o
                                         0x74 (size before relaxing)
 .literal       0x50000a18        0x4 D:/PYRAMID_SW/dsp_trunk/tags/Sphinx_0p3/testing_app/system_integration/bin/Py_210123_eval/Release/src/dsp_sml0_lmac.o
                                         0x64 (size before relaxing)
 .literal       0x50000a1c        0x0 D:/PYRAMID_SW/dsp_trunk/tags/Sphinx_0p3/testing_app/system_integration/bin/Py_210123_eval/Release/src/dsp_sml1.o
                                         0x18 (size before relaxing)
 .literal       0x50000a1c       0x5c D:/PYRAMID_SW/dsp_trunk/tags/Sphinx_0p3/testing_app/system_integration/bin/Py_210123_eval/Release/src/dsp_sml1_dyn_reg.o
                                        0x110 (size before relaxing)
 .literal       0x50000a78       0x1c D:/PYRAMID_SW/dsp_trunk/tags/Sphinx_0p3/testing_app/system_integration/bin/Py_210123_eval/Release/src/dsp_sml1_pcm.o
                                         0xc4 (size before relaxing)
 .literal       0x50000a94       0x34 D:/PYRAMID_SW/dsp_trunk/tags/Sphinx_0p3/testing_app/system_integration/bin/Py_210123_eval/Release/src/dsp_sml1_pcm_listener.o
                                        0x180 (size before relaxing)
 .literal       0x50000ac8       0x50 D:/PYRAMID_SW/dsp_trunk/tags/Sphinx_0p3/testing_app/system_integration/bin/Py_210123_eval/Release/src/dsp_sml1_pcm_listener_user_ta.o
                                        0x1a0 (size before relaxing)
 .literal       0x50000b18       0x18 D:/PYRAMID_SW/dsp_trunk/tags/Sphinx_0p3/testing_app/system_integration/bin/Py_210123_eval/Release/src/dsp_sml1_pcm_poller.o
                                        0x100 (size before relaxing)
 .literal       0x50000b30       0x44 D:/PYRAMID_SW/dsp_trunk/tags/Sphinx_0p3/testing_app/system_integration/bin/Py_210123_eval/Release/src/dsp_sml1_pcm_poller_user_ta.o
                                        0x3c0 (size before relaxing)
 .literal       0x50000b74        0x8 C:/usr/xtensa/XtDevTools/install/builds/RI-2021.6-win32/Py_210123_eval/xtensa-elf/arch/lib/\libhandlers-board.a(xtos-interrupt-enable.o)
 .literal       0x50000b7c        0xc C:/usr/xtensa/XtDevTools/install/builds/RI-2021.6-win32/Py_210123_eval/xtensa-elf/arch/lib/\libhandlers-board.a(xtos-set-inthandler.o)
 .literal       0x50000b88       0x14 C:/usr/xtensa/XtDevTools/install/builds/RI-2021.6-win32/Py_210123_eval/xtensa-elf/arch/lib/\libhandlers-board.a(xtos-set-exchandler.o)
 .literal       0x50000b9c        0xc C:/usr/xtensa/XtDevTools/install/builds/RI-2021.6-win32/Py_210123_eval/xtensa-elf/arch/lib/\libhandlers-board.a(exc-syscall-handler.o)
 .literal       0x50000ba8        0x8 C:/usr/xtensa/XtDevTools/install/builds/RI-2021.6-win32/Py_210123_eval/xtensa-elf/arch/lib/\libhandlers-board.a(exc-c-wrapper-handler.o)
                                         0x14 (size before relaxing)
 .literal       0x50000bb0        0x0 C:/usr/xtensa/XtDevTools/install/builds/RI-2021.6-win32/Py_210123_eval/xtensa-elf/arch/lib/\libhandlers-board.a(int-lowpri-dispatcher.o)
                                         0x2c (size before relaxing)
 .literal       0x50000bb0        0x8 C:/usr/xtensa/XtDevTools/install/builds/RI-2021.6-win32/Py_210123_eval/xtensa-elf/arch/lib/\libhandlers-board.a(int-handler-level2.o)
                                         0x1c (size before relaxing)
 .literal       0x50000bb8        0x8 C:/usr/xtensa/XtDevTools/install/builds/RI-2021.6-win32/Py_210123_eval/xtensa-elf/arch/lib/\libhandlers-board.a(int-handler-level3.o)
                                         0x1c (size before relaxing)
 .text          0x50000bc0       0x2f C:/usr/xtensa/XtDevTools/install/builds/RI-2021.6-win32/Py_210123_eval/xtensa-elf/arch/lib/crt1-tiny.o
                                         0x32 (size before relaxing)
                0x50000bc0                _start
 *fill*         0x50000bef        0x1 
 .text          0x50000bf0       0x4d D:/PYRAMID_SW/dsp_trunk/tags/Sphinx_0p3/testing_app/system_integration/bin/Py_210123_eval/Release/dsp_verification.o
                0x50000bf0                delay
                0x50000c38                verify_dsp_to_m0_data
 *fill*         0x50000c3d        0x3 
 .text          0x50000c40       0x34 D:/PYRAMID_SW/dsp_trunk/tags/Sphinx_0p3/testing_app/system_integration/bin/Py_210123_eval/Release/main.o
                0x50000c40                main
 *fill*         0x50000c74        0x4 
 .text          0x50000c78      0x104 D:/PYRAMID_SW/dsp_trunk/tags/Sphinx_0p3/testing_app/system_integration/bin/Py_210123_eval/Release/src/dsp_bootloader.o
                0x50000c78                dsp_system_init
                0x50000cb8                dsp_bootloader_init
 *fill*         0x50000d7c        0x4 
 .text          0x50000d80     0x1571 D:/PYRAMID_SW/dsp_trunk/tags/Sphinx_0p3/testing_app/system_integration/bin/Py_210123_eval/Release/src/dsp_cli_nfca_rx.o
                0x50000d80                cli_nfca_rx_reset_due_emd
                0x50000e08                cli_nfca_rx_process_byte
                0x50000e80                cli_nfca_rx_process_n_bytes
                0x50000f88                dsp_cli_nfca_rw_rx_buf_intrf
                0x5000121c                dsp_cli_nfca_ce_rx_encrptd_data
                0x50001484                dsp_cli_nfca_ce_rx_buf_intrf
                0x500017dc                dsp_cli_nfca_rx_config
                0x5000189c                dsp_cli_nfca_rw_rx_process
                0x50001c64                dsp_cli_nfca_ce_rx_process
                0x50001e78                dsp_cli_nfca_ce_act_init
                0x50001f40                dsp_cli_nfca_ce_act_undef_cmd
                0x50001f60                dsp_cli_nfca_ce_act_sens_req
                0x50001fe4                dsp_cli_nfca_ce_act_sdd_req
                0x500020dc                dsp_cli_nfca_ce_act_sel_req
                0x50002278                dsp_cli_nfca_ce_act_sdd_req_cl
                0x50002280                dsp_cli_nfca_ce_act_rx_done
 *fill*         0x500022f1        0x7 
 .text          0x500022f8     0x11f7 D:/PYRAMID_SW/dsp_trunk/tags/Sphinx_0p3/testing_app/system_integration/bin/Py_210123_eval/Release/src/dsp_cli_nfca_tx.o
                0x500022f8                dsp_cli_nfca_tx_config
                0x500023f4                cli_nfca_tx_process_byte
                0x50002484                cli_nfca_tx_process_n_bytes
                0x50002660                cli_nfca_tx_send_bit
                0x500026e4                cli_nfca_tx_ce_send_bit
                0x5000274c                cli_nfca_tx_send_byte
                0x500027e4                cli_nfca_tx_send_n_bytes
                0x50002940                cli_nfca_tx_rrdd_shortframe
                0x50002990                cli_nfca_tx_interframe
                0x50002a38                dsp_cli_nfca_rw_tx_process
                0x50002f2c                dsp_cli_nfca_ce_tx_calc_fdt_lstn
                0x50003008                dsp_cli_nfca_ce_tx_process
 *fill*         0x500034ef        0x1 
 .text          0x500034f0      0x71d D:/PYRAMID_SW/dsp_trunk/tags/Sphinx_0p3/testing_app/system_integration/bin/Py_210123_eval/Release/src/dsp_cli_nfcb_rx.o
                0x500034f0                cli_nfcb_rx_reset_due_emd
                0x50003570                cli_nfcb_rx_end_due_error
                0x50003598                cli_nfcb_rx_calc_crc_n_bytes
                0x500035c0                cli_nfcb_rx_store_data
                0x500036c8                dsp_cli_nfcb_rx_config
                0x50003738                dsp_cli_nfcb_rx_get_data
                0x50003a50                dsp_cli_nfcb_rx_process_data
 *fill*         0x50003c0d        0x3 
 .text          0x50003c10      0x5d8 D:/PYRAMID_SW/dsp_trunk/tags/Sphinx_0p3/testing_app/system_integration/bin/Py_210123_eval/Release/src/dsp_cli_nfcb_tx.o
                0x50003c10                cli_nfcb_tx_send_bit
                0x50003c58                cli_nfcb_tx_send_dummy_high
                0x50003c9c                cli_nfcb_tx_send_sync_pattern
                0x50003e34                cli_nfcb_tx_send_n_bytes
                0x50003ec4                cli_nfcb_tx_calc_crc_n_bytes
                0x50003ee8                dsp_cli_nfcb_tx_config
                0x50003f30                dsp_cli_nfcb_tx_process
 .text          0x500041e8      0xcc6 D:/PYRAMID_SW/dsp_trunk/tags/Sphinx_0p3/testing_app/system_integration/bin/Py_210123_eval/Release/src/dsp_cli_nfcf_rx.o
                0x500041e8                update_periodic_slot_timeout
                0x500042c8                sof_check
                0x50004478                get_frm_len
                0x500046cc                get_data_frm
                0x500048d4                finish_cli_rx_get_data
                0x500049e4                dsp_cli_nfcf_rx_config
                0x50004ac0                dsp_cli_nfcf_ce_rx_buf_get_data
                0x50004b68                dsp_cli_nfcf_rw_rx_buf_get_data
                0x50004c90                dsp_cli_nfcf_process_frame
 *fill*         0x50004eae        0x2 
 .text          0x50004eb0      0x7d6 D:/PYRAMID_SW/dsp_trunk/tags/Sphinx_0p3/testing_app/system_integration/bin/Py_210123_eval/Release/src/dsp_cli_nfcf_tx.o
                0x50004eb0                dsp_cli_nfcf_tx_crc_byte_calc
                0x50004efc                dsp_cli_nfcf_tx_send_high
                0x50004f18                dsp_cli_nfcf_tx_send_bit
                0x50004f74                dsp_cli_nfcf_tx_send_byte
                0x50004fa8                dsp_cli_nfcf_tx_send_n_bytes
                0x50004fdc                dsp_cli_nfcf_tx_config
                0x500050d4                dsp_cli_nfcf_tx_send_last_byte
                0x5000511c                dsp_cli_nfcf_ce_tx_calc_fdt_lstn
                0x50005164                dsp_cli_nfcf_tx_process
 *fill*         0x50005686        0x2 
 .text          0x50005688      0x47b D:/PYRAMID_SW/dsp_trunk/tags/Sphinx_0p3/testing_app/system_integration/bin/Py_210123_eval/Release/src/dsp_cli_nfcv_rx.o
                0x50005688                cli_nfcv_rx_end_due_error
                0x500056b0                cli_nfcv_rx_calc_crc_n_bytes
                0x500056d8                cli_nfcv_rx_store_data
                0x50005734                dsp_cli_nfcv_rx_config
                0x50005780                dsp_cli_nfcv_rx_get_data
                0x5000599c                dsp_cli_nfcv_rx_process_data
 *fill*         0x50005b03        0x5 
 .text          0x50005b08      0x484 D:/PYRAMID_SW/dsp_trunk/tags/Sphinx_0p3/testing_app/system_integration/bin/Py_210123_eval/Release/src/dsp_cli_nfcv_tx.o
                0x50005b08                cli_nfcv_tx_send_dummy_high
                0x50005b38                cli_nfcv_tx_send_sof
                0x50005b80                cli_nfcv_tx_send_eof
                0x50005bf4                cli_nfcv_tx_calc_crc_byte
                0x50005c10                cli_nfcv_tx_send_byte_1_out_of_4
                0x50005c70                cli_nfcv_tx_send_byte_1_out_of_256
                0x50005cb4                dsp_cli_nfcv_tx_config
                0x50005d0c                dsp_cli_nfcv_tx_process
 *fill*         0x50005f8c        0x4 
 .text          0x50005f90      0x392 D:/PYRAMID_SW/dsp_trunk/tags/Sphinx_0p3/testing_app/system_integration/bin/Py_210123_eval/Release/src/dsp_cli_rx.o
                0x50005f90                dsp_cli_rx_process
                0x50006084                dsp_cli_rx_config
                0x50006158                dsp_cli_form_m0_yula_pckt
                0x50006218                dsp_cli_rx_end_oprtn
                0x50006314                dsp_cli_rx_done
 *fill*         0x50006322        0x6 
 .text          0x50006328      0x706 D:/PYRAMID_SW/dsp_trunk/tags/Sphinx_0p3/testing_app/system_integration/bin/Py_210123_eval/Release/src/dsp_cli_tx.o
                0x50006328                dsp_cli_tx_config
                0x50006678                dsp_cli_tx_process
                0x50006708                dsp_cli_tx_end
                0x50006760                dsp_cli_tx_done
                0x50006770                trigger_after_tx_timer_alarms
 *fill*         0x50006a2e        0x2 
 .text          0x50006a30       0x2c D:/PYRAMID_SW/dsp_trunk/tags/Sphinx_0p3/testing_app/system_integration/bin/Py_210123_eval/Release/src/dsp_cli_utils.o
                0x50006a30                dsp_cli_init
 *fill*         0x50006a5c        0x4 
 .text          0x50006a60       0xa0 D:/PYRAMID_SW/dsp_trunk/tags/Sphinx_0p3/testing_app/system_integration/bin/Py_210123_eval/Release/src/dsp_evnt_mngr.o
                0x50006a60                dsp_evnt_mngr_init
                0x50006ab4                dsp_evnt_mngr_register_event_cllbck
                0x50006acc                dsp_evnt_mngr_post_event
                0x50006ae0                dsp_evnt_mngr_handle_events
 .text          0x50006b00      0x1ed D:/PYRAMID_SW/dsp_trunk/tags/Sphinx_0p3/testing_app/system_integration/bin/Py_210123_eval/Release/src/dsp_hal.o
                0x50006b00                fifo_buff_fill
                0x50006b60                dsp_hal_memcpy
                0x50006bd0                dsp_hal_memcmp
                0x50006c4c                set_cea_rtl_state
 *fill*         0x50006ced        0x3 
 .text          0x50006cf0       0x11 D:/PYRAMID_SW/dsp_trunk/tags/Sphinx_0p3/testing_app/system_integration/bin/Py_210123_eval/Release/src/dsp_hal_activetop.o
                0x50006cf0                dsp_hal_activetop_get_clk_div
 *fill*         0x50006d01        0x7 
 .text          0x50006d08      0xa37 D:/PYRAMID_SW/dsp_trunk/tags/Sphinx_0p3/testing_app/system_integration/bin/Py_210123_eval/Release/src/dsp_hal_cli_top.o
                0x50006d08                dsp_hal_pass_common_structure
                0x50006d28                hal_cli_ser_tx_end
                0x50006d38                hal_cli_modm_rxend
                0x50006d5c                hal_cli_aftr_tx_ce_alarms
                0x50006d78                hal_cli_aftr_tx_rw_alarms
                0x50006db0                hal_cli_aftr_tx_techF_rw_fst_alarms
                0x50006dd0                hal_cli_aftr_tx_techF_rw_slotted_alarms
                0x50006df8                hal_cli_aftr_tx_techF_rw_scnd_alarms
                0x50006e20                hal_cli_modm_rxend_ce_alarms
                0x50006e34                hal_cancel_fdt_alarms
                0x50006e60                mdm_flag_evnt_sel
                0x50006f5c                dsp_hal_out_fifo_enable
                0x50006fa0                dsp_hal_tx_ser_enable
                0x50007214                dsp_hal_tx_ser_start
                0x50007234                dsp_hal_cli_top_int_en
                0x50007258                dsp_hal_cli_top_int_dis
                0x50007288                dsp_hal_cli_top_int_clear
                0x500072b4                dsp_hal_cli_top_int1_clear
                0x500072e0                dsp_hal_cli_top_tx_end_oprtn
                0x5000732c                dsp_hal_in_fifo_enable
                0x50007360                dsp_hal_in_fifo_rst
                0x5000738c                dsp_hal_cli_top_int_stat
                0x5000739c                dsp_hal_cli_top_init
                0x500073ac                dsp_hal_trigger_m0_int
                0x500073d4                dsp_hal_tech_f_mapping
                0x500073f4                hal_cli_top_configure_mdm_events
                0x500075d0                dsp_hal_register_rxend_time
                0x500075e0                dsp_hal_modify_poll2poll_flg
                0x500075f0                dsp_hal_read_poll2poll_flg
                0x500075fc                dsp_hal_modify_lstn2poll_flg
                0x5000760c                dsp_hal_read_lstn2poll_flg
                0x50007618                dsp_hal_check_lstn2poll_poll2poll
 *fill*         0x5000773f        0x1 
 .text          0x50007740       0x2f D:/PYRAMID_SW/dsp_trunk/tags/Sphinx_0p3/testing_app/system_integration/bin/Py_210123_eval/Release/src/dsp_hal_dsp_top.o
                0x50007740                dsp_hal_timer_enable
 *fill*         0x5000776f        0x1 
 .text          0x50007770       0x51 D:/PYRAMID_SW/dsp_trunk/tags/Sphinx_0p3/testing_app/system_integration/bin/Py_210123_eval/Release/src/dsp_hal_fifo.o
                0x50007770                fifo_32bit_push
                0x50007784                fifo_4bit_pop
                0x5000779c                fifo_4bit_reset
 *fill*         0x500077c1        0x7 
 .text          0x500077c8      0x221 D:/PYRAMID_SW/dsp_trunk/tags/Sphinx_0p3/testing_app/system_integration/bin/Py_210123_eval/Release/src/dsp_hal_hmb.o
                0x500077c8                dsp_hmb_enable
                0x500078cc                dsp_hmb_set_flag
                0x500078e4                dsp_hmb_dsp_intr_hndlr
                0x500079b8                dsp_hmb_poll_m0_flag
 *fill*         0x500079e9        0x7 
 .text          0x500079f0      0x535 D:/PYRAMID_SW/dsp_trunk/tags/Sphinx_0p3/testing_app/system_integration/bin/Py_210123_eval/Release/src/dsp_hal_mdm_top.o
                0x500079f0                modem_configs_en
                0x50007e74                modem_dis
 *fill*         0x50007f25        0x3 
 .text          0x50007f28       0xce D:/PYRAMID_SW/dsp_trunk/tags/Sphinx_0p3/testing_app/system_integration/bin/Py_210123_eval/Release/src/dsp_hal_sml1_top.o
                0x50007f28                sml1_hal_block_access
 *fill*         0x50007ff6        0x2 
 .text          0x50007ff8      0x431 D:/PYRAMID_SW/dsp_trunk/tags/Sphinx_0p3/testing_app/system_integration/bin/Py_210123_eval/Release/src/dsp_hal_sml3.o
                0x50007ff8                dsp_hal_sml3_startup
                0x50008094                dsp_hal_sml3_wakeup
                0x500082b4                dsp_hal_shared_mem_mode_set
                0x500082f8                dsp_hal_calc_rom_checksum
                0x50008400                dsp_hal_get_dsp_version
 *fill*         0x50008429        0x7 
 .text          0x50008430      0x2bc D:/PYRAMID_SW/dsp_trunk/tags/Sphinx_0p3/testing_app/system_integration/bin/Py_210123_eval/Release/src/dsp_hal_timer.o
                0x50008430                dsp_timer_intr_handler
                0x50008610                timer_init
                0x50008640                timer_alarm_init
                0x5000865c                timer_alarm_cancel
                0x50008680                timer_set_alarm
                0x500086a0                timer_get
                0x500086b0                timer_set_clk_multiplicand
 *fill*         0x500086ec        0x4 
 .text          0x500086f0      0x444 D:/PYRAMID_SW/dsp_trunk/tags/Sphinx_0p3/testing_app/system_integration/bin/Py_210123_eval/Release/src/dsp_intr_hndlr.o
                0x500086f0                dsp_config_intr_handler
                0x5000878c                modem_tmr_cbk
                0x50008890                dsp_cli_top_intr_handler
                0x50008a8c                dsp_sml1_hw_intr_handler
                0x50008ac0                dma_start_isr
                0x50008b18                dma_start_timer_isr
 *fill*         0x50008b34        0x4 
 .text          0x50008b38      0x118 D:/PYRAMID_SW/dsp_trunk/tags/Sphinx_0p3/testing_app/system_integration/bin/Py_210123_eval/Release/src/dsp_logs.o
                0x50008b38                dsp_log_init
                0x50008b9c                dsp_log_write
 .text          0x50008c50       0x85 D:/PYRAMID_SW/dsp_trunk/tags/Sphinx_0p3/testing_app/system_integration/bin/Py_210123_eval/Release/src/dsp_m0_common.o
                0x50008c50                dsp_m0_common_init
 *fill*         0x50008cd5        0x3 
 .text          0x50008cd8      0x869 D:/PYRAMID_SW/dsp_trunk/tags/Sphinx_0p3/testing_app/system_integration/bin/Py_210123_eval/Release/src/dsp_mngr.o
                0x50008cd8                timer_used_alarms_init
                0x50008d94                dsp_mngr_init
                0x50008edc                dsp_mngr_rx_config_hndlr
                0x500091ac                dsp_mngr_tx_config_hndlr
                0x500092c0                dsp_mngr_next_cmd_hndlr
                0x50009324                dsp_mngr_rx_done_hndlr
                0x500093f4                dsp_mngr_tx_done_hndlr
                0x500094dc                dsp_mngr_exception_hndlr
                0x500094ec                dsp_assert_handler
                0x50009530                dsp_lstn_max2_cbk
 *fill*         0x50009541        0x7 
 .text          0x50009548      0x49c D:/PYRAMID_SW/dsp_trunk/tags/Sphinx_0p3/testing_app/system_integration/bin/Py_210123_eval/Release/src/dsp_sml0_apc.o
                0x50009548                dsp_sml0_apc_init
                0x50009560                dsp_sml0_apc_call
 *fill*         0x500099e4        0x4 
 .text          0x500099e8      0x5c3 D:/PYRAMID_SW/dsp_trunk/tags/Sphinx_0p3/testing_app/system_integration/bin/Py_210123_eval/Release/src/dsp_sml0_lmac.o
                0x500099e8                dsp_sml0_lmac_call
 *fill*         0x50009fab        0x5 
 .text          0x50009fb0       0x97 D:/PYRAMID_SW/dsp_trunk/tags/Sphinx_0p3/testing_app/system_integration/bin/Py_210123_eval/Release/src/dsp_sml1.o
                0x50009fb0                dsp_sml1_timeout_callback
                0x50009fd8                dsp_sml1_init
                0x50009ff8                dsp_sml1_config
                0x5000a018                dsp_sml1_process
                0x5000a030                dsp_sml1_idle
 *fill*         0x5000a047        0x1 
 .text          0x5000a048      0xda5 D:/PYRAMID_SW/dsp_trunk/tags/Sphinx_0p3/testing_app/system_integration/bin/Py_210123_eval/Release/src/dsp_sml1_dyn_reg.o
                0x5000a048                dyn_reg_lut_index_finder
                0x5000a0bc                dsp_sml1_pcm_dyn_reg_index_config
                0x5000a0f0                dsp_sml1_pcm_dynamic_matrix_updates
                0x5000a684                dsp_sml1_pcm_poller_dynamic_matrix
                0x5000a6b4                dsp_sml1_pcm_listener_dynamic_matrix_updates
                0x5000ad48                dsp_sml1_pcm_listener_dynamic_matrix
 *fill*         0x5000aded        0x3 
 .text          0x5000adf0      0x515 D:/PYRAMID_SW/dsp_trunk/tags/Sphinx_0p3/testing_app/system_integration/bin/Py_210123_eval/Release/src/dsp_sml1_pcm.o
                0x5000adf0                dsp_sml1_pcm_init
                0x5000ae90                dsp_sml1_pcm_config
                0x5000aed8                dsp_sml1_pcm_process
                0x5000afe4                dsp_sml1_pcm_idle
                0x5000b054                dsp_sml1_pcm_startup_config
                0x5000b1c4                dsp_sml1_pcm_terminate
                0x5000b300                dsp_sml1_pcm_error_monitor
 *fill*         0x5000b305        0x3 
 .text          0x5000b308     0x109f D:/PYRAMID_SW/dsp_trunk/tags/Sphinx_0p3/testing_app/system_integration/bin/Py_210123_eval/Release/src/dsp_sml1_pcm_listener.o
                0x5000b308                pcm_listener_uta_timeout_config
                0x5000b338                pcm_listener_field_on_demand
                0x5000b480                pcm_listener_tech_change
                0x5000b4d8                pcm_listener_fdt_poll_wait_m0
                0x5000b54c                pcm_listener_fdt_poll
                0x5000b624                pcm_listener_post_fdt_listen
                0x5000b730                pcm_listener_next_cmd_rsp
                0x5000b798                dsp_sml1_pcm_listener_config
                0x5000bc28                dsp_sml1_pcm_listener_pre_tx
                0x5000be64                dsp_sml1_pcm_listener_post_tx
                0x5000beac                dsp_sml1_pcm_listener_pre_rx
                0x5000c074                dsp_sml1_pcm_listener_post_rx
                0x5000c11c                dsp_sml1_pcm_listener_fdt_lsn
                0x5000c17c                dsp_sml1_pcm_listener_tx_rx_oprtn
                0x5000c288                dsp_sml1_detect_rf_off
                0x5000c314                dsp_sml1_detect_invld_ptrn
 *fill*         0x5000c3a7        0x1 
 .text          0x5000c3a8      0xf6d D:/PYRAMID_SW/dsp_trunk/tags/Sphinx_0p3/testing_app/system_integration/bin/Py_210123_eval/Release/src/dsp_sml1_pcm_listener_user_ta.o
                0x5000c3a8                clk_external_clk
                0x5000c3f4                frequency_adjust
                0x5000c43c                phase_adjust
                0x5000c484                tgt_ph
                0x5000c574                lmac_apply
                0x5000c5c4                dsp_sml1_pcm_listener_poller_command
                0x5000c5d8                dsp_sml1_pcm_listener_guard_time
                0x5000cc08                dsp_sml1_pcm_listener_pre_fdt_listen
                0x5000ce3c                dsp_sml1_pcm_listener_post_fdt_listen
                0x5000cfac                dsp_sml1_pcm_listener_listener_response
                0x5000d010                dsp_sml1_pcm_listener_fdt_poll
 *fill*         0x5000d315        0x3 
 .text          0x5000d318      0xef3 D:/PYRAMID_SW/dsp_trunk/tags/Sphinx_0p3/testing_app/system_integration/bin/Py_210123_eval/Release/src/dsp_sml1_pcm_poller.o
                0x5000d318                dsp_sml1_od_mode_callback
                0x5000d328                wait_programmable_time
                0x5000d33c                pcm_poller_uta_timeout_config
                0x5000d36c                pcm_poller_od_mode
                0x5000d488                pcm_poller_field_on_demand
                0x5000d5e8                pcm_poller_init_rf_avoid
                0x5000d74c                pcm_poller_tech_change
                0x5000d864                pcm_poller_pre_fdt_poll
                0x5000d8ec                dsp_sml1_pcm_poller_fdt_poll
                0x5000d9b8                dsp_sml1_pcm_poller_ext_fdt_poll
                0x5000daa8                pcm_poller_next_cmd_rsp
                0x5000db14                dsp_sml1_pcm_poller_config
                0x5000dedc                dsp_sml1_pcm_poller_pre_tx
                0x5000e034                dsp_sml1_pcm_poller_post_tx
                0x5000e090                dsp_sml1_pcm_poller_pre_rx
                0x5000e140                dsp_sml1_pcm_poller_post_rx
                0x5000e194                dsp_sml1_pcm_poller_tx_rx_oprtn
 *fill*         0x5000e20b        0x5 
 .text          0x5000e210     0x1877 D:/PYRAMID_SW/dsp_trunk/tags/Sphinx_0p3/testing_app/system_integration/bin/Py_210123_eval/Release/src/dsp_sml1_pcm_poller_user_ta.o
                0x5000e210                dsp_sml1_user_ta_wait_callback
                0x5000e220                dsp_sml1_user_ta_counter_callback
                0x5000e230                user_ta_wait
                0x5000e280                user_ta_counter
                0x5000e2b0                sml1_hal_enable_rf_colavd
                0x5000e3ac                enable_dcdc
                0x5000e3fc                xosc_enable
                0x5000e44c                clk_external_clk_1
                0x5000e49c                clk_external_clk_2
                0x5000e4ec                txldo_en
                0x5000e53c                sigma_delta_load
                0x5000e58c                vco_calib_mod_1
                0x5000e5e4                pll_adj_lk_bw
                0x5000e634                switch_clk
                0x5000e684                disable_lp_osc
                0x5000e6d4                rf_agc
                0x5000e744                dcoc
                0x5000e798                pa_soft_start
                0x5000e7e4                apc_apply
                0x5000e834                generate_apc_failed_error
                0x5000e83c                reset_bb_agc
                0x5000e934                vco_calibration_mod_3
                0x5000e98c                pa_off
                0x5000e9dc                disable_dcdc
                0x5000ea2c                disable_txldo
                0x5000ea7c                enable_lp_osc
                0x5000eacc                disable_xosc
                0x5000eb1c                disable_external_clk_request
                0x5000eb6c                dsp_sml1_pcm_poller_collision_avoidance
                0x5000ee30                dsp_sml1_pcm_poller_pre_guard_time
                0x5000effc                dsp_sml1_pcm_poller_post_guard_time
                0x5000f18c                dsp_sml1_pcm_poller_command
                0x5000f1e0                dsp_sml1_pcm_poller_fdt_listen
                0x5000f49c                dsp_sml1_pcm_poller_pre_fdt_poll
                0x5000f6c0                dsp_sml1_pcm_poller_post_fdt_poll
                0x5000f878                dsp_sml1_pcm_rf_off
 *fill*         0x5000fa87        0x1 
 .text          0x5000fa88       0x37 C:/usr/xtensa/XtDevTools/install/builds/RI-2021.6-win32/Py_210123_eval/xtensa-elf/arch/lib/\libhandlers-board.a(xtos-interrupt-enable.o)
                0x5000fa88                xtos_interrupt_enable
 *fill*         0x5000fabf        0x1 
 .text          0x5000fac0       0x4a C:/usr/xtensa/XtDevTools/install/builds/RI-2021.6-win32/Py_210123_eval/xtensa-elf/arch/lib/\libhandlers-board.a(xtos-set-inthandler.o)
                0x5000fac0                xtos_set_interrupt_handler
 *fill*         0x5000fb0a        0x2 
 .text          0x5000fb0c       0x43 C:/usr/xtensa/XtDevTools/install/builds/RI-2021.6-win32/Py_210123_eval/xtensa-elf/arch/lib/\libhandlers-board.a(xtos-set-exchandler.o)
                0x5000fb0c                xtos_set_exception_handler
 *fill*         0x5000fb4f        0x1 
 .text          0x5000fb50       0x81 C:/usr/xtensa/XtDevTools/install/builds/RI-2021.6-win32/Py_210123_eval/xtensa-elf/arch/lib/\libhandlers-board.a(exc-syscall-handler.o)
                0x5000fb50                _xtos_syscall_handler
                0x5000fb8f                _SyscallException
 *fill*         0x5000fbd1        0x3 
 .text          0x5000fbd4       0x9d C:/usr/xtensa/XtDevTools/install/builds/RI-2021.6-win32/Py_210123_eval/xtensa-elf/arch/lib/\libhandlers-board.a(exc-c-wrapper-handler.o)
                0x5000fbd4                xtos_cause3_handler
                0x5000fbe4                xtos_c_wrapper_handler
                0x5000fc44                _GeneralException
 *fill*         0x5000fc71        0x3 
 .text          0x5000fc74       0xfc C:/usr/xtensa/XtDevTools/install/builds/RI-2021.6-win32/Py_210123_eval/xtensa-elf/arch/lib/\libhandlers-board.a(int-lowpri-dispatcher.o)
                0x5000fc74                _xtos_l1int_handler
                0x5000fc92                _LevelOneInterrupt
 .text          0x5000fd70       0xb9 C:/usr/xtensa/XtDevTools/install/builds/RI-2021.6-win32/Py_210123_eval/xtensa-elf/arch/lib/\libhandlers-board.a(int-handler-level2.o)
                0x5000fd70                _Level2FromVector
 *fill*         0x5000fe29        0x3 
 .text          0x5000fe2c       0xb6 C:/usr/xtensa/XtDevTools/install/builds/RI-2021.6-win32/Py_210123_eval/xtensa-elf/arch/lib/\libhandlers-board.a(int-handler-level3.o)
                0x5000fe2c                _Level3FromVector
 *fill*         0x5000fee2        0x0 
 *fill*         0x5000fee2        0x0 
 *fill*         0x5000fee2        0x0 
 *fill*         0x5000fee2        0x0 
 *fill*         0x5000fee2        0x0 
 *fill*         0x5000fee2        0x0 
 *fill*         0x5000fee2        0x0 
 *fill*         0x5000fee2        0x0 
 *fill*         0x5000fee2        0x0 
 *fill*         0x5000fee2        0x0 
 *fill*         0x5000fee2        0x0 
 *fill*         0x5000fee2        0x0 
 *fill*         0x5000fee2        0x0 
 *fill*         0x5000fee2        0x0 
 *fill*         0x5000fee2        0x0 
 *fill*         0x5000fee2        0x0 
 *fill*         0x5000fee2        0x0 
 *fill*         0x5000fee2        0x0 
 .text          0x5000fee2        0x0 D:/PYRAMID_SW/dsp_trunk/tags/Sphinx_0p3/testing_app/system_integration/bin/Py_210123_eval/Release/src/dsp_cli_wind_lut.o
 *fill*         0x5000fee2        0x6 
 .text          0x5000fee8       0x45 D:/PYRAMID_SW/dsp_trunk/tags/Sphinx_0p3/testing_app/system_integration/bin/Py_210123_eval/Release/src/dsp_dbg.o
                0x5000fee8                dbg_feature_1
                0x5000fef0                dbg_feature_2
                0x5000fef8                dbg_feature_8
                0x5000ff00                dbg_feature_10
                0x5000ff08                dbg_feature_12
                0x5000ff10                dbg_feature_17
                0x5000ff18                dbg_feature_20
                0x5000ff20                dbg_feature_21
                0x5000ff28                dbg_feature_24
 *fill*         0x5000ff2d        0x0 
 *fill*         0x5000ff2d        0x0 
 *fill*         0x5000ff2d        0x0 
 *fill*         0x5000ff2d        0x0 
 *fill*         0x5000ff2d        0x0 
 *fill*         0x5000ff2d        0x0 
 *fill*         0x5000ff2d        0x0 
 *fill*         0x5000ff2d        0x0 
 *fill*         0x5000ff2d        0x0 
 *fill*         0x5000ff2d        0x0 
 *fill*         0x5000ff2d        0x0 
 *fill*         0x5000ff2d        0x3 
 .literal       0x5000ff30        0x0 D:/PYRAMID_SW/dsp_trunk/tags/Sphinx_0p3/testing_app/system_integration/bin/Py_210123_eval/Release/src/dsp_hal_intr.o
 *fill*         0x5000ff30        0x0 
 .text          0x5000ff30       0x2f D:/PYRAMID_SW/dsp_trunk/tags/Sphinx_0p3/testing_app/system_integration/bin/Py_210123_eval/Release/src/dsp_hal_intr.o
                0x5000ff30                dsp_hal_intr_init
                0x5000ff40                dsp_hal_register_interrupt_handler
                0x5000ff54                dsp_hal_intrpt_enable
 *fill*         0x5000ff5f        0x0 
 *fill*         0x5000ff5f        0x0 
 *fill*         0x5000ff5f        0x0 
 *fill*         0x5000ff5f        0x0 
 *fill*         0x5000ff5f        0x0 
 *fill*         0x5000ff5f        0x0 
 *fill*         0x5000ff5f        0x0 
 *fill*         0x5000ff5f        0x0 
 *fill*         0x5000ff5f        0x0 
 *fill*         0x5000ff5f        0x0 
 *fill*         0x5000ff5f        0x0 
 *fill*         0x5000ff5f        0x0 
 *fill*         0x5000ff5f        0x0 
 *fill*         0x5000ff5f        0x0 
 .text          0x5000ff5f        0x0 D:/PYRAMID_SW/dsp_trunk/tags/Sphinx_0p3/testing_app/system_integration/bin/Py_210123_eval/Release/src/dsp_sml1_pcm_dyn_reg_lut.o
 *fill*         0x5000ff5f        0x0 
 *fill*         0x5000ff5f        0x0 
 *fill*         0x5000ff5f        0x0 
 *fill*         0x5000ff5f        0x0 
 *fill*         0x5000ff5f        0x0 
 .text          0x5000ff5f        0x0 D:/PYRAMID_SW/dsp_trunk/tags/Sphinx_0p3/testing_app/system_integration/bin/Py_210123_eval/Release/src/dsp_sml1_user_ta_lut.o
 .text          0x5000ff5f        0x0 D:/PYRAMID_SW/dsp_trunk/tags/Sphinx_0p3/testing_app/system_integration/bin/Py_210123_eval/Release/test_10_loopbck_nfcv_rw.o
 .text          0x5000ff5f        0x0 D:/PYRAMID_SW/dsp_trunk/tags/Sphinx_0p3/testing_app/system_integration/bin/Py_210123_eval/Release/test_1_loopbck_nfcf_rw_std.o
 .text          0x5000ff5f        0x0 D:/PYRAMID_SW/dsp_trunk/tags/Sphinx_0p3/testing_app/system_integration/bin/Py_210123_eval/Release/test_2_loopbck_nfcf_ce.o
 .text          0x5000ff5f        0x0 D:/PYRAMID_SW/dsp_trunk/tags/Sphinx_0p3/testing_app/system_integration/bin/Py_210123_eval/Release/test_3_loopbck_nfca_rw_std.o
 .text          0x5000ff5f        0x0 D:/PYRAMID_SW/dsp_trunk/tags/Sphinx_0p3/testing_app/system_integration/bin/Py_210123_eval/Release/test_4_loopbck_nfca_ce.o
 .text          0x5000ff5f        0x0 D:/PYRAMID_SW/dsp_trunk/tags/Sphinx_0p3/testing_app/system_integration/bin/Py_210123_eval/Release/test_5_loopbck_nfca_rw_sdd.o
 .text          0x5000ff5f        0x0 D:/PYRAMID_SW/dsp_trunk/tags/Sphinx_0p3/testing_app/system_integration/bin/Py_210123_eval/Release/test_6_loopbck_nfca_ce_swp_intf.o
 .text          0x5000ff5f        0x0 D:/PYRAMID_SW/dsp_trunk/tags/Sphinx_0p3/testing_app/system_integration/bin/Py_210123_eval/Release/test_7_loopbck_nfcb_rw.o
 .text          0x5000ff5f        0x0 D:/PYRAMID_SW/dsp_trunk/tags/Sphinx_0p3/testing_app/system_integration/bin/Py_210123_eval/Release/test_8_loopbck_nfcb_ce.o
 .text          0x5000ff5f        0x0 D:/PYRAMID_SW/dsp_trunk/tags/Sphinx_0p3/testing_app/system_integration/bin/Py_210123_eval/Release/test_9_loopbck_nfca_rw_t1t.o
 .text          0x5000ff5f        0x0 D:/PYRAMID_SW/dsp_trunk/tags/Sphinx_0p3/testing_app/system_integration/bin/Py_210123_eval/Release/test_integration.o
 *fill*         0x5000ff5f        0x1 
 .literal       0x5000ff60        0x0 C:/usr/xtensa/XtDevTools/install/builds/RI-2021.6-win32/Py_210123_eval/xtensa-elf/lib/xcc/\libgcc.a(_udivsi3.o)
 .text          0x5000ff60       0x4e C:/usr/xtensa/XtDevTools/install/builds/RI-2021.6-win32/Py_210123_eval/xtensa-elf/lib/xcc/\libgcc.a(_udivsi3.o)
                0x5000ff60                __udivsi3
 .text          0x5000ffae        0x0 C:/usr/xtensa/XtDevTools/install/builds/RI-2021.6-win32/Py_210123_eval/xtensa-elf/arch/lib/\libhandler-reset-unpack.a(reset-vector-unpack.o)
 *fill*         0x5000ffae        0x0 
 *fill*         0x5000ffae        0x0 
 *fill*         0x5000ffae        0x0 
 *fill*         0x5000ffae        0x0 
 *fill*         0x5000ffae        0x2 
 .text          0x5000ffb0        0x5 C:/usr/xtensa/XtDevTools/install/builds/RI-2021.6-win32/Py_210123_eval/xtensa-elf/arch/lib/\libhandlers-board.a(exc-table.o)
                0x5000ffb0                xtos_p_none
 *fill*         0x5000ffb5        0x3 
 .text          0x5000ffb8        0x8 C:/usr/xtensa/XtDevTools/install/builds/RI-2021.6-win32/Py_210123_eval/xtensa-elf/arch/lib/\libhandlers-board.a(interrupt-table.o)
                0x5000ffb8                xtos_unhandled_interrupt
 .text          0x5000ffc0        0x0 C:/usr/xtensa/XtDevTools/install/builds/RI-2021.6-win32/Py_210123_eval/xtensa-elf/arch/lib/\libhandlers-board.a(user-vector.o)
 *fill*         0x5000ffc0        0x0 
 .text          0x5000ffc0       0x18 C:/usr/xtensa/XtDevTools/install/builds/RI-2021.6-win32/Py_210123_eval/xtensa-elf/arch/lib/\libhandlers-board.a(exc-return.o)
                0x5000ffc0                _xtos_return_from_exc
 .text          0x5000ffd8        0x0 C:/usr/xtensa/XtDevTools/install/builds/RI-2021.6-win32/Py_210123_eval/xtensa-elf/arch/lib/\libhandlers-board.a(window-vectors.o)
 .text          0x5000ffd8        0x5 C:/usr/xtensa/XtDevTools/install/builds/RI-2021.6-win32/Py_210123_eval/xtensa-elf/arch/lib/\libhandlers-board.a(int-init-level1.o)
                0x5000ffd8                xtos_dispatch_level1_interrupts
 *fill*         0x5000ffdd        0x3 
 .text          0x5000ffe0        0x5 C:/usr/xtensa/XtDevTools/install/builds/RI-2021.6-win32/Py_210123_eval/xtensa-elf/arch/lib/\libhandlers-board.a(int-init-level2.o)
                0x5000ffe0                xtos_dispatch_level2_interrupts
 *fill*         0x5000ffe5        0x3 
 .text          0x5000ffe8        0x5 C:/usr/xtensa/XtDevTools/install/builds/RI-2021.6-win32/Py_210123_eval/xtensa-elf/arch/lib/\libhandlers-board.a(int-init-level3.o)
                0x5000ffe8                xtos_dispatch_level3_interrupts
 *fill*         0x5000ffed        0x3 
 .text          0x5000fff0        0xd C:/usr/xtensa/XtDevTools/install/builds/RI-2021.6-win32/Py_210123_eval/xtensa-elf/arch/lib/\libhandlers-board.a(exc-unhandled.o)
                0x5000fff0                xtos_unhandled_exception
 .text          0x5000fffd        0x0 C:/usr/xtensa/XtDevTools/install/builds/RI-2021.6-win32/Py_210123_eval/xtensa-elf/arch/lib/\libhandlers-board.a(tiny-refs-S--level1int-.o)
 .text          0x5000fffd        0x0 C:/usr/xtensa/XtDevTools/install/builds/RI-2021.6-win32/Py_210123_eval/xtensa-elf/arch/lib/\libhandlers-board.a(int-vector-level2.o)
 .text          0x5000fffd        0x0 C:/usr/xtensa/XtDevTools/install/builds/RI-2021.6-win32/Py_210123_eval/xtensa-elf/arch/lib/\libhandlers-board.a(int-vector-level3.o)
 *fill*         0x5000fffd        0x0 
 *fill*         0x5000fffd        0x0 
 .text          0x5000fffd        0x0 C:/usr/xtensa/XtDevTools/install/builds/RI-2021.6-win32/Py_210123_eval/xtensa-elf/arch/lib/\libhandlers-min.a(tiny-refs-min.o)
 .text          0x5000fffd        0x0 C:/usr/xtensa/XtDevTools/install/builds/RI-2021.6-win32/Py_210123_eval/xtensa-elf/arch/lib/\libhandlers-null.a(_vectors.o)
 .text          0x5000fffd        0x0 C:/usr/xtensa/XtDevTools/install/builds/RI-2021.6-win32/Py_210123_eval/xtensa-elf/arch/lib/\libhandlers-null.a(_sharedvectors.o)
 .text          0x5000fffd        0x0 C:/usr/xtensa/XtDevTools/install/builds/RI-2021.6-win32/Py_210123_eval/xtensa-elf/arch/lib/\libhandlers-board.a(debug-vector.o)
 .text          0x5000fffd        0x0 C:/usr/xtensa/XtDevTools/install/builds/RI-2021.6-win32/Py_210123_eval/xtensa-elf/arch/lib/\libhandlers-board.a(double-vector.o)
 .text          0x5000fffd        0x0 C:/usr/xtensa/XtDevTools/install/builds/RI-2021.6-win32/Py_210123_eval/xtensa-elf/arch/lib/\libhandlers-board.a(kernel-vector.o)
 .text          0x5000fffd        0x0 C:/usr/xtensa/XtDevTools/install/builds/RI-2021.6-win32/Py_210123_eval/xtensa-elf/arch/lib/\libhal.a(cache_asm--hw_configid0.o)
 .text          0x5000fffd        0x0 C:/usr/xtensa/XtDevTools/install/builds/RI-2021.6-win32/Py_210123_eval/xtensa-elf/arch/lib/\libhal.a(cache_asm--hw_configid1.o)
 .text          0x5000fffd        0x0 C:/usr/xtensa/XtDevTools/install/builds/RI-2021.6-win32/Py_210123_eval/xtensa-elf/arch/lib/\libhal.a(cache_asm--release_major.o)
 .text          0x5000fffd        0x0 C:/usr/xtensa/XtDevTools/install/builds/RI-2021.6-win32/Py_210123_eval/xtensa-elf/arch/lib/\libhal.a(cache_asm--release_minor.o)
 .text          0x5000fffd        0x0 C:/usr/xtensa/XtDevTools/install/builds/RI-2021.6-win32/Py_210123_eval/xtensa-elf/arch/lib/\libhal.a(const--intlevel.o)
 *(.fini.literal)
 *(.fini)
 *(.gnu.version)
                0x50010000                . = ALIGN (0x4)
 *fill*         0x5000fffd        0x3 
                0x50010000                _text_end = ABSOLUTE (.)
                0x50010000                _etext = .

.ResetVector.literal
                0x50010000        0x0
 .ResetVector.literal
                0x50010000        0x0 C:/usr/xtensa/XtDevTools/install/builds/RI-2021.6-win32/Py_210123_eval/xtensa-elf/arch/lib/\libhandler-reset-unpack.a(reset-vector-unpack.o)

.srom.text      0x50010000        0x0
                0x50010000                _srom_text_start = ABSOLUTE (.)
 *(.srom.literal .srom.text)
                0x50010000                . = ALIGN (0x4)
                0x50010000                _srom_text_end = ABSOLUTE (.)

.sram.text      0x50010000        0x0
                0x50010000                _sram_text_start = ABSOLUTE (.)
 *(.sram.literal .sram.text)
                0x50010000                . = ALIGN (0x4)
                0x50010000                _sram_text_end = ABSOLUTE (.)

.rtos.text      0x50010000        0x0
                0x50010000                _rtos_text_start = ABSOLUTE (.)
 *(.rtos.literal .rtos.text)
                0x50010000                . = ALIGN (0x4)
                0x50010000                _rtos_text_end = ABSOLUTE (.)

.irom0.text     0x50010000        0x0
                0x50010000                _irom0_text_start = ABSOLUTE (.)
 *(.irom0.literal .irom.literal .irom.text.literal .irom0.text .irom.text)
                0x50010000                . = ALIGN (0x4)
                0x50010000                _irom0_text_end = ABSOLUTE (.)

.iram0.text     0x50010000        0x0
                0x50010000                _iram0_text_start = ABSOLUTE (.)
 *(.iram0.literal .iram.literal .iram.text.literal .iram0.text .iram.text)
                0x50010000                . = ALIGN (0x4)
                0x50010000                _iram0_text_end = ABSOLUTE (.)

.clib.text      0x50010000        0x0
                0x50010000                _clib_text_start = ABSOLUTE (.)
 *(.clib.literal .clib.text)
                0x50010000                . = ALIGN (0x4)
                0x50010000                _clib_text_end = ABSOLUTE (.)
                0x50010000                _memmap_mem_irom0_max = ABSOLUTE (.)

.dram1_0.data   0x500c0000        0x0
                0x500c0000                _dram1_0_data_start = ABSOLUTE (.)
 *(.dram1_0.data)
                0x500c0000                . = ALIGN (0x4)
                0x500c0000                _dram1_0_data_end = ABSOLUTE (.)
                0x500c0000                _memmap_seg_dram1_0_end = ALIGN (0x8)

.dram1_1.data   0x500c4000        0x0
                0x500c4000                _dram1_1_data_start = ABSOLUTE (.)
 *(.dram1_1.data)
                0x500c4000                . = ALIGN (0x4)
                0x500c4000                _dram1_1_data_end = ABSOLUTE (.)
                0x500c4000                _memmap_seg_dram1_1_end = ALIGN (0x8)

.dram1_2.data   0x500c6000        0x0
                0x500c6000                _dram1_2_data_start = ABSOLUTE (.)
 *(.dram1_2.data)
                0x500c6000                . = ALIGN (0x4)
                0x500c6000                _dram1_2_data_end = ABSOLUTE (.)
                0x500c6000                _memmap_seg_dram1_2_end = ALIGN (0x8)
                0x500c6000                _memmap_mem_dram1_max = ABSOLUTE (.)
                0x500c6000                _memmap_mem_srom_max = ABSOLUTE (.)
                0x500c6000                _memmap_mem_sram_max = ABSOLUTE (.)

.debug
 *(.debug)

.line
 *(.line)

.debug_srcinfo
 *(.debug_srcinfo)

.debug_sfnames
 *(.debug_sfnames)

.debug_aranges  0x00000000      0x7c0
 *(.debug_aranges)
 .debug_aranges
                0x00000000       0x20 C:/usr/xtensa/XtDevTools/install/builds/RI-2021.6-win32/Py_210123_eval/xtensa-elf/arch/lib/crt1-tiny.o
 .debug_aranges
                0x00000020       0x20 D:/PYRAMID_SW/dsp_trunk/tags/Sphinx_0p3/testing_app/system_integration/bin/Py_210123_eval/Release/dsp_verification.o
 .debug_aranges
                0x00000040       0x20 D:/PYRAMID_SW/dsp_trunk/tags/Sphinx_0p3/testing_app/system_integration/bin/Py_210123_eval/Release/main.o
 .debug_aranges
                0x00000060       0x20 D:/PYRAMID_SW/dsp_trunk/tags/Sphinx_0p3/testing_app/system_integration/bin/Py_210123_eval/Release/src/dsp_bootloader.o
 .debug_aranges
                0x00000080       0x20 D:/PYRAMID_SW/dsp_trunk/tags/Sphinx_0p3/testing_app/system_integration/bin/Py_210123_eval/Release/src/dsp_cli_nfca_rx.o
 .debug_aranges
                0x000000a0       0x20 D:/PYRAMID_SW/dsp_trunk/tags/Sphinx_0p3/testing_app/system_integration/bin/Py_210123_eval/Release/src/dsp_cli_nfca_tx.o
 .debug_aranges
                0x000000c0       0x20 D:/PYRAMID_SW/dsp_trunk/tags/Sphinx_0p3/testing_app/system_integration/bin/Py_210123_eval/Release/src/dsp_cli_nfcb_rx.o
 .debug_aranges
                0x000000e0       0x20 D:/PYRAMID_SW/dsp_trunk/tags/Sphinx_0p3/testing_app/system_integration/bin/Py_210123_eval/Release/src/dsp_cli_nfcb_tx.o
 .debug_aranges
                0x00000100       0x20 D:/PYRAMID_SW/dsp_trunk/tags/Sphinx_0p3/testing_app/system_integration/bin/Py_210123_eval/Release/src/dsp_cli_nfcf_rx.o
 .debug_aranges
                0x00000120       0x20 D:/PYRAMID_SW/dsp_trunk/tags/Sphinx_0p3/testing_app/system_integration/bin/Py_210123_eval/Release/src/dsp_cli_nfcf_tx.o
 .debug_aranges
                0x00000140       0x20 D:/PYRAMID_SW/dsp_trunk/tags/Sphinx_0p3/testing_app/system_integration/bin/Py_210123_eval/Release/src/dsp_cli_nfcv_rx.o
 .debug_aranges
                0x00000160       0x20 D:/PYRAMID_SW/dsp_trunk/tags/Sphinx_0p3/testing_app/system_integration/bin/Py_210123_eval/Release/src/dsp_cli_nfcv_tx.o
 .debug_aranges
                0x00000180       0x20 D:/PYRAMID_SW/dsp_trunk/tags/Sphinx_0p3/testing_app/system_integration/bin/Py_210123_eval/Release/src/dsp_cli_rx.o
 .debug_aranges
                0x000001a0       0x20 D:/PYRAMID_SW/dsp_trunk/tags/Sphinx_0p3/testing_app/system_integration/bin/Py_210123_eval/Release/src/dsp_cli_tx.o
 .debug_aranges
                0x000001c0       0x20 D:/PYRAMID_SW/dsp_trunk/tags/Sphinx_0p3/testing_app/system_integration/bin/Py_210123_eval/Release/src/dsp_cli_utils.o
 .debug_aranges
                0x000001e0       0x20 D:/PYRAMID_SW/dsp_trunk/tags/Sphinx_0p3/testing_app/system_integration/bin/Py_210123_eval/Release/src/dsp_dbg.o
 .debug_aranges
                0x00000200       0x20 D:/PYRAMID_SW/dsp_trunk/tags/Sphinx_0p3/testing_app/system_integration/bin/Py_210123_eval/Release/src/dsp_evnt_mngr.o
 .debug_aranges
                0x00000220       0x20 D:/PYRAMID_SW/dsp_trunk/tags/Sphinx_0p3/testing_app/system_integration/bin/Py_210123_eval/Release/src/dsp_hal.o
 .debug_aranges
                0x00000240       0x20 D:/PYRAMID_SW/dsp_trunk/tags/Sphinx_0p3/testing_app/system_integration/bin/Py_210123_eval/Release/src/dsp_hal_activetop.o
 .debug_aranges
                0x00000260       0x20 D:/PYRAMID_SW/dsp_trunk/tags/Sphinx_0p3/testing_app/system_integration/bin/Py_210123_eval/Release/src/dsp_hal_cli_top.o
 .debug_aranges
                0x00000280       0x20 D:/PYRAMID_SW/dsp_trunk/tags/Sphinx_0p3/testing_app/system_integration/bin/Py_210123_eval/Release/src/dsp_hal_dsp_top.o
 .debug_aranges
                0x000002a0       0x20 D:/PYRAMID_SW/dsp_trunk/tags/Sphinx_0p3/testing_app/system_integration/bin/Py_210123_eval/Release/src/dsp_hal_fifo.o
 .debug_aranges
                0x000002c0       0x20 D:/PYRAMID_SW/dsp_trunk/tags/Sphinx_0p3/testing_app/system_integration/bin/Py_210123_eval/Release/src/dsp_hal_hmb.o
 .debug_aranges
                0x000002e0       0x20 D:/PYRAMID_SW/dsp_trunk/tags/Sphinx_0p3/testing_app/system_integration/bin/Py_210123_eval/Release/src/dsp_hal_intr.o
 .debug_aranges
                0x00000300       0x20 D:/PYRAMID_SW/dsp_trunk/tags/Sphinx_0p3/testing_app/system_integration/bin/Py_210123_eval/Release/src/dsp_hal_mdm_top.o
 .debug_aranges
                0x00000320       0x20 D:/PYRAMID_SW/dsp_trunk/tags/Sphinx_0p3/testing_app/system_integration/bin/Py_210123_eval/Release/src/dsp_hal_sml1_top.o
 .debug_aranges
                0x00000340       0x20 D:/PYRAMID_SW/dsp_trunk/tags/Sphinx_0p3/testing_app/system_integration/bin/Py_210123_eval/Release/src/dsp_hal_sml3.o
 .debug_aranges
                0x00000360       0x20 D:/PYRAMID_SW/dsp_trunk/tags/Sphinx_0p3/testing_app/system_integration/bin/Py_210123_eval/Release/src/dsp_hal_timer.o
 .debug_aranges
                0x00000380       0x20 D:/PYRAMID_SW/dsp_trunk/tags/Sphinx_0p3/testing_app/system_integration/bin/Py_210123_eval/Release/src/dsp_intr_hndlr.o
 .debug_aranges
                0x000003a0       0x20 D:/PYRAMID_SW/dsp_trunk/tags/Sphinx_0p3/testing_app/system_integration/bin/Py_210123_eval/Release/src/dsp_logs.o
 .debug_aranges
                0x000003c0       0x20 D:/PYRAMID_SW/dsp_trunk/tags/Sphinx_0p3/testing_app/system_integration/bin/Py_210123_eval/Release/src/dsp_m0_common.o
 .debug_aranges
                0x000003e0       0x20 D:/PYRAMID_SW/dsp_trunk/tags/Sphinx_0p3/testing_app/system_integration/bin/Py_210123_eval/Release/src/dsp_mngr.o
 .debug_aranges
                0x00000400       0x20 D:/PYRAMID_SW/dsp_trunk/tags/Sphinx_0p3/testing_app/system_integration/bin/Py_210123_eval/Release/src/dsp_sml0_apc.o
 .debug_aranges
                0x00000420       0x20 D:/PYRAMID_SW/dsp_trunk/tags/Sphinx_0p3/testing_app/system_integration/bin/Py_210123_eval/Release/src/dsp_sml0_lmac.o
 .debug_aranges
                0x00000440       0x20 D:/PYRAMID_SW/dsp_trunk/tags/Sphinx_0p3/testing_app/system_integration/bin/Py_210123_eval/Release/src/dsp_sml1.o
 .debug_aranges
                0x00000460       0x20 D:/PYRAMID_SW/dsp_trunk/tags/Sphinx_0p3/testing_app/system_integration/bin/Py_210123_eval/Release/src/dsp_sml1_dyn_reg.o
 .debug_aranges
                0x00000480       0x20 D:/PYRAMID_SW/dsp_trunk/tags/Sphinx_0p3/testing_app/system_integration/bin/Py_210123_eval/Release/src/dsp_sml1_pcm.o
 .debug_aranges
                0x000004a0       0x20 D:/PYRAMID_SW/dsp_trunk/tags/Sphinx_0p3/testing_app/system_integration/bin/Py_210123_eval/Release/src/dsp_sml1_pcm_listener.o
 .debug_aranges
                0x000004c0       0x20 D:/PYRAMID_SW/dsp_trunk/tags/Sphinx_0p3/testing_app/system_integration/bin/Py_210123_eval/Release/src/dsp_sml1_pcm_listener_user_ta.o
 .debug_aranges
                0x000004e0       0x20 D:/PYRAMID_SW/dsp_trunk/tags/Sphinx_0p3/testing_app/system_integration/bin/Py_210123_eval/Release/src/dsp_sml1_pcm_poller.o
 .debug_aranges
                0x00000500       0x20 D:/PYRAMID_SW/dsp_trunk/tags/Sphinx_0p3/testing_app/system_integration/bin/Py_210123_eval/Release/src/dsp_sml1_pcm_poller_user_ta.o
 .debug_aranges
                0x00000520       0x20 C:/usr/xtensa/XtDevTools/install/builds/RI-2021.6-win32/Py_210123_eval/xtensa-elf/lib/xcc/\libgcc.a(_udivsi3.o)
 .debug_aranges
                0x00000540       0x20 C:/usr/xtensa/XtDevTools/install/builds/RI-2021.6-win32/Py_210123_eval/xtensa-elf/arch/lib/\libhandler-reset-unpack.a(reset-vector-unpack.o)
 .debug_aranges
                0x00000560       0x20 C:/usr/xtensa/XtDevTools/install/builds/RI-2021.6-win32/Py_210123_eval/xtensa-elf/arch/lib/\libhandlers-board.a(exc-syscall-handler.o)
 .debug_aranges
                0x00000580       0x20 C:/usr/xtensa/XtDevTools/install/builds/RI-2021.6-win32/Py_210123_eval/xtensa-elf/arch/lib/\libhandlers-board.a(exc-table.o)
 .debug_aranges
                0x000005a0       0x20 C:/usr/xtensa/XtDevTools/install/builds/RI-2021.6-win32/Py_210123_eval/xtensa-elf/arch/lib/\libhandlers-board.a(interrupt-table.o)
 .debug_aranges
                0x000005c0       0x20 C:/usr/xtensa/XtDevTools/install/builds/RI-2021.6-win32/Py_210123_eval/xtensa-elf/arch/lib/\libhandlers-board.a(user-vector.o)
 .debug_aranges
                0x000005e0       0x20 C:/usr/xtensa/XtDevTools/install/builds/RI-2021.6-win32/Py_210123_eval/xtensa-elf/arch/lib/\libhandlers-board.a(exc-c-wrapper-handler.o)
 .debug_aranges
                0x00000600       0x20 C:/usr/xtensa/XtDevTools/install/builds/RI-2021.6-win32/Py_210123_eval/xtensa-elf/arch/lib/\libhandlers-board.a(exc-return.o)
 .debug_aranges
                0x00000620       0x20 C:/usr/xtensa/XtDevTools/install/builds/RI-2021.6-win32/Py_210123_eval/xtensa-elf/arch/lib/\libhandlers-board.a(int-lowpri-dispatcher.o)
 .debug_aranges
                0x00000640       0x20 C:/usr/xtensa/XtDevTools/install/builds/RI-2021.6-win32/Py_210123_eval/xtensa-elf/arch/lib/\libhandlers-board.a(window-vectors.o)
 .debug_aranges
                0x00000660       0x20 C:/usr/xtensa/XtDevTools/install/builds/RI-2021.6-win32/Py_210123_eval/xtensa-elf/arch/lib/\libhandlers-board.a(int-init-level1.o)
 .debug_aranges
                0x00000680       0x20 C:/usr/xtensa/XtDevTools/install/builds/RI-2021.6-win32/Py_210123_eval/xtensa-elf/arch/lib/\libhandlers-board.a(int-init-level2.o)
 .debug_aranges
                0x000006a0       0x20 C:/usr/xtensa/XtDevTools/install/builds/RI-2021.6-win32/Py_210123_eval/xtensa-elf/arch/lib/\libhandlers-board.a(int-init-level3.o)
 .debug_aranges
                0x000006c0       0x20 C:/usr/xtensa/XtDevTools/install/builds/RI-2021.6-win32/Py_210123_eval/xtensa-elf/arch/lib/\libhandlers-board.a(exc-unhandled.o)
 .debug_aranges
                0x000006e0       0x20 C:/usr/xtensa/XtDevTools/install/builds/RI-2021.6-win32/Py_210123_eval/xtensa-elf/arch/lib/\libhandlers-board.a(int-vector-level2.o)
 .debug_aranges
                0x00000700       0x20 C:/usr/xtensa/XtDevTools/install/builds/RI-2021.6-win32/Py_210123_eval/xtensa-elf/arch/lib/\libhandlers-board.a(int-vector-level3.o)
 .debug_aranges
                0x00000720       0x20 C:/usr/xtensa/XtDevTools/install/builds/RI-2021.6-win32/Py_210123_eval/xtensa-elf/arch/lib/\libhandlers-board.a(int-handler-level2.o)
 .debug_aranges
                0x00000740       0x20 C:/usr/xtensa/XtDevTools/install/builds/RI-2021.6-win32/Py_210123_eval/xtensa-elf/arch/lib/\libhandlers-board.a(int-handler-level3.o)
 .debug_aranges
                0x00000760       0x20 C:/usr/xtensa/XtDevTools/install/builds/RI-2021.6-win32/Py_210123_eval/xtensa-elf/arch/lib/\libhandlers-board.a(debug-vector.o)
 .debug_aranges
                0x00000780       0x20 C:/usr/xtensa/XtDevTools/install/builds/RI-2021.6-win32/Py_210123_eval/xtensa-elf/arch/lib/\libhandlers-board.a(double-vector.o)
 .debug_aranges
                0x000007a0       0x20 C:/usr/xtensa/XtDevTools/install/builds/RI-2021.6-win32/Py_210123_eval/xtensa-elf/arch/lib/\libhandlers-board.a(kernel-vector.o)

.debug_pubnames
                0x00000000     0x5371
 *(.debug_pubnames)
 .debug_pubnames
                0x00000000       0x91 D:/PYRAMID_SW/dsp_trunk/tags/Sphinx_0p3/testing_app/system_integration/bin/Py_210123_eval/Release/dsp_verification.o
 .debug_pubnames
                0x00000091       0x68 D:/PYRAMID_SW/dsp_trunk/tags/Sphinx_0p3/testing_app/system_integration/bin/Py_210123_eval/Release/main.o
 .debug_pubnames
                0x000000f9       0xfd D:/PYRAMID_SW/dsp_trunk/tags/Sphinx_0p3/testing_app/system_integration/bin/Py_210123_eval/Release/src/dsp_bootloader.o
 .debug_pubnames
                0x000001f6      0x358 D:/PYRAMID_SW/dsp_trunk/tags/Sphinx_0p3/testing_app/system_integration/bin/Py_210123_eval/Release/src/dsp_cli_nfca_rx.o
 .debug_pubnames
                0x0000054e      0x229 D:/PYRAMID_SW/dsp_trunk/tags/Sphinx_0p3/testing_app/system_integration/bin/Py_210123_eval/Release/src/dsp_cli_nfca_tx.o
 .debug_pubnames
                0x00000777      0x130 D:/PYRAMID_SW/dsp_trunk/tags/Sphinx_0p3/testing_app/system_integration/bin/Py_210123_eval/Release/src/dsp_cli_nfcb_rx.o
 .debug_pubnames
                0x000008a7      0x15b D:/PYRAMID_SW/dsp_trunk/tags/Sphinx_0p3/testing_app/system_integration/bin/Py_210123_eval/Release/src/dsp_cli_nfcb_tx.o
 .debug_pubnames
                0x00000a02      0x14c D:/PYRAMID_SW/dsp_trunk/tags/Sphinx_0p3/testing_app/system_integration/bin/Py_210123_eval/Release/src/dsp_cli_nfcf_rx.o
 .debug_pubnames
                0x00000b4e      0x17a D:/PYRAMID_SW/dsp_trunk/tags/Sphinx_0p3/testing_app/system_integration/bin/Py_210123_eval/Release/src/dsp_cli_nfcf_tx.o
 .debug_pubnames
                0x00000cc8      0x112 D:/PYRAMID_SW/dsp_trunk/tags/Sphinx_0p3/testing_app/system_integration/bin/Py_210123_eval/Release/src/dsp_cli_nfcv_rx.o
 .debug_pubnames
                0x00000dda      0x18c D:/PYRAMID_SW/dsp_trunk/tags/Sphinx_0p3/testing_app/system_integration/bin/Py_210123_eval/Release/src/dsp_cli_nfcv_tx.o
 .debug_pubnames
                0x00000f66       0xd7 D:/PYRAMID_SW/dsp_trunk/tags/Sphinx_0p3/testing_app/system_integration/bin/Py_210123_eval/Release/src/dsp_cli_rx.o
 .debug_pubnames
                0x0000103d      0x125 D:/PYRAMID_SW/dsp_trunk/tags/Sphinx_0p3/testing_app/system_integration/bin/Py_210123_eval/Release/src/dsp_cli_tx.o
 .debug_pubnames
                0x00001162       0xdc D:/PYRAMID_SW/dsp_trunk/tags/Sphinx_0p3/testing_app/system_integration/bin/Py_210123_eval/Release/src/dsp_cli_utils.o
 .debug_pubnames
                0x0000123e      0x293 D:/PYRAMID_SW/dsp_trunk/tags/Sphinx_0p3/testing_app/system_integration/bin/Py_210123_eval/Release/src/dsp_cli_wind_lut.o
 .debug_pubnames
                0x000014d1      0x107 D:/PYRAMID_SW/dsp_trunk/tags/Sphinx_0p3/testing_app/system_integration/bin/Py_210123_eval/Release/src/dsp_dbg.o
 .debug_pubnames
                0x000015d8       0xeb D:/PYRAMID_SW/dsp_trunk/tags/Sphinx_0p3/testing_app/system_integration/bin/Py_210123_eval/Release/src/dsp_evnt_mngr.o
 .debug_pubnames
                0x000016c3       0xae D:/PYRAMID_SW/dsp_trunk/tags/Sphinx_0p3/testing_app/system_integration/bin/Py_210123_eval/Release/src/dsp_hal.o
 .debug_pubnames
                0x00001771       0x34 D:/PYRAMID_SW/dsp_trunk/tags/Sphinx_0p3/testing_app/system_integration/bin/Py_210123_eval/Release/src/dsp_hal_activetop.o
 .debug_pubnames
                0x000017a5      0x470 D:/PYRAMID_SW/dsp_trunk/tags/Sphinx_0p3/testing_app/system_integration/bin/Py_210123_eval/Release/src/dsp_hal_cli_top.o
 .debug_pubnames
                0x00001c15       0x78 D:/PYRAMID_SW/dsp_trunk/tags/Sphinx_0p3/testing_app/system_integration/bin/Py_210123_eval/Release/src/dsp_hal_dsp_top.o
 .debug_pubnames
                0x00001c8d       0xac D:/PYRAMID_SW/dsp_trunk/tags/Sphinx_0p3/testing_app/system_integration/bin/Py_210123_eval/Release/src/dsp_hal_fifo.o
 .debug_pubnames
                0x00001d39       0xbb D:/PYRAMID_SW/dsp_trunk/tags/Sphinx_0p3/testing_app/system_integration/bin/Py_210123_eval/Release/src/dsp_hal_hmb.o
 .debug_pubnames
                0x00001df4       0xb6 D:/PYRAMID_SW/dsp_trunk/tags/Sphinx_0p3/testing_app/system_integration/bin/Py_210123_eval/Release/src/dsp_hal_intr.o
 .debug_pubnames
                0x00001eaa       0x82 D:/PYRAMID_SW/dsp_trunk/tags/Sphinx_0p3/testing_app/system_integration/bin/Py_210123_eval/Release/src/dsp_hal_mdm_top.o
 .debug_pubnames
                0x00001f2c       0x79 D:/PYRAMID_SW/dsp_trunk/tags/Sphinx_0p3/testing_app/system_integration/bin/Py_210123_eval/Release/src/dsp_hal_sml1_top.o
 .debug_pubnames
                0x00001fa5      0x214 D:/PYRAMID_SW/dsp_trunk/tags/Sphinx_0p3/testing_app/system_integration/bin/Py_210123_eval/Release/src/dsp_hal_sml3.o
 .debug_pubnames
                0x000021b9      0x13f D:/PYRAMID_SW/dsp_trunk/tags/Sphinx_0p3/testing_app/system_integration/bin/Py_210123_eval/Release/src/dsp_hal_timer.o
 .debug_pubnames
                0x000022f8       0xf1 D:/PYRAMID_SW/dsp_trunk/tags/Sphinx_0p3/testing_app/system_integration/bin/Py_210123_eval/Release/src/dsp_intr_hndlr.o
 .debug_pubnames
                0x000023e9       0xfd D:/PYRAMID_SW/dsp_trunk/tags/Sphinx_0p3/testing_app/system_integration/bin/Py_210123_eval/Release/src/dsp_logs.o
 .debug_pubnames
                0x000024e6       0xfa D:/PYRAMID_SW/dsp_trunk/tags/Sphinx_0p3/testing_app/system_integration/bin/Py_210123_eval/Release/src/dsp_m0_common.o
 .debug_pubnames
                0x000025e0      0x1e0 D:/PYRAMID_SW/dsp_trunk/tags/Sphinx_0p3/testing_app/system_integration/bin/Py_210123_eval/Release/src/dsp_mngr.o
 .debug_pubnames
                0x000027c0       0x8b D:/PYRAMID_SW/dsp_trunk/tags/Sphinx_0p3/testing_app/system_integration/bin/Py_210123_eval/Release/src/dsp_sml0_apc.o
 .debug_pubnames
                0x0000284b       0x93 D:/PYRAMID_SW/dsp_trunk/tags/Sphinx_0p3/testing_app/system_integration/bin/Py_210123_eval/Release/src/dsp_sml0_lmac.o
 .debug_pubnames
                0x000028de       0xca D:/PYRAMID_SW/dsp_trunk/tags/Sphinx_0p3/testing_app/system_integration/bin/Py_210123_eval/Release/src/dsp_sml1.o
 .debug_pubnames
                0x000029a8      0x14b D:/PYRAMID_SW/dsp_trunk/tags/Sphinx_0p3/testing_app/system_integration/bin/Py_210123_eval/Release/src/dsp_sml1_dyn_reg.o
 .debug_pubnames
                0x00002af3      0x116 D:/PYRAMID_SW/dsp_trunk/tags/Sphinx_0p3/testing_app/system_integration/bin/Py_210123_eval/Release/src/dsp_sml1_pcm.o
 .debug_pubnames
                0x00002c09     0x17f7 D:/PYRAMID_SW/dsp_trunk/tags/Sphinx_0p3/testing_app/system_integration/bin/Py_210123_eval/Release/src/dsp_sml1_pcm_dyn_reg_lut.o
 .debug_pubnames
                0x00004400      0x28a D:/PYRAMID_SW/dsp_trunk/tags/Sphinx_0p3/testing_app/system_integration/bin/Py_210123_eval/Release/src/dsp_sml1_pcm_listener.o
 .debug_pubnames
                0x0000468a      0x1b6 D:/PYRAMID_SW/dsp_trunk/tags/Sphinx_0p3/testing_app/system_integration/bin/Py_210123_eval/Release/src/dsp_sml1_pcm_listener_user_ta.o
 .debug_pubnames
                0x00004840      0x267 D:/PYRAMID_SW/dsp_trunk/tags/Sphinx_0p3/testing_app/system_integration/bin/Py_210123_eval/Release/src/dsp_sml1_pcm_poller.o
 .debug_pubnames
                0x00004aa7      0x3ea D:/PYRAMID_SW/dsp_trunk/tags/Sphinx_0p3/testing_app/system_integration/bin/Py_210123_eval/Release/src/dsp_sml1_pcm_poller_user_ta.o
 .debug_pubnames
                0x00004e91       0xcb D:/PYRAMID_SW/dsp_trunk/tags/Sphinx_0p3/testing_app/system_integration/bin/Py_210123_eval/Release/src/dsp_sml1_user_ta_lut.o
 .debug_pubnames
                0x00004f5c       0x5f D:/PYRAMID_SW/dsp_trunk/tags/Sphinx_0p3/testing_app/system_integration/bin/Py_210123_eval/Release/test_10_loopbck_nfcv_rw.o
 .debug_pubnames
                0x00004fbb       0x5f D:/PYRAMID_SW/dsp_trunk/tags/Sphinx_0p3/testing_app/system_integration/bin/Py_210123_eval/Release/test_1_loopbck_nfcf_rw_std.o
 .debug_pubnames
                0x0000501a       0x5f D:/PYRAMID_SW/dsp_trunk/tags/Sphinx_0p3/testing_app/system_integration/bin/Py_210123_eval/Release/test_2_loopbck_nfcf_ce.o
 .debug_pubnames
                0x00005079       0x5f D:/PYRAMID_SW/dsp_trunk/tags/Sphinx_0p3/testing_app/system_integration/bin/Py_210123_eval/Release/test_3_loopbck_nfca_rw_std.o
 .debug_pubnames
                0x000050d8       0x5f D:/PYRAMID_SW/dsp_trunk/tags/Sphinx_0p3/testing_app/system_integration/bin/Py_210123_eval/Release/test_4_loopbck_nfca_ce.o
 .debug_pubnames
                0x00005137       0x5f D:/PYRAMID_SW/dsp_trunk/tags/Sphinx_0p3/testing_app/system_integration/bin/Py_210123_eval/Release/test_5_loopbck_nfca_rw_sdd.o
 .debug_pubnames
                0x00005196       0x5f D:/PYRAMID_SW/dsp_trunk/tags/Sphinx_0p3/testing_app/system_integration/bin/Py_210123_eval/Release/test_6_loopbck_nfca_ce_swp_intf.o
 .debug_pubnames
                0x000051f5       0x5f D:/PYRAMID_SW/dsp_trunk/tags/Sphinx_0p3/testing_app/system_integration/bin/Py_210123_eval/Release/test_7_loopbck_nfcb_rw.o
 .debug_pubnames
                0x00005254       0x5f D:/PYRAMID_SW/dsp_trunk/tags/Sphinx_0p3/testing_app/system_integration/bin/Py_210123_eval/Release/test_8_loopbck_nfcb_ce.o
 .debug_pubnames
                0x000052b3       0x5f D:/PYRAMID_SW/dsp_trunk/tags/Sphinx_0p3/testing_app/system_integration/bin/Py_210123_eval/Release/test_9_loopbck_nfca_rw_t1t.o
 .debug_pubnames
                0x00005312       0x5f D:/PYRAMID_SW/dsp_trunk/tags/Sphinx_0p3/testing_app/system_integration/bin/Py_210123_eval/Release/test_integration.o

.debug_info     0x00000000   0x515e7d
 *(.debug_info)
 .debug_info    0x00000000       0xd6 C:/usr/xtensa/XtDevTools/install/builds/RI-2021.6-win32/Py_210123_eval/xtensa-elf/arch/lib/crt1-tiny.o
 .debug_info    0x000000d6      0x273 D:/PYRAMID_SW/dsp_trunk/tags/Sphinx_0p3/testing_app/system_integration/bin/Py_210123_eval/Release/dsp_verification.o
 .debug_info    0x00000349     0xa3a4 D:/PYRAMID_SW/dsp_trunk/tags/Sphinx_0p3/testing_app/system_integration/bin/Py_210123_eval/Release/main.o
 .debug_info    0x0000a6ed    0x225a7 D:/PYRAMID_SW/dsp_trunk/tags/Sphinx_0p3/testing_app/system_integration/bin/Py_210123_eval/Release/src/dsp_bootloader.o
 .debug_info    0x0002cc94    0x13ae1 D:/PYRAMID_SW/dsp_trunk/tags/Sphinx_0p3/testing_app/system_integration/bin/Py_210123_eval/Release/src/dsp_cli_nfca_rx.o
 .debug_info    0x00040775    0x3383b D:/PYRAMID_SW/dsp_trunk/tags/Sphinx_0p3/testing_app/system_integration/bin/Py_210123_eval/Release/src/dsp_cli_nfca_tx.o
 .debug_info    0x00073fb0     0xbcd5 D:/PYRAMID_SW/dsp_trunk/tags/Sphinx_0p3/testing_app/system_integration/bin/Py_210123_eval/Release/src/dsp_cli_nfcb_rx.o
 .debug_info    0x0007fc85     0xbcfb D:/PYRAMID_SW/dsp_trunk/tags/Sphinx_0p3/testing_app/system_integration/bin/Py_210123_eval/Release/src/dsp_cli_nfcb_tx.o
 .debug_info    0x0008b980     0xbd6e D:/PYRAMID_SW/dsp_trunk/tags/Sphinx_0p3/testing_app/system_integration/bin/Py_210123_eval/Release/src/dsp_cli_nfcf_rx.o
 .debug_info    0x000976ee     0xbe69 D:/PYRAMID_SW/dsp_trunk/tags/Sphinx_0p3/testing_app/system_integration/bin/Py_210123_eval/Release/src/dsp_cli_nfcf_tx.o
 .debug_info    0x000a3557     0xbc84 D:/PYRAMID_SW/dsp_trunk/tags/Sphinx_0p3/testing_app/system_integration/bin/Py_210123_eval/Release/src/dsp_cli_nfcv_rx.o
 .debug_info    0x000af1db     0xbcef D:/PYRAMID_SW/dsp_trunk/tags/Sphinx_0p3/testing_app/system_integration/bin/Py_210123_eval/Release/src/dsp_cli_nfcv_tx.o
 .debug_info    0x000baeca     0xb9e2 D:/PYRAMID_SW/dsp_trunk/tags/Sphinx_0p3/testing_app/system_integration/bin/Py_210123_eval/Release/src/dsp_cli_rx.o
 .debug_info    0x000c68ac     0xda0c D:/PYRAMID_SW/dsp_trunk/tags/Sphinx_0p3/testing_app/system_integration/bin/Py_210123_eval/Release/src/dsp_cli_tx.o
 .debug_info    0x000d42b8     0x13d9 D:/PYRAMID_SW/dsp_trunk/tags/Sphinx_0p3/testing_app/system_integration/bin/Py_210123_eval/Release/src/dsp_cli_utils.o
 .debug_info    0x000d5691      0x4da D:/PYRAMID_SW/dsp_trunk/tags/Sphinx_0p3/testing_app/system_integration/bin/Py_210123_eval/Release/src/dsp_cli_wind_lut.o
 .debug_info    0x000d5b6b      0x2d8 D:/PYRAMID_SW/dsp_trunk/tags/Sphinx_0p3/testing_app/system_integration/bin/Py_210123_eval/Release/src/dsp_dbg.o
 .debug_info    0x000d5e43     0xa54a D:/PYRAMID_SW/dsp_trunk/tags/Sphinx_0p3/testing_app/system_integration/bin/Py_210123_eval/Release/src/dsp_evnt_mngr.o
 .debug_info    0x000e038d     0xfe77 D:/PYRAMID_SW/dsp_trunk/tags/Sphinx_0p3/testing_app/system_integration/bin/Py_210123_eval/Release/src/dsp_hal.o
 .debug_info    0x000f0204     0xdea0 D:/PYRAMID_SW/dsp_trunk/tags/Sphinx_0p3/testing_app/system_integration/bin/Py_210123_eval/Release/src/dsp_hal_activetop.o
 .debug_info    0x000fe0a4    0x1ebfa D:/PYRAMID_SW/dsp_trunk/tags/Sphinx_0p3/testing_app/system_integration/bin/Py_210123_eval/Release/src/dsp_hal_cli_top.o
 .debug_info    0x0011cc9e     0x5239 D:/PYRAMID_SW/dsp_trunk/tags/Sphinx_0p3/testing_app/system_integration/bin/Py_210123_eval/Release/src/dsp_hal_dsp_top.o
 .debug_info    0x00121ed7     0xa523 D:/PYRAMID_SW/dsp_trunk/tags/Sphinx_0p3/testing_app/system_integration/bin/Py_210123_eval/Release/src/dsp_hal_fifo.o
 .debug_info    0x0012c3fa     0xc1d3 D:/PYRAMID_SW/dsp_trunk/tags/Sphinx_0p3/testing_app/system_integration/bin/Py_210123_eval/Release/src/dsp_hal_hmb.o
 .debug_info    0x001385cd      0x43e D:/PYRAMID_SW/dsp_trunk/tags/Sphinx_0p3/testing_app/system_integration/bin/Py_210123_eval/Release/src/dsp_hal_intr.o
 .debug_info    0x00138a0b    0x64571 D:/PYRAMID_SW/dsp_trunk/tags/Sphinx_0p3/testing_app/system_integration/bin/Py_210123_eval/Release/src/dsp_hal_mdm_top.o
 .debug_info    0x0019cf7c     0xb94c D:/PYRAMID_SW/dsp_trunk/tags/Sphinx_0p3/testing_app/system_integration/bin/Py_210123_eval/Release/src/dsp_hal_sml1_top.o
 .debug_info    0x001a88c8    0x45600 D:/PYRAMID_SW/dsp_trunk/tags/Sphinx_0p3/testing_app/system_integration/bin/Py_210123_eval/Release/src/dsp_hal_sml3.o
 .debug_info    0x001edec8     0xb9b9 D:/PYRAMID_SW/dsp_trunk/tags/Sphinx_0p3/testing_app/system_integration/bin/Py_210123_eval/Release/src/dsp_hal_timer.o
 .debug_info    0x001f9881    0x59783 D:/PYRAMID_SW/dsp_trunk/tags/Sphinx_0p3/testing_app/system_integration/bin/Py_210123_eval/Release/src/dsp_intr_hndlr.o
 .debug_info    0x00253004     0x540b D:/PYRAMID_SW/dsp_trunk/tags/Sphinx_0p3/testing_app/system_integration/bin/Py_210123_eval/Release/src/dsp_logs.o
 .debug_info    0x0025840f     0x4352 D:/PYRAMID_SW/dsp_trunk/tags/Sphinx_0p3/testing_app/system_integration/bin/Py_210123_eval/Release/src/dsp_m0_common.o
 .debug_info    0x0025c761    0x42cf3 D:/PYRAMID_SW/dsp_trunk/tags/Sphinx_0p3/testing_app/system_integration/bin/Py_210123_eval/Release/src/dsp_mngr.o
 .debug_info    0x0029f454    0x37628 D:/PYRAMID_SW/dsp_trunk/tags/Sphinx_0p3/testing_app/system_integration/bin/Py_210123_eval/Release/src/dsp_sml0_apc.o
 .debug_info    0x002d6a7c    0x44915 D:/PYRAMID_SW/dsp_trunk/tags/Sphinx_0p3/testing_app/system_integration/bin/Py_210123_eval/Release/src/dsp_sml0_lmac.o
 .debug_info    0x0031b391     0xb9c5 D:/PYRAMID_SW/dsp_trunk/tags/Sphinx_0p3/testing_app/system_integration/bin/Py_210123_eval/Release/src/dsp_sml1.o
 .debug_info    0x00326d56    0x31823 D:/PYRAMID_SW/dsp_trunk/tags/Sphinx_0p3/testing_app/system_integration/bin/Py_210123_eval/Release/src/dsp_sml1_dyn_reg.o
 .debug_info    0x00358579    0x729c4 D:/PYRAMID_SW/dsp_trunk/tags/Sphinx_0p3/testing_app/system_integration/bin/Py_210123_eval/Release/src/dsp_sml1_pcm.o
 .debug_info    0x003caf3d     0x246f D:/PYRAMID_SW/dsp_trunk/tags/Sphinx_0p3/testing_app/system_integration/bin/Py_210123_eval/Release/src/dsp_sml1_pcm_dyn_reg_lut.o
 .debug_info    0x003cd3ac    0x7d498 D:/PYRAMID_SW/dsp_trunk/tags/Sphinx_0p3/testing_app/system_integration/bin/Py_210123_eval/Release/src/dsp_sml1_pcm_listener.o
 .debug_info    0x0044a844    0x31e06 D:/PYRAMID_SW/dsp_trunk/tags/Sphinx_0p3/testing_app/system_integration/bin/Py_210123_eval/Release/src/dsp_sml1_pcm_listener_user_ta.o
 .debug_info    0x0047c64a    0x4d37c D:/PYRAMID_SW/dsp_trunk/tags/Sphinx_0p3/testing_app/system_integration/bin/Py_210123_eval/Release/src/dsp_sml1_pcm_poller.o
 .debug_info    0x004c99c6    0x49a5b D:/PYRAMID_SW/dsp_trunk/tags/Sphinx_0p3/testing_app/system_integration/bin/Py_210123_eval/Release/src/dsp_sml1_pcm_poller_user_ta.o
 .debug_info    0x00513421      0x29f D:/PYRAMID_SW/dsp_trunk/tags/Sphinx_0p3/testing_app/system_integration/bin/Py_210123_eval/Release/src/dsp_sml1_user_ta_lut.o
 .debug_info    0x005136c0      0x1a4 D:/PYRAMID_SW/dsp_trunk/tags/Sphinx_0p3/testing_app/system_integration/bin/Py_210123_eval/Release/test_10_loopbck_nfcv_rw.o
 .debug_info    0x00513864      0x1a7 D:/PYRAMID_SW/dsp_trunk/tags/Sphinx_0p3/testing_app/system_integration/bin/Py_210123_eval/Release/test_1_loopbck_nfcf_rw_std.o
 .debug_info    0x00513a0b      0x1a3 D:/PYRAMID_SW/dsp_trunk/tags/Sphinx_0p3/testing_app/system_integration/bin/Py_210123_eval/Release/test_2_loopbck_nfcf_ce.o
 .debug_info    0x00513bae      0x1a7 D:/PYRAMID_SW/dsp_trunk/tags/Sphinx_0p3/testing_app/system_integration/bin/Py_210123_eval/Release/test_3_loopbck_nfca_rw_std.o
 .debug_info    0x00513d55      0x1a3 D:/PYRAMID_SW/dsp_trunk/tags/Sphinx_0p3/testing_app/system_integration/bin/Py_210123_eval/Release/test_4_loopbck_nfca_ce.o
 .debug_info    0x00513ef8      0x1a7 D:/PYRAMID_SW/dsp_trunk/tags/Sphinx_0p3/testing_app/system_integration/bin/Py_210123_eval/Release/test_5_loopbck_nfca_rw_sdd.o
 .debug_info    0x0051409f      0x1ac D:/PYRAMID_SW/dsp_trunk/tags/Sphinx_0p3/testing_app/system_integration/bin/Py_210123_eval/Release/test_6_loopbck_nfca_ce_swp_intf.o
 .debug_info    0x0051424b      0x1a3 D:/PYRAMID_SW/dsp_trunk/tags/Sphinx_0p3/testing_app/system_integration/bin/Py_210123_eval/Release/test_7_loopbck_nfcb_rw.o
 .debug_info    0x005143ee      0x1a3 D:/PYRAMID_SW/dsp_trunk/tags/Sphinx_0p3/testing_app/system_integration/bin/Py_210123_eval/Release/test_8_loopbck_nfcb_ce.o
 .debug_info    0x00514591      0x1a7 D:/PYRAMID_SW/dsp_trunk/tags/Sphinx_0p3/testing_app/system_integration/bin/Py_210123_eval/Release/test_9_loopbck_nfca_rw_t1t.o
 .debug_info    0x00514738      0x19d D:/PYRAMID_SW/dsp_trunk/tags/Sphinx_0p3/testing_app/system_integration/bin/Py_210123_eval/Release/test_integration.o
 .debug_info    0x005148d5       0xf2 C:/usr/xtensa/XtDevTools/install/builds/RI-2021.6-win32/Py_210123_eval/xtensa-elf/lib/xcc/\libgcc.a(_udivsi3.o)
 .debug_info    0x005149c7       0xe3 C:/usr/xtensa/XtDevTools/install/builds/RI-2021.6-win32/Py_210123_eval/xtensa-elf/arch/lib/\libhandler-reset-unpack.a(reset-vector-unpack.o)
 .debug_info    0x00514aaa       0xa6 C:/usr/xtensa/XtDevTools/install/builds/RI-2021.6-win32/Py_210123_eval/xtensa-elf/arch/lib/\libhandlers-board.a(xtos-interrupt-enable.o)
 .debug_info    0x00514b50      0x148 C:/usr/xtensa/XtDevTools/install/builds/RI-2021.6-win32/Py_210123_eval/xtensa-elf/arch/lib/\libhandlers-board.a(xtos-set-inthandler.o)
 .debug_info    0x00514c98       0xea C:/usr/xtensa/XtDevTools/install/builds/RI-2021.6-win32/Py_210123_eval/xtensa-elf/arch/lib/\libhandlers-board.a(xtos-set-exchandler.o)
 .debug_info    0x00514d82       0xe5 C:/usr/xtensa/XtDevTools/install/builds/RI-2021.6-win32/Py_210123_eval/xtensa-elf/arch/lib/\libhandlers-board.a(exc-syscall-handler.o)
 .debug_info    0x00514e67       0xdb C:/usr/xtensa/XtDevTools/install/builds/RI-2021.6-win32/Py_210123_eval/xtensa-elf/arch/lib/\libhandlers-board.a(exc-table.o)
 .debug_info    0x00514f42       0xe1 C:/usr/xtensa/XtDevTools/install/builds/RI-2021.6-win32/Py_210123_eval/xtensa-elf/arch/lib/\libhandlers-board.a(interrupt-table.o)
 .debug_info    0x00515023       0xdd C:/usr/xtensa/XtDevTools/install/builds/RI-2021.6-win32/Py_210123_eval/xtensa-elf/arch/lib/\libhandlers-board.a(user-vector.o)
 .debug_info    0x00515100       0xe7 C:/usr/xtensa/XtDevTools/install/builds/RI-2021.6-win32/Py_210123_eval/xtensa-elf/arch/lib/\libhandlers-board.a(exc-c-wrapper-handler.o)
 .debug_info    0x005151e7       0xdc C:/usr/xtensa/XtDevTools/install/builds/RI-2021.6-win32/Py_210123_eval/xtensa-elf/arch/lib/\libhandlers-board.a(exc-return.o)
 .debug_info    0x005152c3       0xe7 C:/usr/xtensa/XtDevTools/install/builds/RI-2021.6-win32/Py_210123_eval/xtensa-elf/arch/lib/\libhandlers-board.a(int-lowpri-dispatcher.o)
 .debug_info    0x005153aa       0xe0 C:/usr/xtensa/XtDevTools/install/builds/RI-2021.6-win32/Py_210123_eval/xtensa-elf/arch/lib/\libhandlers-board.a(window-vectors.o)
 .debug_info    0x0051548a       0xdf C:/usr/xtensa/XtDevTools/install/builds/RI-2021.6-win32/Py_210123_eval/xtensa-elf/arch/lib/\libhandlers-board.a(int-init-level1.o)
 .debug_info    0x00515569       0xdf C:/usr/xtensa/XtDevTools/install/builds/RI-2021.6-win32/Py_210123_eval/xtensa-elf/arch/lib/\libhandlers-board.a(int-init-level2.o)
 .debug_info    0x00515648       0xdf C:/usr/xtensa/XtDevTools/install/builds/RI-2021.6-win32/Py_210123_eval/xtensa-elf/arch/lib/\libhandlers-board.a(int-init-level3.o)
 .debug_info    0x00515727       0xdf C:/usr/xtensa/XtDevTools/install/builds/RI-2021.6-win32/Py_210123_eval/xtensa-elf/arch/lib/\libhandlers-board.a(exc-unhandled.o)
 .debug_info    0x00515806       0xdc C:/usr/xtensa/XtDevTools/install/builds/RI-2021.6-win32/Py_210123_eval/xtensa-elf/arch/lib/\libhandlers-board.a(int-vector-level2.o)
 .debug_info    0x005158e2       0xdc C:/usr/xtensa/XtDevTools/install/builds/RI-2021.6-win32/Py_210123_eval/xtensa-elf/arch/lib/\libhandlers-board.a(int-vector-level3.o)
 .debug_info    0x005159be       0xe7 C:/usr/xtensa/XtDevTools/install/builds/RI-2021.6-win32/Py_210123_eval/xtensa-elf/arch/lib/\libhandlers-board.a(int-handler-level2.o)
 .debug_info    0x00515aa5       0xe7 C:/usr/xtensa/XtDevTools/install/builds/RI-2021.6-win32/Py_210123_eval/xtensa-elf/arch/lib/\libhandlers-board.a(int-handler-level3.o)
 .debug_info    0x00515b8c       0xde C:/usr/xtensa/XtDevTools/install/builds/RI-2021.6-win32/Py_210123_eval/xtensa-elf/arch/lib/\libhandlers-board.a(debug-vector.o)
 .debug_info    0x00515c6a       0xda C:/usr/xtensa/XtDevTools/install/builds/RI-2021.6-win32/Py_210123_eval/xtensa-elf/arch/lib/\libhandlers-board.a(double-vector.o)
 .debug_info    0x00515d44       0xdf C:/usr/xtensa/XtDevTools/install/builds/RI-2021.6-win32/Py_210123_eval/xtensa-elf/arch/lib/\libhandlers-board.a(kernel-vector.o)
 .debug_info    0x00515e23       0x5a C:/usr/xtensa/XtDevTools/install/builds/RI-2021.6-win32/Py_210123_eval/xtensa-elf/arch/lib/\libhal.a(const--intlevel.o)

.debug_abbrev   0x00000000     0x50c4
 *(.debug_abbrev)
 .debug_abbrev  0x00000000       0x14 C:/usr/xtensa/XtDevTools/install/builds/RI-2021.6-win32/Py_210123_eval/xtensa-elf/arch/lib/crt1-tiny.o
 .debug_abbrev  0x00000014       0xd3 D:/PYRAMID_SW/dsp_trunk/tags/Sphinx_0p3/testing_app/system_integration/bin/Py_210123_eval/Release/dsp_verification.o
 .debug_abbrev  0x000000e7      0x133 D:/PYRAMID_SW/dsp_trunk/tags/Sphinx_0p3/testing_app/system_integration/bin/Py_210123_eval/Release/main.o
 .debug_abbrev  0x0000021a      0x1c9 D:/PYRAMID_SW/dsp_trunk/tags/Sphinx_0p3/testing_app/system_integration/bin/Py_210123_eval/Release/src/dsp_bootloader.o
 .debug_abbrev  0x000003e3      0x2dc D:/PYRAMID_SW/dsp_trunk/tags/Sphinx_0p3/testing_app/system_integration/bin/Py_210123_eval/Release/src/dsp_cli_nfca_rx.o
 .debug_abbrev  0x000006bf      0x272 D:/PYRAMID_SW/dsp_trunk/tags/Sphinx_0p3/testing_app/system_integration/bin/Py_210123_eval/Release/src/dsp_cli_nfca_tx.o
 .debug_abbrev  0x00000931      0x1eb D:/PYRAMID_SW/dsp_trunk/tags/Sphinx_0p3/testing_app/system_integration/bin/Py_210123_eval/Release/src/dsp_cli_nfcb_rx.o
 .debug_abbrev  0x00000b1c      0x1dd D:/PYRAMID_SW/dsp_trunk/tags/Sphinx_0p3/testing_app/system_integration/bin/Py_210123_eval/Release/src/dsp_cli_nfcb_tx.o
 .debug_abbrev  0x00000cf9      0x20f D:/PYRAMID_SW/dsp_trunk/tags/Sphinx_0p3/testing_app/system_integration/bin/Py_210123_eval/Release/src/dsp_cli_nfcf_rx.o
 .debug_abbrev  0x00000f08      0x232 D:/PYRAMID_SW/dsp_trunk/tags/Sphinx_0p3/testing_app/system_integration/bin/Py_210123_eval/Release/src/dsp_cli_nfcf_tx.o
 .debug_abbrev  0x0000113a      0x1eb D:/PYRAMID_SW/dsp_trunk/tags/Sphinx_0p3/testing_app/system_integration/bin/Py_210123_eval/Release/src/dsp_cli_nfcv_rx.o
 .debug_abbrev  0x00001325      0x1dd D:/PYRAMID_SW/dsp_trunk/tags/Sphinx_0p3/testing_app/system_integration/bin/Py_210123_eval/Release/src/dsp_cli_nfcv_tx.o
 .debug_abbrev  0x00001502      0x1e0 D:/PYRAMID_SW/dsp_trunk/tags/Sphinx_0p3/testing_app/system_integration/bin/Py_210123_eval/Release/src/dsp_cli_rx.o
 .debug_abbrev  0x000016e2      0x220 D:/PYRAMID_SW/dsp_trunk/tags/Sphinx_0p3/testing_app/system_integration/bin/Py_210123_eval/Release/src/dsp_cli_tx.o
 .debug_abbrev  0x00001902      0x123 D:/PYRAMID_SW/dsp_trunk/tags/Sphinx_0p3/testing_app/system_integration/bin/Py_210123_eval/Release/src/dsp_cli_utils.o
 .debug_abbrev  0x00001a25       0x6e D:/PYRAMID_SW/dsp_trunk/tags/Sphinx_0p3/testing_app/system_integration/bin/Py_210123_eval/Release/src/dsp_cli_wind_lut.o
 .debug_abbrev  0x00001a93       0x81 D:/PYRAMID_SW/dsp_trunk/tags/Sphinx_0p3/testing_app/system_integration/bin/Py_210123_eval/Release/src/dsp_dbg.o
 .debug_abbrev  0x00001b14      0x196 D:/PYRAMID_SW/dsp_trunk/tags/Sphinx_0p3/testing_app/system_integration/bin/Py_210123_eval/Release/src/dsp_evnt_mngr.o
 .debug_abbrev  0x00001caa      0x1e7 D:/PYRAMID_SW/dsp_trunk/tags/Sphinx_0p3/testing_app/system_integration/bin/Py_210123_eval/Release/src/dsp_hal.o
 .debug_abbrev  0x00001e91       0xa0 D:/PYRAMID_SW/dsp_trunk/tags/Sphinx_0p3/testing_app/system_integration/bin/Py_210123_eval/Release/src/dsp_hal_activetop.o
 .debug_abbrev  0x00001f31      0x2b2 D:/PYRAMID_SW/dsp_trunk/tags/Sphinx_0p3/testing_app/system_integration/bin/Py_210123_eval/Release/src/dsp_hal_cli_top.o
 .debug_abbrev  0x000021e3       0xd4 D:/PYRAMID_SW/dsp_trunk/tags/Sphinx_0p3/testing_app/system_integration/bin/Py_210123_eval/Release/src/dsp_hal_dsp_top.o
 .debug_abbrev  0x000022b7      0x1a0 D:/PYRAMID_SW/dsp_trunk/tags/Sphinx_0p3/testing_app/system_integration/bin/Py_210123_eval/Release/src/dsp_hal_fifo.o
 .debug_abbrev  0x00002457      0x1a9 D:/PYRAMID_SW/dsp_trunk/tags/Sphinx_0p3/testing_app/system_integration/bin/Py_210123_eval/Release/src/dsp_hal_hmb.o
 .debug_abbrev  0x00002600       0xee D:/PYRAMID_SW/dsp_trunk/tags/Sphinx_0p3/testing_app/system_integration/bin/Py_210123_eval/Release/src/dsp_hal_intr.o
 .debug_abbrev  0x000026ee      0x1b5 D:/PYRAMID_SW/dsp_trunk/tags/Sphinx_0p3/testing_app/system_integration/bin/Py_210123_eval/Release/src/dsp_hal_mdm_top.o
 .debug_abbrev  0x000028a3      0x18f D:/PYRAMID_SW/dsp_trunk/tags/Sphinx_0p3/testing_app/system_integration/bin/Py_210123_eval/Release/src/dsp_hal_sml1_top.o
 .debug_abbrev  0x00002a32      0x1f6 D:/PYRAMID_SW/dsp_trunk/tags/Sphinx_0p3/testing_app/system_integration/bin/Py_210123_eval/Release/src/dsp_hal_sml3.o
 .debug_abbrev  0x00002c28      0x1e2 D:/PYRAMID_SW/dsp_trunk/tags/Sphinx_0p3/testing_app/system_integration/bin/Py_210123_eval/Release/src/dsp_hal_timer.o
 .debug_abbrev  0x00002e0a      0x1a6 D:/PYRAMID_SW/dsp_trunk/tags/Sphinx_0p3/testing_app/system_integration/bin/Py_210123_eval/Release/src/dsp_intr_hndlr.o
 .debug_abbrev  0x00002fb0      0x1b2 D:/PYRAMID_SW/dsp_trunk/tags/Sphinx_0p3/testing_app/system_integration/bin/Py_210123_eval/Release/src/dsp_logs.o
 .debug_abbrev  0x00003162      0x186 D:/PYRAMID_SW/dsp_trunk/tags/Sphinx_0p3/testing_app/system_integration/bin/Py_210123_eval/Release/src/dsp_m0_common.o
 .debug_abbrev  0x000032e8      0x1fb D:/PYRAMID_SW/dsp_trunk/tags/Sphinx_0p3/testing_app/system_integration/bin/Py_210123_eval/Release/src/dsp_mngr.o
 .debug_abbrev  0x000034e3      0x1a5 D:/PYRAMID_SW/dsp_trunk/tags/Sphinx_0p3/testing_app/system_integration/bin/Py_210123_eval/Release/src/dsp_sml0_apc.o
 .debug_abbrev  0x00003688      0x193 D:/PYRAMID_SW/dsp_trunk/tags/Sphinx_0p3/testing_app/system_integration/bin/Py_210123_eval/Release/src/dsp_sml0_lmac.o
 .debug_abbrev  0x0000381b      0x1ba D:/PYRAMID_SW/dsp_trunk/tags/Sphinx_0p3/testing_app/system_integration/bin/Py_210123_eval/Release/src/dsp_sml1.o
 .debug_abbrev  0x000039d5      0x264 D:/PYRAMID_SW/dsp_trunk/tags/Sphinx_0p3/testing_app/system_integration/bin/Py_210123_eval/Release/src/dsp_sml1_dyn_reg.o
 .debug_abbrev  0x00003c39      0x1d2 D:/PYRAMID_SW/dsp_trunk/tags/Sphinx_0p3/testing_app/system_integration/bin/Py_210123_eval/Release/src/dsp_sml1_pcm.o
 .debug_abbrev  0x00003e0b       0xa5 D:/PYRAMID_SW/dsp_trunk/tags/Sphinx_0p3/testing_app/system_integration/bin/Py_210123_eval/Release/src/dsp_sml1_pcm_dyn_reg_lut.o
 .debug_abbrev  0x00003eb0      0x287 D:/PYRAMID_SW/dsp_trunk/tags/Sphinx_0p3/testing_app/system_integration/bin/Py_210123_eval/Release/src/dsp_sml1_pcm_listener.o
 .debug_abbrev  0x00004137      0x280 D:/PYRAMID_SW/dsp_trunk/tags/Sphinx_0p3/testing_app/system_integration/bin/Py_210123_eval/Release/src/dsp_sml1_pcm_listener_user_ta.o
 .debug_abbrev  0x000043b7      0x23d D:/PYRAMID_SW/dsp_trunk/tags/Sphinx_0p3/testing_app/system_integration/bin/Py_210123_eval/Release/src/dsp_sml1_pcm_poller.o
 .debug_abbrev  0x000045f4      0x34f D:/PYRAMID_SW/dsp_trunk/tags/Sphinx_0p3/testing_app/system_integration/bin/Py_210123_eval/Release/src/dsp_sml1_pcm_poller_user_ta.o
 .debug_abbrev  0x00004943       0x86 D:/PYRAMID_SW/dsp_trunk/tags/Sphinx_0p3/testing_app/system_integration/bin/Py_210123_eval/Release/src/dsp_sml1_user_ta_lut.o
 .debug_abbrev  0x000049c9       0x49 D:/PYRAMID_SW/dsp_trunk/tags/Sphinx_0p3/testing_app/system_integration/bin/Py_210123_eval/Release/test_10_loopbck_nfcv_rw.o
 .debug_abbrev  0x00004a12       0x49 D:/PYRAMID_SW/dsp_trunk/tags/Sphinx_0p3/testing_app/system_integration/bin/Py_210123_eval/Release/test_1_loopbck_nfcf_rw_std.o
 .debug_abbrev  0x00004a5b       0x49 D:/PYRAMID_SW/dsp_trunk/tags/Sphinx_0p3/testing_app/system_integration/bin/Py_210123_eval/Release/test_2_loopbck_nfcf_ce.o
 .debug_abbrev  0x00004aa4       0x49 D:/PYRAMID_SW/dsp_trunk/tags/Sphinx_0p3/testing_app/system_integration/bin/Py_210123_eval/Release/test_3_loopbck_nfca_rw_std.o
 .debug_abbrev  0x00004aed       0x49 D:/PYRAMID_SW/dsp_trunk/tags/Sphinx_0p3/testing_app/system_integration/bin/Py_210123_eval/Release/test_4_loopbck_nfca_ce.o
 .debug_abbrev  0x00004b36       0x49 D:/PYRAMID_SW/dsp_trunk/tags/Sphinx_0p3/testing_app/system_integration/bin/Py_210123_eval/Release/test_5_loopbck_nfca_rw_sdd.o
 .debug_abbrev  0x00004b7f       0x49 D:/PYRAMID_SW/dsp_trunk/tags/Sphinx_0p3/testing_app/system_integration/bin/Py_210123_eval/Release/test_6_loopbck_nfca_ce_swp_intf.o
 .debug_abbrev  0x00004bc8       0x49 D:/PYRAMID_SW/dsp_trunk/tags/Sphinx_0p3/testing_app/system_integration/bin/Py_210123_eval/Release/test_7_loopbck_nfcb_rw.o
 .debug_abbrev  0x00004c11       0x49 D:/PYRAMID_SW/dsp_trunk/tags/Sphinx_0p3/testing_app/system_integration/bin/Py_210123_eval/Release/test_8_loopbck_nfcb_ce.o
 .debug_abbrev  0x00004c5a       0x49 D:/PYRAMID_SW/dsp_trunk/tags/Sphinx_0p3/testing_app/system_integration/bin/Py_210123_eval/Release/test_9_loopbck_nfca_rw_t1t.o
 .debug_abbrev  0x00004ca3       0x49 D:/PYRAMID_SW/dsp_trunk/tags/Sphinx_0p3/testing_app/system_integration/bin/Py_210123_eval/Release/test_integration.o
 .debug_abbrev  0x00004cec       0x14 C:/usr/xtensa/XtDevTools/install/builds/RI-2021.6-win32/Py_210123_eval/xtensa-elf/lib/xcc/\libgcc.a(_udivsi3.o)
 .debug_abbrev  0x00004d00       0x14 C:/usr/xtensa/XtDevTools/install/builds/RI-2021.6-win32/Py_210123_eval/xtensa-elf/arch/lib/\libhandler-reset-unpack.a(reset-vector-unpack.o)
 .debug_abbrev  0x00004d14       0x71 C:/usr/xtensa/XtDevTools/install/builds/RI-2021.6-win32/Py_210123_eval/xtensa-elf/arch/lib/\libhandlers-board.a(xtos-interrupt-enable.o)
 .debug_abbrev  0x00004d85       0xce C:/usr/xtensa/XtDevTools/install/builds/RI-2021.6-win32/Py_210123_eval/xtensa-elf/arch/lib/\libhandlers-board.a(xtos-set-inthandler.o)
 .debug_abbrev  0x00004e53       0x9a C:/usr/xtensa/XtDevTools/install/builds/RI-2021.6-win32/Py_210123_eval/xtensa-elf/arch/lib/\libhandlers-board.a(xtos-set-exchandler.o)
 .debug_abbrev  0x00004eed       0x14 C:/usr/xtensa/XtDevTools/install/builds/RI-2021.6-win32/Py_210123_eval/xtensa-elf/arch/lib/\libhandlers-board.a(exc-syscall-handler.o)
 .debug_abbrev  0x00004f01       0x14 C:/usr/xtensa/XtDevTools/install/builds/RI-2021.6-win32/Py_210123_eval/xtensa-elf/arch/lib/\libhandlers-board.a(exc-table.o)
 .debug_abbrev  0x00004f15       0x14 C:/usr/xtensa/XtDevTools/install/builds/RI-2021.6-win32/Py_210123_eval/xtensa-elf/arch/lib/\libhandlers-board.a(interrupt-table.o)
 .debug_abbrev  0x00004f29       0x14 C:/usr/xtensa/XtDevTools/install/builds/RI-2021.6-win32/Py_210123_eval/xtensa-elf/arch/lib/\libhandlers-board.a(user-vector.o)
 .debug_abbrev  0x00004f3d       0x14 C:/usr/xtensa/XtDevTools/install/builds/RI-2021.6-win32/Py_210123_eval/xtensa-elf/arch/lib/\libhandlers-board.a(exc-c-wrapper-handler.o)
 .debug_abbrev  0x00004f51       0x14 C:/usr/xtensa/XtDevTools/install/builds/RI-2021.6-win32/Py_210123_eval/xtensa-elf/arch/lib/\libhandlers-board.a(exc-return.o)
 .debug_abbrev  0x00004f65       0x14 C:/usr/xtensa/XtDevTools/install/builds/RI-2021.6-win32/Py_210123_eval/xtensa-elf/arch/lib/\libhandlers-board.a(int-lowpri-dispatcher.o)
 .debug_abbrev  0x00004f79       0x14 C:/usr/xtensa/XtDevTools/install/builds/RI-2021.6-win32/Py_210123_eval/xtensa-elf/arch/lib/\libhandlers-board.a(window-vectors.o)
 .debug_abbrev  0x00004f8d       0x14 C:/usr/xtensa/XtDevTools/install/builds/RI-2021.6-win32/Py_210123_eval/xtensa-elf/arch/lib/\libhandlers-board.a(int-init-level1.o)
 .debug_abbrev  0x00004fa1       0x14 C:/usr/xtensa/XtDevTools/install/builds/RI-2021.6-win32/Py_210123_eval/xtensa-elf/arch/lib/\libhandlers-board.a(int-init-level2.o)
 .debug_abbrev  0x00004fb5       0x14 C:/usr/xtensa/XtDevTools/install/builds/RI-2021.6-win32/Py_210123_eval/xtensa-elf/arch/lib/\libhandlers-board.a(int-init-level3.o)
 .debug_abbrev  0x00004fc9       0x14 C:/usr/xtensa/XtDevTools/install/builds/RI-2021.6-win32/Py_210123_eval/xtensa-elf/arch/lib/\libhandlers-board.a(exc-unhandled.o)
 .debug_abbrev  0x00004fdd       0x14 C:/usr/xtensa/XtDevTools/install/builds/RI-2021.6-win32/Py_210123_eval/xtensa-elf/arch/lib/\libhandlers-board.a(int-vector-level2.o)
 .debug_abbrev  0x00004ff1       0x14 C:/usr/xtensa/XtDevTools/install/builds/RI-2021.6-win32/Py_210123_eval/xtensa-elf/arch/lib/\libhandlers-board.a(int-vector-level3.o)
 .debug_abbrev  0x00005005       0x14 C:/usr/xtensa/XtDevTools/install/builds/RI-2021.6-win32/Py_210123_eval/xtensa-elf/arch/lib/\libhandlers-board.a(int-handler-level2.o)
 .debug_abbrev  0x00005019       0x14 C:/usr/xtensa/XtDevTools/install/builds/RI-2021.6-win32/Py_210123_eval/xtensa-elf/arch/lib/\libhandlers-board.a(int-handler-level3.o)
 .debug_abbrev  0x0000502d       0x14 C:/usr/xtensa/XtDevTools/install/builds/RI-2021.6-win32/Py_210123_eval/xtensa-elf/arch/lib/\libhandlers-board.a(debug-vector.o)
 .debug_abbrev  0x00005041       0x14 C:/usr/xtensa/XtDevTools/install/builds/RI-2021.6-win32/Py_210123_eval/xtensa-elf/arch/lib/\libhandlers-board.a(double-vector.o)
 .debug_abbrev  0x00005055       0x14 C:/usr/xtensa/XtDevTools/install/builds/RI-2021.6-win32/Py_210123_eval/xtensa-elf/arch/lib/\libhandlers-board.a(kernel-vector.o)
 .debug_abbrev  0x00005069       0x5b C:/usr/xtensa/XtDevTools/install/builds/RI-2021.6-win32/Py_210123_eval/xtensa-elf/arch/lib/\libhal.a(const--intlevel.o)

.debug_line     0x00000000    0x123f1
 *(.debug_line)
 .debug_line    0x00000000       0xe3 C:/usr/xtensa/XtDevTools/install/builds/RI-2021.6-win32/Py_210123_eval/xtensa-elf/arch/lib/crt1-tiny.o
 .debug_line    0x000000e3      0x1ce D:/PYRAMID_SW/dsp_trunk/tags/Sphinx_0p3/testing_app/system_integration/bin/Py_210123_eval/Release/dsp_verification.o
 .debug_line    0x000002b1      0x1b1 D:/PYRAMID_SW/dsp_trunk/tags/Sphinx_0p3/testing_app/system_integration/bin/Py_210123_eval/Release/main.o
 .debug_line    0x00000462      0x23c D:/PYRAMID_SW/dsp_trunk/tags/Sphinx_0p3/testing_app/system_integration/bin/Py_210123_eval/Release/src/dsp_bootloader.o
 .debug_line    0x0000069e     0x12ce D:/PYRAMID_SW/dsp_trunk/tags/Sphinx_0p3/testing_app/system_integration/bin/Py_210123_eval/Release/src/dsp_cli_nfca_rx.o
 .debug_line    0x0000196c      0xd85 D:/PYRAMID_SW/dsp_trunk/tags/Sphinx_0p3/testing_app/system_integration/bin/Py_210123_eval/Release/src/dsp_cli_nfca_tx.o
 .debug_line    0x000026f1      0x70d D:/PYRAMID_SW/dsp_trunk/tags/Sphinx_0p3/testing_app/system_integration/bin/Py_210123_eval/Release/src/dsp_cli_nfcb_rx.o
 .debug_line    0x00002dfe      0x5d4 D:/PYRAMID_SW/dsp_trunk/tags/Sphinx_0p3/testing_app/system_integration/bin/Py_210123_eval/Release/src/dsp_cli_nfcb_tx.o
 .debug_line    0x000033d2      0xac9 D:/PYRAMID_SW/dsp_trunk/tags/Sphinx_0p3/testing_app/system_integration/bin/Py_210123_eval/Release/src/dsp_cli_nfcf_rx.o
 .debug_line    0x00003e9b      0x662 D:/PYRAMID_SW/dsp_trunk/tags/Sphinx_0p3/testing_app/system_integration/bin/Py_210123_eval/Release/src/dsp_cli_nfcf_tx.o
 .debug_line    0x000044fd      0x4d7 D:/PYRAMID_SW/dsp_trunk/tags/Sphinx_0p3/testing_app/system_integration/bin/Py_210123_eval/Release/src/dsp_cli_nfcv_rx.o
 .debug_line    0x000049d4      0x4e8 D:/PYRAMID_SW/dsp_trunk/tags/Sphinx_0p3/testing_app/system_integration/bin/Py_210123_eval/Release/src/dsp_cli_nfcv_tx.o
 .debug_line    0x00004ebc      0x410 D:/PYRAMID_SW/dsp_trunk/tags/Sphinx_0p3/testing_app/system_integration/bin/Py_210123_eval/Release/src/dsp_cli_rx.o
 .debug_line    0x000052cc      0x6f6 D:/PYRAMID_SW/dsp_trunk/tags/Sphinx_0p3/testing_app/system_integration/bin/Py_210123_eval/Release/src/dsp_cli_tx.o
 .debug_line    0x000059c2      0x1aa D:/PYRAMID_SW/dsp_trunk/tags/Sphinx_0p3/testing_app/system_integration/bin/Py_210123_eval/Release/src/dsp_cli_utils.o
 .debug_line    0x00005b6c       0x5f D:/PYRAMID_SW/dsp_trunk/tags/Sphinx_0p3/testing_app/system_integration/bin/Py_210123_eval/Release/src/dsp_cli_wind_lut.o
 .debug_line    0x00005bcb      0x214 D:/PYRAMID_SW/dsp_trunk/tags/Sphinx_0p3/testing_app/system_integration/bin/Py_210123_eval/Release/src/dsp_dbg.o
 .debug_line    0x00005ddf      0x228 D:/PYRAMID_SW/dsp_trunk/tags/Sphinx_0p3/testing_app/system_integration/bin/Py_210123_eval/Release/src/dsp_evnt_mngr.o
 .debug_line    0x00006007      0x2e9 D:/PYRAMID_SW/dsp_trunk/tags/Sphinx_0p3/testing_app/system_integration/bin/Py_210123_eval/Release/src/dsp_hal.o
 .debug_line    0x000062f0       0x82 D:/PYRAMID_SW/dsp_trunk/tags/Sphinx_0p3/testing_app/system_integration/bin/Py_210123_eval/Release/src/dsp_hal_activetop.o
 .debug_line    0x00006372      0x7d0 D:/PYRAMID_SW/dsp_trunk/tags/Sphinx_0p3/testing_app/system_integration/bin/Py_210123_eval/Release/src/dsp_hal_cli_top.o
 .debug_line    0x00006b42      0x19a D:/PYRAMID_SW/dsp_trunk/tags/Sphinx_0p3/testing_app/system_integration/bin/Py_210123_eval/Release/src/dsp_hal_dsp_top.o
 .debug_line    0x00006cdc      0x1eb D:/PYRAMID_SW/dsp_trunk/tags/Sphinx_0p3/testing_app/system_integration/bin/Py_210123_eval/Release/src/dsp_hal_fifo.o
 .debug_line    0x00006ec7      0x30a D:/PYRAMID_SW/dsp_trunk/tags/Sphinx_0p3/testing_app/system_integration/bin/Py_210123_eval/Release/src/dsp_hal_hmb.o
 .debug_line    0x000071d1      0x1c7 D:/PYRAMID_SW/dsp_trunk/tags/Sphinx_0p3/testing_app/system_integration/bin/Py_210123_eval/Release/src/dsp_hal_intr.o
 .debug_line    0x00007398      0x3bf D:/PYRAMID_SW/dsp_trunk/tags/Sphinx_0p3/testing_app/system_integration/bin/Py_210123_eval/Release/src/dsp_hal_mdm_top.o
 .debug_line    0x00007757      0x1ef D:/PYRAMID_SW/dsp_trunk/tags/Sphinx_0p3/testing_app/system_integration/bin/Py_210123_eval/Release/src/dsp_hal_sml1_top.o
 .debug_line    0x00007946      0x3d1 D:/PYRAMID_SW/dsp_trunk/tags/Sphinx_0p3/testing_app/system_integration/bin/Py_210123_eval/Release/src/dsp_hal_sml3.o
 .debug_line    0x00007d17      0x4b8 D:/PYRAMID_SW/dsp_trunk/tags/Sphinx_0p3/testing_app/system_integration/bin/Py_210123_eval/Release/src/dsp_hal_timer.o
 .debug_line    0x000081cf      0x458 D:/PYRAMID_SW/dsp_trunk/tags/Sphinx_0p3/testing_app/system_integration/bin/Py_210123_eval/Release/src/dsp_intr_hndlr.o
 .debug_line    0x00008627      0x2c5 D:/PYRAMID_SW/dsp_trunk/tags/Sphinx_0p3/testing_app/system_integration/bin/Py_210123_eval/Release/src/dsp_logs.o
 .debug_line    0x000088ec      0x1c2 D:/PYRAMID_SW/dsp_trunk/tags/Sphinx_0p3/testing_app/system_integration/bin/Py_210123_eval/Release/src/dsp_m0_common.o
 .debug_line    0x00008aae      0x72f D:/PYRAMID_SW/dsp_trunk/tags/Sphinx_0p3/testing_app/system_integration/bin/Py_210123_eval/Release/src/dsp_mngr.o
 .debug_line    0x000091dd      0x3b7 D:/PYRAMID_SW/dsp_trunk/tags/Sphinx_0p3/testing_app/system_integration/bin/Py_210123_eval/Release/src/dsp_sml0_apc.o
 .debug_line    0x00009594      0x37d D:/PYRAMID_SW/dsp_trunk/tags/Sphinx_0p3/testing_app/system_integration/bin/Py_210123_eval/Release/src/dsp_sml0_lmac.o
 .debug_line    0x00009911      0x229 D:/PYRAMID_SW/dsp_trunk/tags/Sphinx_0p3/testing_app/system_integration/bin/Py_210123_eval/Release/src/dsp_sml1.o
 .debug_line    0x00009b3a      0x6e5 D:/PYRAMID_SW/dsp_trunk/tags/Sphinx_0p3/testing_app/system_integration/bin/Py_210123_eval/Release/src/dsp_sml1_dyn_reg.o
 .debug_line    0x0000a21f      0x610 D:/PYRAMID_SW/dsp_trunk/tags/Sphinx_0p3/testing_app/system_integration/bin/Py_210123_eval/Release/src/dsp_sml1_pcm.o
 .debug_line    0x0000a82f      0x175 D:/PYRAMID_SW/dsp_trunk/tags/Sphinx_0p3/testing_app/system_integration/bin/Py_210123_eval/Release/src/dsp_sml1_pcm_dyn_reg_lut.o
 .debug_line    0x0000a9a4     0x1273 D:/PYRAMID_SW/dsp_trunk/tags/Sphinx_0p3/testing_app/system_integration/bin/Py_210123_eval/Release/src/dsp_sml1_pcm_listener.o
 .debug_line    0x0000bc17      0xe52 D:/PYRAMID_SW/dsp_trunk/tags/Sphinx_0p3/testing_app/system_integration/bin/Py_210123_eval/Release/src/dsp_sml1_pcm_listener_user_ta.o
 .debug_line    0x0000ca69      0xfb8 D:/PYRAMID_SW/dsp_trunk/tags/Sphinx_0p3/testing_app/system_integration/bin/Py_210123_eval/Release/src/dsp_sml1_pcm_poller.o
 .debug_line    0x0000da21     0x18bc D:/PYRAMID_SW/dsp_trunk/tags/Sphinx_0p3/testing_app/system_integration/bin/Py_210123_eval/Release/src/dsp_sml1_pcm_poller_user_ta.o
 .debug_line    0x0000f2dd      0x171 D:/PYRAMID_SW/dsp_trunk/tags/Sphinx_0p3/testing_app/system_integration/bin/Py_210123_eval/Release/src/dsp_sml1_user_ta_lut.o
 .debug_line    0x0000f44e      0x18f D:/PYRAMID_SW/dsp_trunk/tags/Sphinx_0p3/testing_app/system_integration/bin/Py_210123_eval/Release/test_10_loopbck_nfcv_rw.o
 .debug_line    0x0000f5dd      0x192 D:/PYRAMID_SW/dsp_trunk/tags/Sphinx_0p3/testing_app/system_integration/bin/Py_210123_eval/Release/test_1_loopbck_nfcf_rw_std.o
 .debug_line    0x0000f76f      0x18e D:/PYRAMID_SW/dsp_trunk/tags/Sphinx_0p3/testing_app/system_integration/bin/Py_210123_eval/Release/test_2_loopbck_nfcf_ce.o
 .debug_line    0x0000f8fd      0x192 D:/PYRAMID_SW/dsp_trunk/tags/Sphinx_0p3/testing_app/system_integration/bin/Py_210123_eval/Release/test_3_loopbck_nfca_rw_std.o
 .debug_line    0x0000fa8f      0x18e D:/PYRAMID_SW/dsp_trunk/tags/Sphinx_0p3/testing_app/system_integration/bin/Py_210123_eval/Release/test_4_loopbck_nfca_ce.o
 .debug_line    0x0000fc1d      0x192 D:/PYRAMID_SW/dsp_trunk/tags/Sphinx_0p3/testing_app/system_integration/bin/Py_210123_eval/Release/test_5_loopbck_nfca_rw_sdd.o
 .debug_line    0x0000fdaf      0x197 D:/PYRAMID_SW/dsp_trunk/tags/Sphinx_0p3/testing_app/system_integration/bin/Py_210123_eval/Release/test_6_loopbck_nfca_ce_swp_intf.o
 .debug_line    0x0000ff46      0x18e D:/PYRAMID_SW/dsp_trunk/tags/Sphinx_0p3/testing_app/system_integration/bin/Py_210123_eval/Release/test_7_loopbck_nfcb_rw.o
 .debug_line    0x000100d4      0x18e D:/PYRAMID_SW/dsp_trunk/tags/Sphinx_0p3/testing_app/system_integration/bin/Py_210123_eval/Release/test_8_loopbck_nfcb_ce.o
 .debug_line    0x00010262      0x192 D:/PYRAMID_SW/dsp_trunk/tags/Sphinx_0p3/testing_app/system_integration/bin/Py_210123_eval/Release/test_9_loopbck_nfca_rw_t1t.o
 .debug_line    0x000103f4      0x188 D:/PYRAMID_SW/dsp_trunk/tags/Sphinx_0p3/testing_app/system_integration/bin/Py_210123_eval/Release/test_integration.o
 .debug_line    0x0001057c      0x123 C:/usr/xtensa/XtDevTools/install/builds/RI-2021.6-win32/Py_210123_eval/xtensa-elf/lib/xcc/\libgcc.a(_udivsi3.o)
 .debug_line    0x0001069f      0x17d C:/usr/xtensa/XtDevTools/install/builds/RI-2021.6-win32/Py_210123_eval/xtensa-elf/arch/lib/\libhandler-reset-unpack.a(reset-vector-unpack.o)
 .debug_line    0x0001081c      0x20c C:/usr/xtensa/XtDevTools/install/builds/RI-2021.6-win32/Py_210123_eval/xtensa-elf/arch/lib/\libhandlers-board.a(xtos-interrupt-enable.o)
 .debug_line    0x00010a28      0x27b C:/usr/xtensa/XtDevTools/install/builds/RI-2021.6-win32/Py_210123_eval/xtensa-elf/arch/lib/\libhandlers-board.a(xtos-set-inthandler.o)
 .debug_line    0x00010ca3      0x258 C:/usr/xtensa/XtDevTools/install/builds/RI-2021.6-win32/Py_210123_eval/xtensa-elf/arch/lib/\libhandlers-board.a(xtos-set-exchandler.o)
 .debug_line    0x00010efb      0x1b8 C:/usr/xtensa/XtDevTools/install/builds/RI-2021.6-win32/Py_210123_eval/xtensa-elf/arch/lib/\libhandlers-board.a(exc-syscall-handler.o)
 .debug_line    0x000110b3       0x93 C:/usr/xtensa/XtDevTools/install/builds/RI-2021.6-win32/Py_210123_eval/xtensa-elf/arch/lib/\libhandlers-board.a(exc-table.o)
 .debug_line    0x00011146       0xa0 C:/usr/xtensa/XtDevTools/install/builds/RI-2021.6-win32/Py_210123_eval/xtensa-elf/arch/lib/\libhandlers-board.a(interrupt-table.o)
 .debug_line    0x000111e6       0xbf C:/usr/xtensa/XtDevTools/install/builds/RI-2021.6-win32/Py_210123_eval/xtensa-elf/arch/lib/\libhandlers-board.a(user-vector.o)
 .debug_line    0x000112a5      0x1ae C:/usr/xtensa/XtDevTools/install/builds/RI-2021.6-win32/Py_210123_eval/xtensa-elf/arch/lib/\libhandlers-board.a(exc-c-wrapper-handler.o)
 .debug_line    0x00011453       0xc5 C:/usr/xtensa/XtDevTools/install/builds/RI-2021.6-win32/Py_210123_eval/xtensa-elf/arch/lib/\libhandlers-board.a(exc-return.o)
 .debug_line    0x00011518      0x270 C:/usr/xtensa/XtDevTools/install/builds/RI-2021.6-win32/Py_210123_eval/xtensa-elf/arch/lib/\libhandlers-board.a(int-lowpri-dispatcher.o)
 .debug_line    0x00011788      0x267 C:/usr/xtensa/XtDevTools/install/builds/RI-2021.6-win32/Py_210123_eval/xtensa-elf/arch/lib/\libhandlers-board.a(window-vectors.o)
 .debug_line    0x000119ef       0x97 C:/usr/xtensa/XtDevTools/install/builds/RI-2021.6-win32/Py_210123_eval/xtensa-elf/arch/lib/\libhandlers-board.a(int-init-level1.o)
 .debug_line    0x00011a86       0x97 C:/usr/xtensa/XtDevTools/install/builds/RI-2021.6-win32/Py_210123_eval/xtensa-elf/arch/lib/\libhandlers-board.a(int-init-level2.o)
 .debug_line    0x00011b1d       0x97 C:/usr/xtensa/XtDevTools/install/builds/RI-2021.6-win32/Py_210123_eval/xtensa-elf/arch/lib/\libhandlers-board.a(int-init-level3.o)
 .debug_line    0x00011bb4       0xa9 C:/usr/xtensa/XtDevTools/install/builds/RI-2021.6-win32/Py_210123_eval/xtensa-elf/arch/lib/\libhandlers-board.a(exc-unhandled.o)
 .debug_line    0x00011c5d       0x94 C:/usr/xtensa/XtDevTools/install/builds/RI-2021.6-win32/Py_210123_eval/xtensa-elf/arch/lib/\libhandlers-board.a(int-vector-level2.o)
 .debug_line    0x00011cf1       0x94 C:/usr/xtensa/XtDevTools/install/builds/RI-2021.6-win32/Py_210123_eval/xtensa-elf/arch/lib/\libhandlers-board.a(int-vector-level3.o)
 .debug_line    0x00011d85      0x1d8 C:/usr/xtensa/XtDevTools/install/builds/RI-2021.6-win32/Py_210123_eval/xtensa-elf/arch/lib/\libhandlers-board.a(int-handler-level2.o)
 .debug_line    0x00011f5d      0x1d2 C:/usr/xtensa/XtDevTools/install/builds/RI-2021.6-win32/Py_210123_eval/xtensa-elf/arch/lib/\libhandlers-board.a(int-handler-level3.o)
 .debug_line    0x0001212f       0xa2 C:/usr/xtensa/XtDevTools/install/builds/RI-2021.6-win32/Py_210123_eval/xtensa-elf/arch/lib/\libhandlers-board.a(debug-vector.o)
 .debug_line    0x000121d1       0x92 C:/usr/xtensa/XtDevTools/install/builds/RI-2021.6-win32/Py_210123_eval/xtensa-elf/arch/lib/\libhandlers-board.a(double-vector.o)
 .debug_line    0x00012263       0x98 C:/usr/xtensa/XtDevTools/install/builds/RI-2021.6-win32/Py_210123_eval/xtensa-elf/arch/lib/\libhandlers-board.a(kernel-vector.o)
 .debug_line    0x000122fb       0xf6 C:/usr/xtensa/XtDevTools/install/builds/RI-2021.6-win32/Py_210123_eval/xtensa-elf/arch/lib/\libhal.a(const--intlevel.o)

.debug_frame    0x00000000       0x78
 *(.debug_frame)
 .debug_frame   0x00000000       0x28 C:/usr/xtensa/XtDevTools/install/builds/RI-2021.6-win32/Py_210123_eval/xtensa-elf/arch/lib/\libhandlers-board.a(xtos-interrupt-enable.o)
 .debug_frame   0x00000028       0x28 C:/usr/xtensa/XtDevTools/install/builds/RI-2021.6-win32/Py_210123_eval/xtensa-elf/arch/lib/\libhandlers-board.a(xtos-set-inthandler.o)
 .debug_frame   0x00000050       0x28 C:/usr/xtensa/XtDevTools/install/builds/RI-2021.6-win32/Py_210123_eval/xtensa-elf/arch/lib/\libhandlers-board.a(xtos-set-exchandler.o)

.debug_str      0x00000000      0x372
 *(.debug_str)
 .debug_str     0x00000000      0x133 C:/usr/xtensa/XtDevTools/install/builds/RI-2021.6-win32/Py_210123_eval/xtensa-elf/arch/lib/\libhandlers-board.a(xtos-interrupt-enable.o)
                                        0x13f (size before relaxing)
 .debug_str     0x00000133       0xd2 C:/usr/xtensa/XtDevTools/install/builds/RI-2021.6-win32/Py_210123_eval/xtensa-elf/arch/lib/\libhandlers-board.a(xtos-set-inthandler.o)
                                        0x192 (size before relaxing)
 .debug_str     0x00000205       0x8a C:/usr/xtensa/XtDevTools/install/builds/RI-2021.6-win32/Py_210123_eval/xtensa-elf/arch/lib/\libhandlers-board.a(xtos-set-exchandler.o)
                                        0x168 (size before relaxing)
 .debug_str     0x0000028f       0xe3 C:/usr/xtensa/XtDevTools/install/builds/RI-2021.6-win32/Py_210123_eval/xtensa-elf/arch/lib/\libhal.a(const--intlevel.o)
                                        0x10b (size before relaxing)

.debug_loc      0x00000000       0xf5
 *(.debug_loc)
 .debug_loc     0x00000000       0x4f C:/usr/xtensa/XtDevTools/install/builds/RI-2021.6-win32/Py_210123_eval/xtensa-elf/arch/lib/\libhandlers-board.a(xtos-interrupt-enable.o)
 .debug_loc     0x0000004f       0x44 C:/usr/xtensa/XtDevTools/install/builds/RI-2021.6-win32/Py_210123_eval/xtensa-elf/arch/lib/\libhandlers-board.a(xtos-set-inthandler.o)
 .debug_loc     0x00000093       0x62 C:/usr/xtensa/XtDevTools/install/builds/RI-2021.6-win32/Py_210123_eval/xtensa-elf/arch/lib/\libhandlers-board.a(xtos-set-exchandler.o)

.debug_macinfo
 *(.debug_macinfo)

.debug_weaknames
 *(.debug_weaknames)

.debug_funcnames
 *(.debug_funcnames)

.debug_typenames
 *(.debug_typenames)

.debug_varnames
 *(.debug_varnames)

.xt.insn
 *(.xt.insn)
 *(.gnu.linkonce.x.*)

.xt.prop        0x00000000     0xb838
 *(.xt.prop)
 .xt.prop       0x00000000       0x48 C:/usr/xtensa/XtDevTools/install/builds/RI-2021.6-win32/Py_210123_eval/xtensa-elf/arch/lib/crt1-tiny.o
 .xt.prop       0x00000048       0x6c D:/PYRAMID_SW/dsp_trunk/tags/Sphinx_0p3/testing_app/system_integration/bin/Py_210123_eval/Release/dsp_verification.o
                                         0x9c (size before relaxing)
 .xt.prop       0x000000b4       0x3c D:/PYRAMID_SW/dsp_trunk/tags/Sphinx_0p3/testing_app/system_integration/bin/Py_210123_eval/Release/main.o
 .xt.prop       0x000000f0       0xcc D:/PYRAMID_SW/dsp_trunk/tags/Sphinx_0p3/testing_app/system_integration/bin/Py_210123_eval/Release/src/dsp_bootloader.o
                                         0xd8 (size before relaxing)
 .xt.prop       0x000001bc      0xf78 D:/PYRAMID_SW/dsp_trunk/tags/Sphinx_0p3/testing_app/system_integration/bin/Py_210123_eval/Release/src/dsp_cli_nfca_rx.o
                                       0x105c (size before relaxing)
 .xt.prop       0x00001134      0xc78 D:/PYRAMID_SW/dsp_trunk/tags/Sphinx_0p3/testing_app/system_integration/bin/Py_210123_eval/Release/src/dsp_cli_nfca_tx.o
                                        0xca8 (size before relaxing)
 .xt.prop       0x00001dac      0x648 D:/PYRAMID_SW/dsp_trunk/tags/Sphinx_0p3/testing_app/system_integration/bin/Py_210123_eval/Release/src/dsp_cli_nfcb_rx.o
                                        0x654 (size before relaxing)
 .xt.prop       0x000023f4      0x5ac D:/PYRAMID_SW/dsp_trunk/tags/Sphinx_0p3/testing_app/system_integration/bin/Py_210123_eval/Release/src/dsp_cli_nfcb_tx.o
 .xt.prop       0x000029a0      0x93c D:/PYRAMID_SW/dsp_trunk/tags/Sphinx_0p3/testing_app/system_integration/bin/Py_210123_eval/Release/src/dsp_cli_nfcf_rx.o
 .xt.prop       0x000032dc      0x720 D:/PYRAMID_SW/dsp_trunk/tags/Sphinx_0p3/testing_app/system_integration/bin/Py_210123_eval/Release/src/dsp_cli_nfcf_tx.o
 .xt.prop       0x000039fc      0x480 D:/PYRAMID_SW/dsp_trunk/tags/Sphinx_0p3/testing_app/system_integration/bin/Py_210123_eval/Release/src/dsp_cli_nfcv_rx.o
                                        0x48c (size before relaxing)
 .xt.prop       0x00003e7c      0x408 D:/PYRAMID_SW/dsp_trunk/tags/Sphinx_0p3/testing_app/system_integration/bin/Py_210123_eval/Release/src/dsp_cli_nfcv_tx.o
 .xt.prop       0x00004284      0x2c4 D:/PYRAMID_SW/dsp_trunk/tags/Sphinx_0p3/testing_app/system_integration/bin/Py_210123_eval/Release/src/dsp_cli_rx.o
 .xt.prop       0x00004548      0x3fc D:/PYRAMID_SW/dsp_trunk/tags/Sphinx_0p3/testing_app/system_integration/bin/Py_210123_eval/Release/src/dsp_cli_tx.o
                                        0x42c (size before relaxing)
 .xt.prop       0x00004944       0x30 D:/PYRAMID_SW/dsp_trunk/tags/Sphinx_0p3/testing_app/system_integration/bin/Py_210123_eval/Release/src/dsp_cli_utils.o
                                         0x54 (size before relaxing)
 .xt.prop       0x00004974      0x108 D:/PYRAMID_SW/dsp_trunk/tags/Sphinx_0p3/testing_app/system_integration/bin/Py_210123_eval/Release/src/dsp_cli_wind_lut.o
                                        0x138 (size before relaxing)
 .xt.prop       0x00004a7c       0xe4 D:/PYRAMID_SW/dsp_trunk/tags/Sphinx_0p3/testing_app/system_integration/bin/Py_210123_eval/Release/src/dsp_dbg.o
 .xt.prop       0x00004b60       0x9c D:/PYRAMID_SW/dsp_trunk/tags/Sphinx_0p3/testing_app/system_integration/bin/Py_210123_eval/Release/src/dsp_evnt_mngr.o
                                         0xa8 (size before relaxing)
 .xt.prop       0x00004bfc      0x1a4 D:/PYRAMID_SW/dsp_trunk/tags/Sphinx_0p3/testing_app/system_integration/bin/Py_210123_eval/Release/src/dsp_hal.o
 .xt.prop       0x00004da0       0x30 D:/PYRAMID_SW/dsp_trunk/tags/Sphinx_0p3/testing_app/system_integration/bin/Py_210123_eval/Release/src/dsp_hal_activetop.o
 .xt.prop       0x00004dd0      0x54c D:/PYRAMID_SW/dsp_trunk/tags/Sphinx_0p3/testing_app/system_integration/bin/Py_210123_eval/Release/src/dsp_hal_cli_top.o
                                        0x57c (size before relaxing)
 .xt.prop       0x0000531c       0x30 D:/PYRAMID_SW/dsp_trunk/tags/Sphinx_0p3/testing_app/system_integration/bin/Py_210123_eval/Release/src/dsp_hal_dsp_top.o
 .xt.prop       0x0000534c       0x9c D:/PYRAMID_SW/dsp_trunk/tags/Sphinx_0p3/testing_app/system_integration/bin/Py_210123_eval/Release/src/dsp_hal_fifo.o
                                         0xb4 (size before relaxing)
 .xt.prop       0x000053e8      0x234 D:/PYRAMID_SW/dsp_trunk/tags/Sphinx_0p3/testing_app/system_integration/bin/Py_210123_eval/Release/src/dsp_hal_hmb.o
 .xt.prop       0x0000561c       0x54 D:/PYRAMID_SW/dsp_trunk/tags/Sphinx_0p3/testing_app/system_integration/bin/Py_210123_eval/Release/src/dsp_hal_intr.o
                                         0x60 (size before relaxing)
 .xt.prop       0x00005670      0x258 D:/PYRAMID_SW/dsp_trunk/tags/Sphinx_0p3/testing_app/system_integration/bin/Py_210123_eval/Release/src/dsp_hal_mdm_top.o
 .xt.prop       0x000058c8       0xcc D:/PYRAMID_SW/dsp_trunk/tags/Sphinx_0p3/testing_app/system_integration/bin/Py_210123_eval/Release/src/dsp_hal_sml1_top.o
                                         0xd8 (size before relaxing)
 .xt.prop       0x00005994      0x21c D:/PYRAMID_SW/dsp_trunk/tags/Sphinx_0p3/testing_app/system_integration/bin/Py_210123_eval/Release/src/dsp_hal_sml3.o
                                        0x288 (size before relaxing)
 .xt.prop       0x00005bb0      0x21c D:/PYRAMID_SW/dsp_trunk/tags/Sphinx_0p3/testing_app/system_integration/bin/Py_210123_eval/Release/src/dsp_hal_timer.o
                                        0x264 (size before relaxing)
 .xt.prop       0x00005dcc      0x240 D:/PYRAMID_SW/dsp_trunk/tags/Sphinx_0p3/testing_app/system_integration/bin/Py_210123_eval/Release/src/dsp_intr_hndlr.o
 .xt.prop       0x0000600c      0x108 D:/PYRAMID_SW/dsp_trunk/tags/Sphinx_0p3/testing_app/system_integration/bin/Py_210123_eval/Release/src/dsp_logs.o
                                        0x15c (size before relaxing)
 .xt.prop       0x00006114       0x6c D:/PYRAMID_SW/dsp_trunk/tags/Sphinx_0p3/testing_app/system_integration/bin/Py_210123_eval/Release/src/dsp_m0_common.o
                                         0xc0 (size before relaxing)
 .xt.prop       0x00006180      0x4d4 D:/PYRAMID_SW/dsp_trunk/tags/Sphinx_0p3/testing_app/system_integration/bin/Py_210123_eval/Release/src/dsp_mngr.o
                                        0x534 (size before relaxing)
 .xt.prop       0x00006654      0x2c4 D:/PYRAMID_SW/dsp_trunk/tags/Sphinx_0p3/testing_app/system_integration/bin/Py_210123_eval/Release/src/dsp_sml0_apc.o
 .xt.prop       0x00006918      0x2a0 D:/PYRAMID_SW/dsp_trunk/tags/Sphinx_0p3/testing_app/system_integration/bin/Py_210123_eval/Release/src/dsp_sml0_lmac.o
                                        0x2ac (size before relaxing)
 .xt.prop       0x00006bb8       0xe4 D:/PYRAMID_SW/dsp_trunk/tags/Sphinx_0p3/testing_app/system_integration/bin/Py_210123_eval/Release/src/dsp_sml1.o
                                         0xf0 (size before relaxing)
 .xt.prop       0x00006c9c      0x3e4 D:/PYRAMID_SW/dsp_trunk/tags/Sphinx_0p3/testing_app/system_integration/bin/Py_210123_eval/Release/src/dsp_sml1_dyn_reg.o
 .xt.prop       0x00007080      0x348 D:/PYRAMID_SW/dsp_trunk/tags/Sphinx_0p3/testing_app/system_integration/bin/Py_210123_eval/Release/src/dsp_sml1_pcm.o
 .xt.prop       0x000073c8      0xc18 D:/PYRAMID_SW/dsp_trunk/tags/Sphinx_0p3/testing_app/system_integration/bin/Py_210123_eval/Release/src/dsp_sml1_pcm_dyn_reg_lut.o
                                        0xcf0 (size before relaxing)
 .xt.prop       0x00007fe0      0xaec D:/PYRAMID_SW/dsp_trunk/tags/Sphinx_0p3/testing_app/system_integration/bin/Py_210123_eval/Release/src/dsp_sml1_pcm_listener.o
                                        0xb04 (size before relaxing)
 .xt.prop       0x00008acc      0x960 D:/PYRAMID_SW/dsp_trunk/tags/Sphinx_0p3/testing_app/system_integration/bin/Py_210123_eval/Release/src/dsp_sml1_pcm_listener_user_ta.o
                                        0x96c (size before relaxing)
 .xt.prop       0x0000942c      0xbb8 D:/PYRAMID_SW/dsp_trunk/tags/Sphinx_0p3/testing_app/system_integration/bin/Py_210123_eval/Release/src/dsp_sml1_pcm_poller.o
 .xt.prop       0x00009fe4      0xf54 D:/PYRAMID_SW/dsp_trunk/tags/Sphinx_0p3/testing_app/system_integration/bin/Py_210123_eval/Release/src/dsp_sml1_pcm_poller_user_ta.o
                                        0xf78 (size before relaxing)
 .xt.prop       0x0000af38       0xb4 D:/PYRAMID_SW/dsp_trunk/tags/Sphinx_0p3/testing_app/system_integration/bin/Py_210123_eval/Release/src/dsp_sml1_user_ta_lut.o
                                         0xcc (size before relaxing)
 .xt.prop       0x0000afec       0x9c C:/usr/xtensa/XtDevTools/install/builds/RI-2021.6-win32/Py_210123_eval/xtensa-elf/lib/xcc/\libgcc.a(_udivsi3.o)
                                         0xa8 (size before relaxing)
 .xt.prop       0x0000b088       0xcc C:/usr/xtensa/XtDevTools/install/builds/RI-2021.6-win32/Py_210123_eval/xtensa-elf/arch/lib/\libhandler-reset-unpack.a(reset-vector-unpack.o)
 .xt.prop       0x0000b154       0x54 C:/usr/xtensa/XtDevTools/install/builds/RI-2021.6-win32/Py_210123_eval/xtensa-elf/arch/lib/\libhandlers-board.a(xtos-interrupt-enable.o)
 .xt.prop       0x0000b1a8       0x84 C:/usr/xtensa/XtDevTools/install/builds/RI-2021.6-win32/Py_210123_eval/xtensa-elf/arch/lib/\libhandlers-board.a(xtos-set-inthandler.o)
 .xt.prop       0x0000b22c       0x6c C:/usr/xtensa/XtDevTools/install/builds/RI-2021.6-win32/Py_210123_eval/xtensa-elf/arch/lib/\libhandlers-board.a(xtos-set-exchandler.o)
 .xt.prop       0x0000b298       0xd8 C:/usr/xtensa/XtDevTools/install/builds/RI-2021.6-win32/Py_210123_eval/xtensa-elf/arch/lib/\libhandlers-board.a(exc-syscall-handler.o)
 .xt.prop       0x0000b370       0x24 C:/usr/xtensa/XtDevTools/install/builds/RI-2021.6-win32/Py_210123_eval/xtensa-elf/arch/lib/\libhandlers-board.a(exc-table.o)
 .xt.prop       0x0000b394       0x30 C:/usr/xtensa/XtDevTools/install/builds/RI-2021.6-win32/Py_210123_eval/xtensa-elf/arch/lib/\libhandlers-board.a(interrupt-table.o)
 .xt.prop       0x0000b3c4       0x24 C:/usr/xtensa/XtDevTools/install/builds/RI-2021.6-win32/Py_210123_eval/xtensa-elf/arch/lib/\libhandlers-board.a(user-vector.o)
 .xt.prop       0x0000b3e8       0x84 C:/usr/xtensa/XtDevTools/install/builds/RI-2021.6-win32/Py_210123_eval/xtensa-elf/arch/lib/\libhandlers-board.a(exc-c-wrapper-handler.o)
 .xt.prop       0x0000b46c       0x18 C:/usr/xtensa/XtDevTools/install/builds/RI-2021.6-win32/Py_210123_eval/xtensa-elf/arch/lib/\libhandlers-board.a(exc-return.o)
 .xt.prop       0x0000b484       0xb4 C:/usr/xtensa/XtDevTools/install/builds/RI-2021.6-win32/Py_210123_eval/xtensa-elf/arch/lib/\libhandlers-board.a(int-lowpri-dispatcher.o)
                                         0xc0 (size before relaxing)
 .xt.prop       0x0000b538       0xc0 C:/usr/xtensa/XtDevTools/install/builds/RI-2021.6-win32/Py_210123_eval/xtensa-elf/arch/lib/\libhandlers-board.a(window-vectors.o)
                                         0xfc (size before relaxing)
 .xt.prop       0x0000b5f8       0x24 C:/usr/xtensa/XtDevTools/install/builds/RI-2021.6-win32/Py_210123_eval/xtensa-elf/arch/lib/\libhandlers-board.a(int-init-level1.o)
 .xt.prop       0x0000b61c       0x24 C:/usr/xtensa/XtDevTools/install/builds/RI-2021.6-win32/Py_210123_eval/xtensa-elf/arch/lib/\libhandlers-board.a(int-init-level2.o)
 .xt.prop       0x0000b640       0x24 C:/usr/xtensa/XtDevTools/install/builds/RI-2021.6-win32/Py_210123_eval/xtensa-elf/arch/lib/\libhandlers-board.a(int-init-level3.o)
 .xt.prop       0x0000b664       0x18 C:/usr/xtensa/XtDevTools/install/builds/RI-2021.6-win32/Py_210123_eval/xtensa-elf/arch/lib/\libhandlers-board.a(exc-unhandled.o)
 .xt.prop       0x0000b67c       0x18 C:/usr/xtensa/XtDevTools/install/builds/RI-2021.6-win32/Py_210123_eval/xtensa-elf/arch/lib/\libhandlers-board.a(int-vector-level2.o)
 .xt.prop       0x0000b694       0x18 C:/usr/xtensa/XtDevTools/install/builds/RI-2021.6-win32/Py_210123_eval/xtensa-elf/arch/lib/\libhandlers-board.a(int-vector-level3.o)
 .xt.prop       0x0000b6ac       0x9c C:/usr/xtensa/XtDevTools/install/builds/RI-2021.6-win32/Py_210123_eval/xtensa-elf/arch/lib/\libhandlers-board.a(int-handler-level2.o)
 .xt.prop       0x0000b748       0x9c C:/usr/xtensa/XtDevTools/install/builds/RI-2021.6-win32/Py_210123_eval/xtensa-elf/arch/lib/\libhandlers-board.a(int-handler-level3.o)
 .xt.prop       0x0000b7e4       0x24 C:/usr/xtensa/XtDevTools/install/builds/RI-2021.6-win32/Py_210123_eval/xtensa-elf/arch/lib/\libhandlers-board.a(debug-vector.o)
 .xt.prop       0x0000b808       0x18 C:/usr/xtensa/XtDevTools/install/builds/RI-2021.6-win32/Py_210123_eval/xtensa-elf/arch/lib/\libhandlers-board.a(double-vector.o)
 .xt.prop       0x0000b820       0x18 C:/usr/xtensa/XtDevTools/install/builds/RI-2021.6-win32/Py_210123_eval/xtensa-elf/arch/lib/\libhandlers-board.a(kernel-vector.o)
 *(.xt.prop.*)
 *(.gnu.linkonce.prop.*)

.xt.lit         0x00000000      0x160
 *(.xt.lit)
 .xt.lit        0x00000000        0x8 C:/usr/xtensa/XtDevTools/install/builds/RI-2021.6-win32/Py_210123_eval/xtensa-elf/arch/lib/crt1-tiny.o
 .xt.lit        0x00000008        0x8 D:/PYRAMID_SW/dsp_trunk/tags/Sphinx_0p3/testing_app/system_integration/bin/Py_210123_eval/Release/dsp_verification.o
 .xt.lit        0x00000010        0x8 D:/PYRAMID_SW/dsp_trunk/tags/Sphinx_0p3/testing_app/system_integration/bin/Py_210123_eval/Release/main.o
 .xt.lit        0x00000018        0x8 D:/PYRAMID_SW/dsp_trunk/tags/Sphinx_0p3/testing_app/system_integration/bin/Py_210123_eval/Release/src/dsp_bootloader.o
 .xt.lit        0x00000020        0x8 D:/PYRAMID_SW/dsp_trunk/tags/Sphinx_0p3/testing_app/system_integration/bin/Py_210123_eval/Release/src/dsp_cli_nfca_rx.o
 .xt.lit        0x00000028        0x8 D:/PYRAMID_SW/dsp_trunk/tags/Sphinx_0p3/testing_app/system_integration/bin/Py_210123_eval/Release/src/dsp_cli_nfca_tx.o
 .xt.lit        0x00000030        0x8 D:/PYRAMID_SW/dsp_trunk/tags/Sphinx_0p3/testing_app/system_integration/bin/Py_210123_eval/Release/src/dsp_cli_nfcb_rx.o
 .xt.lit        0x00000038        0x8 D:/PYRAMID_SW/dsp_trunk/tags/Sphinx_0p3/testing_app/system_integration/bin/Py_210123_eval/Release/src/dsp_cli_nfcb_tx.o
 .xt.lit        0x00000040        0x8 D:/PYRAMID_SW/dsp_trunk/tags/Sphinx_0p3/testing_app/system_integration/bin/Py_210123_eval/Release/src/dsp_cli_nfcf_rx.o
 .xt.lit        0x00000048        0x8 D:/PYRAMID_SW/dsp_trunk/tags/Sphinx_0p3/testing_app/system_integration/bin/Py_210123_eval/Release/src/dsp_cli_nfcf_tx.o
 .xt.lit        0x00000050        0x8 D:/PYRAMID_SW/dsp_trunk/tags/Sphinx_0p3/testing_app/system_integration/bin/Py_210123_eval/Release/src/dsp_cli_nfcv_rx.o
 .xt.lit        0x00000058        0x8 D:/PYRAMID_SW/dsp_trunk/tags/Sphinx_0p3/testing_app/system_integration/bin/Py_210123_eval/Release/src/dsp_cli_nfcv_tx.o
 .xt.lit        0x00000060        0x8 D:/PYRAMID_SW/dsp_trunk/tags/Sphinx_0p3/testing_app/system_integration/bin/Py_210123_eval/Release/src/dsp_cli_rx.o
 .xt.lit        0x00000068        0x8 D:/PYRAMID_SW/dsp_trunk/tags/Sphinx_0p3/testing_app/system_integration/bin/Py_210123_eval/Release/src/dsp_cli_tx.o
 .xt.lit        0x00000070        0x0 D:/PYRAMID_SW/dsp_trunk/tags/Sphinx_0p3/testing_app/system_integration/bin/Py_210123_eval/Release/src/dsp_cli_utils.o
                                          0x8 (size before relaxing)
 .xt.lit        0x00000070        0x8 D:/PYRAMID_SW/dsp_trunk/tags/Sphinx_0p3/testing_app/system_integration/bin/Py_210123_eval/Release/src/dsp_evnt_mngr.o
 .xt.lit        0x00000078        0x8 D:/PYRAMID_SW/dsp_trunk/tags/Sphinx_0p3/testing_app/system_integration/bin/Py_210123_eval/Release/src/dsp_hal.o
 .xt.lit        0x00000080        0x8 D:/PYRAMID_SW/dsp_trunk/tags/Sphinx_0p3/testing_app/system_integration/bin/Py_210123_eval/Release/src/dsp_hal_activetop.o
 .xt.lit        0x00000088        0x8 D:/PYRAMID_SW/dsp_trunk/tags/Sphinx_0p3/testing_app/system_integration/bin/Py_210123_eval/Release/src/dsp_hal_cli_top.o
 .xt.lit        0x00000090        0x8 D:/PYRAMID_SW/dsp_trunk/tags/Sphinx_0p3/testing_app/system_integration/bin/Py_210123_eval/Release/src/dsp_hal_dsp_top.o
 .xt.lit        0x00000098        0x0 D:/PYRAMID_SW/dsp_trunk/tags/Sphinx_0p3/testing_app/system_integration/bin/Py_210123_eval/Release/src/dsp_hal_fifo.o
                                          0x8 (size before relaxing)
 .xt.lit        0x00000098        0x8 D:/PYRAMID_SW/dsp_trunk/tags/Sphinx_0p3/testing_app/system_integration/bin/Py_210123_eval/Release/src/dsp_hal_hmb.o
 .xt.lit        0x000000a0        0x8 D:/PYRAMID_SW/dsp_trunk/tags/Sphinx_0p3/testing_app/system_integration/bin/Py_210123_eval/Release/src/dsp_hal_mdm_top.o
 .xt.lit        0x000000a8        0x0 D:/PYRAMID_SW/dsp_trunk/tags/Sphinx_0p3/testing_app/system_integration/bin/Py_210123_eval/Release/src/dsp_hal_sml1_top.o
                                          0x8 (size before relaxing)
 .xt.lit        0x000000a8        0x8 D:/PYRAMID_SW/dsp_trunk/tags/Sphinx_0p3/testing_app/system_integration/bin/Py_210123_eval/Release/src/dsp_hal_sml3.o
 .xt.lit        0x000000b0        0x8 D:/PYRAMID_SW/dsp_trunk/tags/Sphinx_0p3/testing_app/system_integration/bin/Py_210123_eval/Release/src/dsp_hal_timer.o
 .xt.lit        0x000000b8        0x8 D:/PYRAMID_SW/dsp_trunk/tags/Sphinx_0p3/testing_app/system_integration/bin/Py_210123_eval/Release/src/dsp_intr_hndlr.o
 .xt.lit        0x000000c0        0x8 D:/PYRAMID_SW/dsp_trunk/tags/Sphinx_0p3/testing_app/system_integration/bin/Py_210123_eval/Release/src/dsp_logs.o
 .xt.lit        0x000000c8        0x8 D:/PYRAMID_SW/dsp_trunk/tags/Sphinx_0p3/testing_app/system_integration/bin/Py_210123_eval/Release/src/dsp_m0_common.o
 .xt.lit        0x000000d0        0x8 D:/PYRAMID_SW/dsp_trunk/tags/Sphinx_0p3/testing_app/system_integration/bin/Py_210123_eval/Release/src/dsp_mngr.o
 .xt.lit        0x000000d8        0x8 D:/PYRAMID_SW/dsp_trunk/tags/Sphinx_0p3/testing_app/system_integration/bin/Py_210123_eval/Release/src/dsp_sml0_apc.o
 .xt.lit        0x000000e0        0x8 D:/PYRAMID_SW/dsp_trunk/tags/Sphinx_0p3/testing_app/system_integration/bin/Py_210123_eval/Release/src/dsp_sml0_lmac.o
 .xt.lit        0x000000e8        0x0 D:/PYRAMID_SW/dsp_trunk/tags/Sphinx_0p3/testing_app/system_integration/bin/Py_210123_eval/Release/src/dsp_sml1.o
                                          0x8 (size before relaxing)
 .xt.lit        0x000000e8        0x8 D:/PYRAMID_SW/dsp_trunk/tags/Sphinx_0p3/testing_app/system_integration/bin/Py_210123_eval/Release/src/dsp_sml1_dyn_reg.o
 .xt.lit        0x000000f0        0x8 D:/PYRAMID_SW/dsp_trunk/tags/Sphinx_0p3/testing_app/system_integration/bin/Py_210123_eval/Release/src/dsp_sml1_pcm.o
 .xt.lit        0x000000f8        0x8 D:/PYRAMID_SW/dsp_trunk/tags/Sphinx_0p3/testing_app/system_integration/bin/Py_210123_eval/Release/src/dsp_sml1_pcm_listener.o
 .xt.lit        0x00000100        0x8 D:/PYRAMID_SW/dsp_trunk/tags/Sphinx_0p3/testing_app/system_integration/bin/Py_210123_eval/Release/src/dsp_sml1_pcm_listener_user_ta.o
 .xt.lit        0x00000108        0x8 D:/PYRAMID_SW/dsp_trunk/tags/Sphinx_0p3/testing_app/system_integration/bin/Py_210123_eval/Release/src/dsp_sml1_pcm_poller.o
 .xt.lit        0x00000110        0x8 D:/PYRAMID_SW/dsp_trunk/tags/Sphinx_0p3/testing_app/system_integration/bin/Py_210123_eval/Release/src/dsp_sml1_pcm_poller_user_ta.o
 .xt.lit        0x00000118        0x8 C:/usr/xtensa/XtDevTools/install/builds/RI-2021.6-win32/Py_210123_eval/xtensa-elf/arch/lib/\libhandler-reset-unpack.a(reset-vector-unpack.o)
 .xt.lit        0x00000120        0x8 C:/usr/xtensa/XtDevTools/install/builds/RI-2021.6-win32/Py_210123_eval/xtensa-elf/arch/lib/\libhandlers-board.a(xtos-interrupt-enable.o)
 .xt.lit        0x00000128        0x8 C:/usr/xtensa/XtDevTools/install/builds/RI-2021.6-win32/Py_210123_eval/xtensa-elf/arch/lib/\libhandlers-board.a(xtos-set-inthandler.o)
 .xt.lit        0x00000130        0x8 C:/usr/xtensa/XtDevTools/install/builds/RI-2021.6-win32/Py_210123_eval/xtensa-elf/arch/lib/\libhandlers-board.a(xtos-set-exchandler.o)
 .xt.lit        0x00000138        0x8 C:/usr/xtensa/XtDevTools/install/builds/RI-2021.6-win32/Py_210123_eval/xtensa-elf/arch/lib/\libhandlers-board.a(exc-syscall-handler.o)
 .xt.lit        0x00000140        0x8 C:/usr/xtensa/XtDevTools/install/builds/RI-2021.6-win32/Py_210123_eval/xtensa-elf/arch/lib/\libhandlers-board.a(user-vector.o)
 .xt.lit        0x00000148        0x8 C:/usr/xtensa/XtDevTools/install/builds/RI-2021.6-win32/Py_210123_eval/xtensa-elf/arch/lib/\libhandlers-board.a(exc-c-wrapper-handler.o)
 .xt.lit        0x00000150        0x0 C:/usr/xtensa/XtDevTools/install/builds/RI-2021.6-win32/Py_210123_eval/xtensa-elf/arch/lib/\libhandlers-board.a(int-lowpri-dispatcher.o)
                                          0x8 (size before relaxing)
 .xt.lit        0x00000150        0x8 C:/usr/xtensa/XtDevTools/install/builds/RI-2021.6-win32/Py_210123_eval/xtensa-elf/arch/lib/\libhandlers-board.a(int-handler-level2.o)
 .xt.lit        0x00000158        0x8 C:/usr/xtensa/XtDevTools/install/builds/RI-2021.6-win32/Py_210123_eval/xtensa-elf/arch/lib/\libhandlers-board.a(int-handler-level3.o)
 *(.xt.lit.*)
 *(.gnu.linkonce.p.*)

.debug.xt.callgraph
 *(.debug.xt.callgraph .debug.xt.callgraph.* .gnu.linkonce.xt.callgraph.*)

.note.gnu.build-id
 *(.note.gnu.build-id)
OUTPUT(D:/PYRAMID_SW/dsp_trunk/tags/Sphinx_0p3/testing_app/system_integration/bin/Py_210123_eval/Release/system_integration elf32-xtensa-le)

.xtensa.info    0x00000000      0x210
 .xtensa.info   0x00000000      0x210 C:/usr/xtensa/XtDevTools/install/builds/RI-2021.6-win32/Py_210123_eval/xtensa-elf/arch/lib/crt1-tiny.o
 .xtensa.info   0x00000000        0x0 D:/PYRAMID_SW/dsp_trunk/tags/Sphinx_0p3/testing_app/system_integration/bin/Py_210123_eval/Release/dsp_verification.o
 .xtensa.info   0x00000000        0x0 D:/PYRAMID_SW/dsp_trunk/tags/Sphinx_0p3/testing_app/system_integration/bin/Py_210123_eval/Release/main.o
 .xtensa.info   0x00000000        0x0 D:/PYRAMID_SW/dsp_trunk/tags/Sphinx_0p3/testing_app/system_integration/bin/Py_210123_eval/Release/src/dsp_bootloader.o
 .xtensa.info   0x00000000        0x0 D:/PYRAMID_SW/dsp_trunk/tags/Sphinx_0p3/testing_app/system_integration/bin/Py_210123_eval/Release/src/dsp_cli_nfca_rx.o
 .xtensa.info   0x00000000        0x0 D:/PYRAMID_SW/dsp_trunk/tags/Sphinx_0p3/testing_app/system_integration/bin/Py_210123_eval/Release/src/dsp_cli_nfca_tx.o
 .xtensa.info   0x00000000        0x0 D:/PYRAMID_SW/dsp_trunk/tags/Sphinx_0p3/testing_app/system_integration/bin/Py_210123_eval/Release/src/dsp_cli_nfcb_rx.o
 .xtensa.info   0x00000000        0x0 D:/PYRAMID_SW/dsp_trunk/tags/Sphinx_0p3/testing_app/system_integration/bin/Py_210123_eval/Release/src/dsp_cli_nfcb_tx.o
 .xtensa.info   0x00000000        0x0 D:/PYRAMID_SW/dsp_trunk/tags/Sphinx_0p3/testing_app/system_integration/bin/Py_210123_eval/Release/src/dsp_cli_nfcf_rx.o
 .xtensa.info   0x00000000        0x0 D:/PYRAMID_SW/dsp_trunk/tags/Sphinx_0p3/testing_app/system_integration/bin/Py_210123_eval/Release/src/dsp_cli_nfcf_tx.o
 .xtensa.info   0x00000000        0x0 D:/PYRAMID_SW/dsp_trunk/tags/Sphinx_0p3/testing_app/system_integration/bin/Py_210123_eval/Release/src/dsp_cli_nfcv_rx.o
 .xtensa.info   0x00000000        0x0 D:/PYRAMID_SW/dsp_trunk/tags/Sphinx_0p3/testing_app/system_integration/bin/Py_210123_eval/Release/src/dsp_cli_nfcv_tx.o
 .xtensa.info   0x00000000        0x0 D:/PYRAMID_SW/dsp_trunk/tags/Sphinx_0p3/testing_app/system_integration/bin/Py_210123_eval/Release/src/dsp_cli_rx.o
 .xtensa.info   0x00000000        0x0 D:/PYRAMID_SW/dsp_trunk/tags/Sphinx_0p3/testing_app/system_integration/bin/Py_210123_eval/Release/src/dsp_cli_tx.o
 .xtensa.info   0x00000000        0x0 D:/PYRAMID_SW/dsp_trunk/tags/Sphinx_0p3/testing_app/system_integration/bin/Py_210123_eval/Release/src/dsp_cli_utils.o
 .xtensa.info   0x00000000        0x0 D:/PYRAMID_SW/dsp_trunk/tags/Sphinx_0p3/testing_app/system_integration/bin/Py_210123_eval/Release/src/dsp_cli_wind_lut.o
 .xtensa.info   0x00000000        0x0 D:/PYRAMID_SW/dsp_trunk/tags/Sphinx_0p3/testing_app/system_integration/bin/Py_210123_eval/Release/src/dsp_dbg.o
 .xtensa.info   0x00000000        0x0 D:/PYRAMID_SW/dsp_trunk/tags/Sphinx_0p3/testing_app/system_integration/bin/Py_210123_eval/Release/src/dsp_evnt_mngr.o
 .xtensa.info   0x00000000        0x0 D:/PYRAMID_SW/dsp_trunk/tags/Sphinx_0p3/testing_app/system_integration/bin/Py_210123_eval/Release/src/dsp_hal.o
 .xtensa.info   0x00000000        0x0 D:/PYRAMID_SW/dsp_trunk/tags/Sphinx_0p3/testing_app/system_integration/bin/Py_210123_eval/Release/src/dsp_hal_activetop.o
 .xtensa.info   0x00000000        0x0 D:/PYRAMID_SW/dsp_trunk/tags/Sphinx_0p3/testing_app/system_integration/bin/Py_210123_eval/Release/src/dsp_hal_cli_top.o
 .xtensa.info   0x00000000        0x0 D:/PYRAMID_SW/dsp_trunk/tags/Sphinx_0p3/testing_app/system_integration/bin/Py_210123_eval/Release/src/dsp_hal_dsp_top.o
 .xtensa.info   0x00000000        0x0 D:/PYRAMID_SW/dsp_trunk/tags/Sphinx_0p3/testing_app/system_integration/bin/Py_210123_eval/Release/src/dsp_hal_fifo.o
 .xtensa.info   0x00000000        0x0 D:/PYRAMID_SW/dsp_trunk/tags/Sphinx_0p3/testing_app/system_integration/bin/Py_210123_eval/Release/src/dsp_hal_hmb.o
 .xtensa.info   0x00000000        0x0 D:/PYRAMID_SW/dsp_trunk/tags/Sphinx_0p3/testing_app/system_integration/bin/Py_210123_eval/Release/src/dsp_hal_intr.o
 .xtensa.info   0x00000000        0x0 D:/PYRAMID_SW/dsp_trunk/tags/Sphinx_0p3/testing_app/system_integration/bin/Py_210123_eval/Release/src/dsp_hal_mdm_top.o
 .xtensa.info   0x00000000        0x0 D:/PYRAMID_SW/dsp_trunk/tags/Sphinx_0p3/testing_app/system_integration/bin/Py_210123_eval/Release/src/dsp_hal_sml1_top.o
 .xtensa.info   0x00000000        0x0 D:/PYRAMID_SW/dsp_trunk/tags/Sphinx_0p3/testing_app/system_integration/bin/Py_210123_eval/Release/src/dsp_hal_sml3.o
 .xtensa.info   0x00000000        0x0 D:/PYRAMID_SW/dsp_trunk/tags/Sphinx_0p3/testing_app/system_integration/bin/Py_210123_eval/Release/src/dsp_hal_timer.o
 .xtensa.info   0x00000000        0x0 D:/PYRAMID_SW/dsp_trunk/tags/Sphinx_0p3/testing_app/system_integration/bin/Py_210123_eval/Release/src/dsp_intr_hndlr.o
 .xtensa.info   0x00000000        0x0 D:/PYRAMID_SW/dsp_trunk/tags/Sphinx_0p3/testing_app/system_integration/bin/Py_210123_eval/Release/src/dsp_logs.o
 .xtensa.info   0x00000000        0x0 D:/PYRAMID_SW/dsp_trunk/tags/Sphinx_0p3/testing_app/system_integration/bin/Py_210123_eval/Release/src/dsp_m0_common.o
 .xtensa.info   0x00000000        0x0 D:/PYRAMID_SW/dsp_trunk/tags/Sphinx_0p3/testing_app/system_integration/bin/Py_210123_eval/Release/src/dsp_mngr.o
 .xtensa.info   0x00000000        0x0 D:/PYRAMID_SW/dsp_trunk/tags/Sphinx_0p3/testing_app/system_integration/bin/Py_210123_eval/Release/src/dsp_sml0_apc.o
 .xtensa.info   0x00000000        0x0 D:/PYRAMID_SW/dsp_trunk/tags/Sphinx_0p3/testing_app/system_integration/bin/Py_210123_eval/Release/src/dsp_sml0_lmac.o
 .xtensa.info   0x00000000        0x0 D:/PYRAMID_SW/dsp_trunk/tags/Sphinx_0p3/testing_app/system_integration/bin/Py_210123_eval/Release/src/dsp_sml1.o
 .xtensa.info   0x00000000        0x0 D:/PYRAMID_SW/dsp_trunk/tags/Sphinx_0p3/testing_app/system_integration/bin/Py_210123_eval/Release/src/dsp_sml1_dyn_reg.o
 .xtensa.info   0x00000000        0x0 D:/PYRAMID_SW/dsp_trunk/tags/Sphinx_0p3/testing_app/system_integration/bin/Py_210123_eval/Release/src/dsp_sml1_pcm.o
 .xtensa.info   0x00000000        0x0 D:/PYRAMID_SW/dsp_trunk/tags/Sphinx_0p3/testing_app/system_integration/bin/Py_210123_eval/Release/src/dsp_sml1_pcm_dyn_reg_lut.o
 .xtensa.info   0x00000000        0x0 D:/PYRAMID_SW/dsp_trunk/tags/Sphinx_0p3/testing_app/system_integration/bin/Py_210123_eval/Release/src/dsp_sml1_pcm_listener.o
 .xtensa.info   0x00000000        0x0 D:/PYRAMID_SW/dsp_trunk/tags/Sphinx_0p3/testing_app/system_integration/bin/Py_210123_eval/Release/src/dsp_sml1_pcm_listener_user_ta.o
 .xtensa.info   0x00000000        0x0 D:/PYRAMID_SW/dsp_trunk/tags/Sphinx_0p3/testing_app/system_integration/bin/Py_210123_eval/Release/src/dsp_sml1_pcm_poller.o
 .xtensa.info   0x00000000        0x0 D:/PYRAMID_SW/dsp_trunk/tags/Sphinx_0p3/testing_app/system_integration/bin/Py_210123_eval/Release/src/dsp_sml1_pcm_poller_user_ta.o
 .xtensa.info   0x00000000        0x0 D:/PYRAMID_SW/dsp_trunk/tags/Sphinx_0p3/testing_app/system_integration/bin/Py_210123_eval/Release/src/dsp_sml1_user_ta_lut.o
 .xtensa.info   0x00000000        0x0 D:/PYRAMID_SW/dsp_trunk/tags/Sphinx_0p3/testing_app/system_integration/bin/Py_210123_eval/Release/test_10_loopbck_nfcv_rw.o
 .xtensa.info   0x00000000        0x0 D:/PYRAMID_SW/dsp_trunk/tags/Sphinx_0p3/testing_app/system_integration/bin/Py_210123_eval/Release/test_1_loopbck_nfcf_rw_std.o
 .xtensa.info   0x00000000        0x0 D:/PYRAMID_SW/dsp_trunk/tags/Sphinx_0p3/testing_app/system_integration/bin/Py_210123_eval/Release/test_2_loopbck_nfcf_ce.o
 .xtensa.info   0x00000000        0x0 D:/PYRAMID_SW/dsp_trunk/tags/Sphinx_0p3/testing_app/system_integration/bin/Py_210123_eval/Release/test_3_loopbck_nfca_rw_std.o
 .xtensa.info   0x00000000        0x0 D:/PYRAMID_SW/dsp_trunk/tags/Sphinx_0p3/testing_app/system_integration/bin/Py_210123_eval/Release/test_4_loopbck_nfca_ce.o
 .xtensa.info   0x00000000        0x0 D:/PYRAMID_SW/dsp_trunk/tags/Sphinx_0p3/testing_app/system_integration/bin/Py_210123_eval/Release/test_5_loopbck_nfca_rw_sdd.o
 .xtensa.info   0x00000000        0x0 D:/PYRAMID_SW/dsp_trunk/tags/Sphinx_0p3/testing_app/system_integration/bin/Py_210123_eval/Release/test_6_loopbck_nfca_ce_swp_intf.o
 .xtensa.info   0x00000000        0x0 D:/PYRAMID_SW/dsp_trunk/tags/Sphinx_0p3/testing_app/system_integration/bin/Py_210123_eval/Release/test_7_loopbck_nfcb_rw.o
 .xtensa.info   0x00000000        0x0 D:/PYRAMID_SW/dsp_trunk/tags/Sphinx_0p3/testing_app/system_integration/bin/Py_210123_eval/Release/test_8_loopbck_nfcb_ce.o
 .xtensa.info   0x00000000        0x0 D:/PYRAMID_SW/dsp_trunk/tags/Sphinx_0p3/testing_app/system_integration/bin/Py_210123_eval/Release/test_9_loopbck_nfca_rw_t1t.o
 .xtensa.info   0x00000000        0x0 D:/PYRAMID_SW/dsp_trunk/tags/Sphinx_0p3/testing_app/system_integration/bin/Py_210123_eval/Release/test_integration.o
 .xtensa.info   0x00000000        0x0 C:/usr/xtensa/XtDevTools/install/builds/RI-2021.6-win32/Py_210123_eval/xtensa-elf/lib/xcc/\libgcc.a(_udivsi3.o)
 .xtensa.info   0x00000000        0x0 C:/usr/xtensa/XtDevTools/install/builds/RI-2021.6-win32/Py_210123_eval/xtensa-elf/arch/lib/\libhandler-reset-unpack.a(reset-vector-unpack.o)
 .xtensa.info   0x00000000        0x0 C:/usr/xtensa/XtDevTools/install/builds/RI-2021.6-win32/Py_210123_eval/xtensa-elf/arch/lib/\libhandlers-board.a(xtos-interrupt-enable.o)
 .xtensa.info   0x00000000        0x0 C:/usr/xtensa/XtDevTools/install/builds/RI-2021.6-win32/Py_210123_eval/xtensa-elf/arch/lib/\libhandlers-board.a(xtos-set-inthandler.o)
 .xtensa.info   0x00000000        0x0 C:/usr/xtensa/XtDevTools/install/builds/RI-2021.6-win32/Py_210123_eval/xtensa-elf/arch/lib/\libhandlers-board.a(xtos-set-exchandler.o)
 .xtensa.info   0x00000000        0x0 C:/usr/xtensa/XtDevTools/install/builds/RI-2021.6-win32/Py_210123_eval/xtensa-elf/arch/lib/\libhandlers-board.a(exc-syscall-handler.o)
 .xtensa.info   0x00000000        0x0 C:/usr/xtensa/XtDevTools/install/builds/RI-2021.6-win32/Py_210123_eval/xtensa-elf/arch/lib/\libhandlers-board.a(exc-table.o)
 .xtensa.info   0x00000000        0x0 C:/usr/xtensa/XtDevTools/install/builds/RI-2021.6-win32/Py_210123_eval/xtensa-elf/arch/lib/\libhandlers-board.a(interrupt-table.o)
 .xtensa.info   0x00000000        0x0 C:/usr/xtensa/XtDevTools/install/builds/RI-2021.6-win32/Py_210123_eval/xtensa-elf/arch/lib/\libhandlers-board.a(user-vector.o)
 .xtensa.info   0x00000000        0x0 C:/usr/xtensa/XtDevTools/install/builds/RI-2021.6-win32/Py_210123_eval/xtensa-elf/arch/lib/\libhandlers-board.a(exc-c-wrapper-handler.o)
 .xtensa.info   0x00000000        0x0 C:/usr/xtensa/XtDevTools/install/builds/RI-2021.6-win32/Py_210123_eval/xtensa-elf/arch/lib/\libhandlers-board.a(exc-return.o)
 .xtensa.info   0x00000000        0x0 C:/usr/xtensa/XtDevTools/install/builds/RI-2021.6-win32/Py_210123_eval/xtensa-elf/arch/lib/\libhandlers-board.a(int-lowpri-dispatcher.o)
 .xtensa.info   0x00000000        0x0 C:/usr/xtensa/XtDevTools/install/builds/RI-2021.6-win32/Py_210123_eval/xtensa-elf/arch/lib/\libhandlers-board.a(window-vectors.o)
 .xtensa.info   0x00000000        0x0 C:/usr/xtensa/XtDevTools/install/builds/RI-2021.6-win32/Py_210123_eval/xtensa-elf/arch/lib/\libhandlers-board.a(int-init-level1.o)
 .xtensa.info   0x00000000        0x0 C:/usr/xtensa/XtDevTools/install/builds/RI-2021.6-win32/Py_210123_eval/xtensa-elf/arch/lib/\libhandlers-board.a(int-init-level2.o)
 .xtensa.info   0x00000000        0x0 C:/usr/xtensa/XtDevTools/install/builds/RI-2021.6-win32/Py_210123_eval/xtensa-elf/arch/lib/\libhandlers-board.a(int-init-level3.o)
 .xtensa.info   0x00000000        0x0 C:/usr/xtensa/XtDevTools/install/builds/RI-2021.6-win32/Py_210123_eval/xtensa-elf/arch/lib/\libhandlers-board.a(exc-unhandled.o)
 .xtensa.info   0x00000000        0x0 C:/usr/xtensa/XtDevTools/install/builds/RI-2021.6-win32/Py_210123_eval/xtensa-elf/arch/lib/\libhandlers-board.a(tiny-refs-S--level1int-.o)
 .xtensa.info   0x00000000        0x0 C:/usr/xtensa/XtDevTools/install/builds/RI-2021.6-win32/Py_210123_eval/xtensa-elf/arch/lib/\libhandlers-board.a(int-vector-level2.o)
 .xtensa.info   0x00000000        0x0 C:/usr/xtensa/XtDevTools/install/builds/RI-2021.6-win32/Py_210123_eval/xtensa-elf/arch/lib/\libhandlers-board.a(int-vector-level3.o)
 .xtensa.info   0x00000000        0x0 C:/usr/xtensa/XtDevTools/install/builds/RI-2021.6-win32/Py_210123_eval/xtensa-elf/arch/lib/\libhandlers-board.a(int-handler-level2.o)
 .xtensa.info   0x00000000        0x0 C:/usr/xtensa/XtDevTools/install/builds/RI-2021.6-win32/Py_210123_eval/xtensa-elf/arch/lib/\libhandlers-board.a(int-handler-level3.o)
 .xtensa.info   0x00000000        0x0 C:/usr/xtensa/XtDevTools/install/builds/RI-2021.6-win32/Py_210123_eval/xtensa-elf/arch/lib/\libhandlers-min.a(tiny-refs-min.o)
 .xtensa.info   0x00000000        0x0 C:/usr/xtensa/XtDevTools/install/builds/RI-2021.6-win32/Py_210123_eval/xtensa-elf/arch/lib/\libhandlers-null.a(_vectors.o)
 .xtensa.info   0x00000000        0x0 C:/usr/xtensa/XtDevTools/install/builds/RI-2021.6-win32/Py_210123_eval/xtensa-elf/arch/lib/\libhandlers-null.a(_sharedvectors.o)
 .xtensa.info   0x00000000        0x0 C:/usr/xtensa/XtDevTools/install/builds/RI-2021.6-win32/Py_210123_eval/xtensa-elf/arch/lib/\libhandlers-board.a(debug-vector.o)
 .xtensa.info   0x00000000        0x0 C:/usr/xtensa/XtDevTools/install/builds/RI-2021.6-win32/Py_210123_eval/xtensa-elf/arch/lib/\libhandlers-board.a(double-vector.o)
 .xtensa.info   0x00000000        0x0 C:/usr/xtensa/XtDevTools/install/builds/RI-2021.6-win32/Py_210123_eval/xtensa-elf/arch/lib/\libhandlers-board.a(kernel-vector.o)
 .xtensa.info   0x00000000        0x0 C:/usr/xtensa/XtDevTools/install/builds/RI-2021.6-win32/Py_210123_eval/xtensa-elf/arch/lib/\libhal.a(cache_asm--hw_configid0.o)
 .xtensa.info   0x00000000        0x0 C:/usr/xtensa/XtDevTools/install/builds/RI-2021.6-win32/Py_210123_eval/xtensa-elf/arch/lib/\libhal.a(cache_asm--hw_configid1.o)
 .xtensa.info   0x00000000        0x0 C:/usr/xtensa/XtDevTools/install/builds/RI-2021.6-win32/Py_210123_eval/xtensa-elf/arch/lib/\libhal.a(cache_asm--release_major.o)
 .xtensa.info   0x00000000        0x0 C:/usr/xtensa/XtDevTools/install/builds/RI-2021.6-win32/Py_210123_eval/xtensa-elf/arch/lib/\libhal.a(cache_asm--release_minor.o)
 .xtensa.info   0x00000000        0x0 C:/usr/xtensa/XtDevTools/install/builds/RI-2021.6-win32/Py_210123_eval/xtensa-elf/arch/lib/\libhal.a(const--intlevel.o)

.comment        0x00000000     0x1b17
 .comment       0x00000000       0x94 D:/PYRAMID_SW/dsp_trunk/tags/Sphinx_0p3/testing_app/system_integration/bin/Py_210123_eval/Release/dsp_verification.o
                                         0x95 (size before relaxing)
 .comment       0x00000094       0x88 D:/PYRAMID_SW/dsp_trunk/tags/Sphinx_0p3/testing_app/system_integration/bin/Py_210123_eval/Release/main.o
                                         0x89 (size before relaxing)
 .comment       0x0000011c       0x77 D:/PYRAMID_SW/dsp_trunk/tags/Sphinx_0p3/testing_app/system_integration/bin/Py_210123_eval/Release/src/dsp_bootloader.o
                                         0x78 (size before relaxing)
 .comment       0x00000193       0x78 D:/PYRAMID_SW/dsp_trunk/tags/Sphinx_0p3/testing_app/system_integration/bin/Py_210123_eval/Release/src/dsp_cli_nfca_rx.o
                                         0x79 (size before relaxing)
 .comment       0x0000020b       0x78 D:/PYRAMID_SW/dsp_trunk/tags/Sphinx_0p3/testing_app/system_integration/bin/Py_210123_eval/Release/src/dsp_cli_nfca_tx.o
                                         0x79 (size before relaxing)
 .comment       0x00000283       0x78 D:/PYRAMID_SW/dsp_trunk/tags/Sphinx_0p3/testing_app/system_integration/bin/Py_210123_eval/Release/src/dsp_cli_nfcb_rx.o
                                         0x79 (size before relaxing)
 .comment       0x000002fb       0x78 D:/PYRAMID_SW/dsp_trunk/tags/Sphinx_0p3/testing_app/system_integration/bin/Py_210123_eval/Release/src/dsp_cli_nfcb_tx.o
                                         0x79 (size before relaxing)
 .comment       0x00000373       0x78 D:/PYRAMID_SW/dsp_trunk/tags/Sphinx_0p3/testing_app/system_integration/bin/Py_210123_eval/Release/src/dsp_cli_nfcf_rx.o
                                         0x79 (size before relaxing)
 .comment       0x000003eb       0x78 D:/PYRAMID_SW/dsp_trunk/tags/Sphinx_0p3/testing_app/system_integration/bin/Py_210123_eval/Release/src/dsp_cli_nfcf_tx.o
                                         0x79 (size before relaxing)
 .comment       0x00000463       0x78 D:/PYRAMID_SW/dsp_trunk/tags/Sphinx_0p3/testing_app/system_integration/bin/Py_210123_eval/Release/src/dsp_cli_nfcv_rx.o
                                         0x79 (size before relaxing)
 .comment       0x000004db       0x78 D:/PYRAMID_SW/dsp_trunk/tags/Sphinx_0p3/testing_app/system_integration/bin/Py_210123_eval/Release/src/dsp_cli_nfcv_tx.o
                                         0x79 (size before relaxing)
 .comment       0x00000553       0x73 D:/PYRAMID_SW/dsp_trunk/tags/Sphinx_0p3/testing_app/system_integration/bin/Py_210123_eval/Release/src/dsp_cli_rx.o
                                         0x74 (size before relaxing)
 .comment       0x000005c6       0x73 D:/PYRAMID_SW/dsp_trunk/tags/Sphinx_0p3/testing_app/system_integration/bin/Py_210123_eval/Release/src/dsp_cli_tx.o
                                         0x74 (size before relaxing)
 .comment       0x00000639       0x76 D:/PYRAMID_SW/dsp_trunk/tags/Sphinx_0p3/testing_app/system_integration/bin/Py_210123_eval/Release/src/dsp_cli_utils.o
                                         0x77 (size before relaxing)
 .comment       0x000006af       0x79 D:/PYRAMID_SW/dsp_trunk/tags/Sphinx_0p3/testing_app/system_integration/bin/Py_210123_eval/Release/src/dsp_cli_wind_lut.o
                                         0x7a (size before relaxing)
 .comment       0x00000728       0x70 D:/PYRAMID_SW/dsp_trunk/tags/Sphinx_0p3/testing_app/system_integration/bin/Py_210123_eval/Release/src/dsp_dbg.o
                                         0x71 (size before relaxing)
 .comment       0x00000798       0x76 D:/PYRAMID_SW/dsp_trunk/tags/Sphinx_0p3/testing_app/system_integration/bin/Py_210123_eval/Release/src/dsp_evnt_mngr.o
                                         0x77 (size before relaxing)
 .comment       0x0000080e       0x70 D:/PYRAMID_SW/dsp_trunk/tags/Sphinx_0p3/testing_app/system_integration/bin/Py_210123_eval/Release/src/dsp_hal.o
                                         0x71 (size before relaxing)
 .comment       0x0000087e       0x7a D:/PYRAMID_SW/dsp_trunk/tags/Sphinx_0p3/testing_app/system_integration/bin/Py_210123_eval/Release/src/dsp_hal_activetop.o
                                         0x7b (size before relaxing)
 .comment       0x000008f8       0x78 D:/PYRAMID_SW/dsp_trunk/tags/Sphinx_0p3/testing_app/system_integration/bin/Py_210123_eval/Release/src/dsp_hal_cli_top.o
                                         0x79 (size before relaxing)
 .comment       0x00000970       0x78 D:/PYRAMID_SW/dsp_trunk/tags/Sphinx_0p3/testing_app/system_integration/bin/Py_210123_eval/Release/src/dsp_hal_dsp_top.o
                                         0x79 (size before relaxing)
 .comment       0x000009e8       0x75 D:/PYRAMID_SW/dsp_trunk/tags/Sphinx_0p3/testing_app/system_integration/bin/Py_210123_eval/Release/src/dsp_hal_fifo.o
                                         0x76 (size before relaxing)
 .comment       0x00000a5d       0x74 D:/PYRAMID_SW/dsp_trunk/tags/Sphinx_0p3/testing_app/system_integration/bin/Py_210123_eval/Release/src/dsp_hal_hmb.o
                                         0x75 (size before relaxing)
 .comment       0x00000ad1       0x75 D:/PYRAMID_SW/dsp_trunk/tags/Sphinx_0p3/testing_app/system_integration/bin/Py_210123_eval/Release/src/dsp_hal_intr.o
                                         0x76 (size before relaxing)
 .comment       0x00000b46       0x78 D:/PYRAMID_SW/dsp_trunk/tags/Sphinx_0p3/testing_app/system_integration/bin/Py_210123_eval/Release/src/dsp_hal_mdm_top.o
                                         0x79 (size before relaxing)
 .comment       0x00000bbe       0x79 D:/PYRAMID_SW/dsp_trunk/tags/Sphinx_0p3/testing_app/system_integration/bin/Py_210123_eval/Release/src/dsp_hal_sml1_top.o
                                         0x7a (size before relaxing)
 .comment       0x00000c37       0x75 D:/PYRAMID_SW/dsp_trunk/tags/Sphinx_0p3/testing_app/system_integration/bin/Py_210123_eval/Release/src/dsp_hal_sml3.o
                                         0x76 (size before relaxing)
 .comment       0x00000cac       0x76 D:/PYRAMID_SW/dsp_trunk/tags/Sphinx_0p3/testing_app/system_integration/bin/Py_210123_eval/Release/src/dsp_hal_timer.o
                                         0x77 (size before relaxing)
 .comment       0x00000d22       0x77 D:/PYRAMID_SW/dsp_trunk/tags/Sphinx_0p3/testing_app/system_integration/bin/Py_210123_eval/Release/src/dsp_intr_hndlr.o
                                         0x78 (size before relaxing)
 .comment       0x00000d99       0x71 D:/PYRAMID_SW/dsp_trunk/tags/Sphinx_0p3/testing_app/system_integration/bin/Py_210123_eval/Release/src/dsp_logs.o
                                         0x72 (size before relaxing)
 .comment       0x00000e0a       0x76 D:/PYRAMID_SW/dsp_trunk/tags/Sphinx_0p3/testing_app/system_integration/bin/Py_210123_eval/Release/src/dsp_m0_common.o
                                         0x77 (size before relaxing)
 .comment       0x00000e80       0x71 D:/PYRAMID_SW/dsp_trunk/tags/Sphinx_0p3/testing_app/system_integration/bin/Py_210123_eval/Release/src/dsp_mngr.o
                                         0x72 (size before relaxing)
 .comment       0x00000ef1       0x75 D:/PYRAMID_SW/dsp_trunk/tags/Sphinx_0p3/testing_app/system_integration/bin/Py_210123_eval/Release/src/dsp_sml0_apc.o
                                         0x76 (size before relaxing)
 .comment       0x00000f66       0x76 D:/PYRAMID_SW/dsp_trunk/tags/Sphinx_0p3/testing_app/system_integration/bin/Py_210123_eval/Release/src/dsp_sml0_lmac.o
                                         0x77 (size before relaxing)
 .comment       0x00000fdc       0x71 D:/PYRAMID_SW/dsp_trunk/tags/Sphinx_0p3/testing_app/system_integration/bin/Py_210123_eval/Release/src/dsp_sml1.o
                                         0x72 (size before relaxing)
 .comment       0x0000104d       0x79 D:/PYRAMID_SW/dsp_trunk/tags/Sphinx_0p3/testing_app/system_integration/bin/Py_210123_eval/Release/src/dsp_sml1_dyn_reg.o
                                         0x7a (size before relaxing)
 .comment       0x000010c6       0x75 D:/PYRAMID_SW/dsp_trunk/tags/Sphinx_0p3/testing_app/system_integration/bin/Py_210123_eval/Release/src/dsp_sml1_pcm.o
                                         0x76 (size before relaxing)
 .comment       0x0000113b       0x81 D:/PYRAMID_SW/dsp_trunk/tags/Sphinx_0p3/testing_app/system_integration/bin/Py_210123_eval/Release/src/dsp_sml1_pcm_dyn_reg_lut.o
                                         0x82 (size before relaxing)
 .comment       0x000011bc       0x7e D:/PYRAMID_SW/dsp_trunk/tags/Sphinx_0p3/testing_app/system_integration/bin/Py_210123_eval/Release/src/dsp_sml1_pcm_listener.o
                                         0x7f (size before relaxing)
 .comment       0x0000123a       0x86 D:/PYRAMID_SW/dsp_trunk/tags/Sphinx_0p3/testing_app/system_integration/bin/Py_210123_eval/Release/src/dsp_sml1_pcm_listener_user_ta.o
                                         0x87 (size before relaxing)
 .comment       0x000012c0       0x7c D:/PYRAMID_SW/dsp_trunk/tags/Sphinx_0p3/testing_app/system_integration/bin/Py_210123_eval/Release/src/dsp_sml1_pcm_poller.o
                                         0x7d (size before relaxing)
 .comment       0x0000133c       0x84 D:/PYRAMID_SW/dsp_trunk/tags/Sphinx_0p3/testing_app/system_integration/bin/Py_210123_eval/Release/src/dsp_sml1_pcm_poller_user_ta.o
                                         0x85 (size before relaxing)
 .comment       0x000013c0       0x7d D:/PYRAMID_SW/dsp_trunk/tags/Sphinx_0p3/testing_app/system_integration/bin/Py_210123_eval/Release/src/dsp_sml1_user_ta_lut.o
                                         0x7e (size before relaxing)
 .comment       0x0000143d       0x9b D:/PYRAMID_SW/dsp_trunk/tags/Sphinx_0p3/testing_app/system_integration/bin/Py_210123_eval/Release/test_10_loopbck_nfcv_rw.o
                                         0x9c (size before relaxing)
 .comment       0x000014d8       0x9e D:/PYRAMID_SW/dsp_trunk/tags/Sphinx_0p3/testing_app/system_integration/bin/Py_210123_eval/Release/test_1_loopbck_nfcf_rw_std.o
                                         0x9f (size before relaxing)
 .comment       0x00001576       0x9a D:/PYRAMID_SW/dsp_trunk/tags/Sphinx_0p3/testing_app/system_integration/bin/Py_210123_eval/Release/test_2_loopbck_nfcf_ce.o
                                         0x9b (size before relaxing)
 .comment       0x00001610       0x9e D:/PYRAMID_SW/dsp_trunk/tags/Sphinx_0p3/testing_app/system_integration/bin/Py_210123_eval/Release/test_3_loopbck_nfca_rw_std.o
                                         0x9f (size before relaxing)
 .comment       0x000016ae       0x9a D:/PYRAMID_SW/dsp_trunk/tags/Sphinx_0p3/testing_app/system_integration/bin/Py_210123_eval/Release/test_4_loopbck_nfca_ce.o
                                         0x9b (size before relaxing)
 .comment       0x00001748       0x9e D:/PYRAMID_SW/dsp_trunk/tags/Sphinx_0p3/testing_app/system_integration/bin/Py_210123_eval/Release/test_5_loopbck_nfca_rw_sdd.o
                                         0x9f (size before relaxing)
 .comment       0x000017e6       0xa3 D:/PYRAMID_SW/dsp_trunk/tags/Sphinx_0p3/testing_app/system_integration/bin/Py_210123_eval/Release/test_6_loopbck_nfca_ce_swp_intf.o
                                         0xa4 (size before relaxing)
 .comment       0x00001889       0x9a D:/PYRAMID_SW/dsp_trunk/tags/Sphinx_0p3/testing_app/system_integration/bin/Py_210123_eval/Release/test_7_loopbck_nfcb_rw.o
                                         0x9b (size before relaxing)
 .comment       0x00001923       0x9a D:/PYRAMID_SW/dsp_trunk/tags/Sphinx_0p3/testing_app/system_integration/bin/Py_210123_eval/Release/test_8_loopbck_nfcb_ce.o
                                         0x9b (size before relaxing)
 .comment       0x000019bd       0x9e D:/PYRAMID_SW/dsp_trunk/tags/Sphinx_0p3/testing_app/system_integration/bin/Py_210123_eval/Release/test_9_loopbck_nfca_rw_t1t.o
                                         0x9f (size before relaxing)
 .comment       0x00001a5b       0x94 D:/PYRAMID_SW/dsp_trunk/tags/Sphinx_0p3/testing_app/system_integration/bin/Py_210123_eval/Release/test_integration.o
                                         0x95 (size before relaxing)
 .comment       0x00001aef       0x28 C:/usr/xtensa/XtDevTools/install/builds/RI-2021.6-win32/Py_210123_eval/xtensa-elf/arch/lib/\libhandlers-board.a(xtos-interrupt-enable.o)
                                         0x29 (size before relaxing)
 .comment       0x00000000       0x29 C:/usr/xtensa/XtDevTools/install/builds/RI-2021.6-win32/Py_210123_eval/xtensa-elf/arch/lib/\libhandlers-board.a(xtos-set-inthandler.o)
 .comment       0x00000000       0x29 C:/usr/xtensa/XtDevTools/install/builds/RI-2021.6-win32/Py_210123_eval/xtensa-elf/arch/lib/\libhandlers-board.a(xtos-set-exchandler.o)
 .comment       0x00000000       0x29 C:/usr/xtensa/XtDevTools/install/builds/RI-2021.6-win32/Py_210123_eval/xtensa-elf/arch/lib/\libhal.a(const--intlevel.o)

.note.GNU-stack
                0x00000000        0x0
 .note.GNU-stack
                0x00000000        0x0 C:/usr/xtensa/XtDevTools/install/builds/RI-2021.6-win32/Py_210123_eval/xtensa-elf/arch/lib/\libhandlers-board.a(xtos-interrupt-enable.o)
 .note.GNU-stack
                0x00000000        0x0 C:/usr/xtensa/XtDevTools/install/builds/RI-2021.6-win32/Py_210123_eval/xtensa-elf/arch/lib/\libhandlers-board.a(xtos-set-inthandler.o)
 .note.GNU-stack
                0x00000000        0x0 C:/usr/xtensa/XtDevTools/install/builds/RI-2021.6-win32/Py_210123_eval/xtensa-elf/arch/lib/\libhandlers-board.a(xtos-set-exchandler.o)
 .note.GNU-stack
                0x00000000        0x0 C:/usr/xtensa/XtDevTools/install/builds/RI-2021.6-win32/Py_210123_eval/xtensa-elf/arch/lib/\libhal.a(const--intlevel.o)

Memory Configuration

Name             Origin          Length          Used            Unused          Attributes
irom0_0_seg      0x50000000      0x00000300      0x000000f0      0x00000210      
dv_0_seg         0x50000400      0x00000178      0x0000016c      0x0000000c      
dv_1_seg         0x50000578      0x00000008      0x00000000      0x00000008      
dv_2_seg         0x50000580      0x00000038      0x00000008      0x00000030      
dv_3_seg         0x500005b8      0x00000008      0x00000000      0x00000008      
dv_4_seg         0x500005c0      0x00000038      0x00000008      0x00000030      
dv_5_seg         0x500005f8      0x00000008      0x00000000      0x00000008      
dv_6_seg         0x50000600      0x00000038      0x0000000c      0x0000002c      
dv_7_seg         0x50000638      0x00000008      0x00000000      0x00000008      
dv_8_seg         0x50000640      0x00000038      0x00000008      0x00000030      
dv_9_seg         0x50000678      0x00000008      0x00000004      0x00000004      
dv_10_seg        0x50000680      0x00000038      0x00000018      0x00000020      
dv_11_seg        0x500006b8      0x00000048      0x00000000      0x00000048      
dv_12_seg        0x50000700      0x0000f900      0x0000f900      0x00000000      
drom0_0_seg      0x50040000      0x00008000      0x000056ac      0x00002954      
ipatch_seg       0x50080000      0x00008000      0x00000000      0x00008000      
dnoload_seg      0x500a0000      0x00002200      0x0000214c      0x000000b4      
dram0_0_seg      0x500a2200      0x00002000      0x00001750      0x000008b0      
dpatch_seg       0x500a4200      0x00003e00      0x00000000      0x00003e00      
iram1_0_seg      0x500b0000      0x00004000      0x00000000      0x00004000      
iram1_1_seg      0x500b4000      0x00002000      0x00000000      0x00002000      
iram1_2_seg      0x500b6000      0x00002000      0x00000000      0x00002000      
dram1_0_seg      0x500c0000      0x00004000      0x00000000      0x00004000      
dram1_1_seg      0x500c4000      0x00002000      0x00000000      0x00002000      
dram1_2_seg      0x500c6000      0x00002000      0x00000000      0x00002000      
*default*        0x00000000      0xffffffff      
