Archive member included because of file (symbol)

C:/usr/xtensa/XtDevTools/install/builds/RI-2021.6-win32/Py_210123_eval/xtensa-elf/lib/xcc/\libgcc.a(_udivsi3.o)
                              D:/PYRAMID_SW/dsp_trunk/tags/Sphinx_0p2/testing_app/system_integration/bin/Py_210123_eval/Release/src/dsp_cli_nfca_tx.o (__udivsi3)
C:/usr/xtensa/XtDevTools/install/builds/RI-2021.6-win32/Py_210123_eval/xtensa-elf/arch/lib/\libhandler-reset-unpack.a(reset-vector-unpack.o)
                              (_ResetVector)
C:/usr/xtensa/XtDevTools/install/builds/RI-2021.6-win32/Py_210123_eval/xtensa-elf/arch/lib/\libhandlers-board.a(xtos-interrupt-enable.o)
                              D:/PYRAMID_SW/dsp_trunk/tags/Sphinx_0p2/testing_app/system_integration/bin/Py_210123_eval/Release/src/dsp_hal_intr.o (xtos_interrupt_enable)
C:/usr/xtensa/XtDevTools/install/builds/RI-2021.6-win32/Py_210123_eval/xtensa-elf/arch/lib/\libhandlers-board.a(xtos-interrupt-disable.o)
                              D:/PYRAMID_SW/dsp_trunk/tags/Sphinx_0p2/testing_app/system_integration/bin/Py_210123_eval/Release/src/dsp_hal_intr.o (xtos_interrupt_disable)
C:/usr/xtensa/XtDevTools/install/builds/RI-2021.6-win32/Py_210123_eval/xtensa-elf/arch/lib/\libhandlers-board.a(xtos-interrupt-clear.o)
                              D:/PYRAMID_SW/dsp_trunk/tags/Sphinx_0p2/testing_app/system_integration/bin/Py_210123_eval/Release/src/dsp_hal_intr.o (xtos_interrupt_clear)
C:/usr/xtensa/XtDevTools/install/builds/RI-2021.6-win32/Py_210123_eval/xtensa-elf/arch/lib/\libhandlers-board.a(xtos-set-inthandler.o)
                              D:/PYRAMID_SW/dsp_trunk/tags/Sphinx_0p2/testing_app/system_integration/bin/Py_210123_eval/Release/src/dsp_hal_intr.o (xtos_set_interrupt_handler)
C:/usr/xtensa/XtDevTools/install/builds/RI-2021.6-win32/Py_210123_eval/xtensa-elf/arch/lib/\libhandlers-board.a(xtos-set-exchandler.o)
                              D:/PYRAMID_SW/dsp_trunk/tags/Sphinx_0p2/testing_app/system_integration/bin/Py_210123_eval/Release/src/dsp_mngr.o (xtos_set_exception_handler)
C:/usr/xtensa/XtDevTools/install/builds/RI-2021.6-win32/Py_210123_eval/xtensa-elf/arch/lib/\libhandlers-board.a(exc-syscall-handler.o)
                              (_xtos_syscall_handler)
C:/usr/xtensa/XtDevTools/install/builds/RI-2021.6-win32/Py_210123_eval/xtensa-elf/arch/lib/\libhandlers-board.a(exc-table.o)
                              C:/usr/xtensa/XtDevTools/install/builds/RI-2021.6-win32/Py_210123_eval/xtensa-elf/arch/lib/\libhandlers-board.a(xtos-set-exchandler.o) (xtos_c_handler_table)
C:/usr/xtensa/XtDevTools/install/builds/RI-2021.6-win32/Py_210123_eval/xtensa-elf/arch/lib/\libhandlers-board.a(interrupt-table.o)
                              C:/usr/xtensa/XtDevTools/install/builds/RI-2021.6-win32/Py_210123_eval/xtensa-elf/arch/lib/\libhandlers-board.a(xtos-interrupt-enable.o) (xtos_enabled)
C:/usr/xtensa/XtDevTools/install/builds/RI-2021.6-win32/Py_210123_eval/xtensa-elf/arch/lib/\libhandlers-board.a(user-vector.o)
                              C:/usr/xtensa/XtDevTools/install/builds/RI-2021.6-win32/Py_210123_eval/xtensa-elf/arch/lib/\libhandlers-board.a(xtos-set-exchandler.o) (xtos_exc_handler_table)
C:/usr/xtensa/XtDevTools/install/builds/RI-2021.6-win32/Py_210123_eval/xtensa-elf/arch/lib/\libhandlers-board.a(exc-c-wrapper-handler.o)
                              C:/usr/xtensa/XtDevTools/install/builds/RI-2021.6-win32/Py_210123_eval/xtensa-elf/arch/lib/\libhandlers-board.a(xtos-set-exchandler.o) (xtos_c_wrapper_handler)
C:/usr/xtensa/XtDevTools/install/builds/RI-2021.6-win32/Py_210123_eval/xtensa-elf/arch/lib/\libhandlers-board.a(exc-return.o)
                              C:/usr/xtensa/XtDevTools/install/builds/RI-2021.6-win32/Py_210123_eval/xtensa-elf/arch/lib/\libhandlers-board.a(exc-c-wrapper-handler.o) (_xtos_return_from_exc)
C:/usr/xtensa/XtDevTools/install/builds/RI-2021.6-win32/Py_210123_eval/xtensa-elf/arch/lib/\libhandlers-board.a(int-lowpri-dispatcher.o)
                              C:/usr/xtensa/XtDevTools/install/builds/RI-2021.6-win32/Py_210123_eval/xtensa-elf/arch/lib/\libhandlers-board.a(user-vector.o) (_xtos_l1int_handler)
C:/usr/xtensa/XtDevTools/install/builds/RI-2021.6-win32/Py_210123_eval/xtensa-elf/arch/lib/\libhandlers-board.a(window-vectors.o)
                              (_xtos_alloca_handler)
C:/usr/xtensa/XtDevTools/install/builds/RI-2021.6-win32/Py_210123_eval/xtensa-elf/arch/lib/\libhandlers-board.a(int-init-level1.o)
                              D:/PYRAMID_SW/dsp_trunk/tags/Sphinx_0p2/testing_app/system_integration/bin/Py_210123_eval/Release/src/dsp_hal_intr.o (xtos_dispatch_level1_interrupts)
C:/usr/xtensa/XtDevTools/install/builds/RI-2021.6-win32/Py_210123_eval/xtensa-elf/arch/lib/\libhandlers-board.a(int-init-level2.o)
                              D:/PYRAMID_SW/dsp_trunk/tags/Sphinx_0p2/testing_app/system_integration/bin/Py_210123_eval/Release/src/dsp_hal_intr.o (xtos_dispatch_level2_interrupts)
C:/usr/xtensa/XtDevTools/install/builds/RI-2021.6-win32/Py_210123_eval/xtensa-elf/arch/lib/\libhandlers-board.a(int-init-level3.o)
                              D:/PYRAMID_SW/dsp_trunk/tags/Sphinx_0p2/testing_app/system_integration/bin/Py_210123_eval/Release/src/dsp_hal_intr.o (xtos_dispatch_level3_interrupts)
C:/usr/xtensa/XtDevTools/install/builds/RI-2021.6-win32/Py_210123_eval/xtensa-elf/arch/lib/\libhandlers-board.a(exc-unhandled.o)
                              C:/usr/xtensa/XtDevTools/install/builds/RI-2021.6-win32/Py_210123_eval/xtensa-elf/arch/lib/\libhandlers-board.a(xtos-set-exchandler.o) (xtos_unhandled_exception)
C:/usr/xtensa/XtDevTools/install/builds/RI-2021.6-win32/Py_210123_eval/xtensa-elf/arch/lib/\libhandlers-board.a(tiny-refs-S--level1int-.o)
                              C:/usr/xtensa/XtDevTools/install/builds/RI-2021.6-win32/Py_210123_eval/xtensa-elf/arch/lib/\libhandlers-board.a(int-init-level1.o) (_need_level1int_)
C:/usr/xtensa/XtDevTools/install/builds/RI-2021.6-win32/Py_210123_eval/xtensa-elf/arch/lib/\libhandlers-board.a(int-vector-level2.o)
                              C:/usr/xtensa/XtDevTools/install/builds/RI-2021.6-win32/Py_210123_eval/xtensa-elf/arch/lib/\libhandlers-board.a(int-init-level2.o) (_Level2Vector)
C:/usr/xtensa/XtDevTools/install/builds/RI-2021.6-win32/Py_210123_eval/xtensa-elf/arch/lib/\libhandlers-board.a(int-vector-level3.o)
                              C:/usr/xtensa/XtDevTools/install/builds/RI-2021.6-win32/Py_210123_eval/xtensa-elf/arch/lib/\libhandlers-board.a(int-init-level3.o) (_Level3Vector)
C:/usr/xtensa/XtDevTools/install/builds/RI-2021.6-win32/Py_210123_eval/xtensa-elf/arch/lib/\libhandlers-board.a(int-handler-level2.o)
                              C:/usr/xtensa/XtDevTools/install/builds/RI-2021.6-win32/Py_210123_eval/xtensa-elf/arch/lib/\libhandlers-board.a(int-vector-level2.o) (_Level2FromVector)
C:/usr/xtensa/XtDevTools/install/builds/RI-2021.6-win32/Py_210123_eval/xtensa-elf/arch/lib/\libhandlers-board.a(int-handler-level3.o)
                              C:/usr/xtensa/XtDevTools/install/builds/RI-2021.6-win32/Py_210123_eval/xtensa-elf/arch/lib/\libhandlers-board.a(int-vector-level3.o) (_Level3FromVector)
C:/usr/xtensa/XtDevTools/install/builds/RI-2021.6-win32/Py_210123_eval/xtensa-elf/arch/lib/\libhandlers-min.a(tiny-refs-min.o)
                              C:/usr/xtensa/XtDevTools/install/builds/RI-2021.6-win32/Py_210123_eval/xtensa-elf/arch/lib/\libhandlers-board.a(exc-syscall-handler.o) (_need_user_vector_)
C:/usr/xtensa/XtDevTools/install/builds/RI-2021.6-win32/Py_210123_eval/xtensa-elf/arch/lib/\libhandlers-null.a(_vectors.o)
                              (_xtos_vectors_ref_)
C:/usr/xtensa/XtDevTools/install/builds/RI-2021.6-win32/Py_210123_eval/xtensa-elf/arch/lib/\libhandlers-null.a(_sharedvectors.o)
                              (_xtos_sharedvectors_ref_)
C:/usr/xtensa/XtDevTools/install/builds/RI-2021.6-win32/Py_210123_eval/xtensa-elf/arch/lib/\libhandlers-board.a(debug-vector.o)
                              C:/usr/xtensa/XtDevTools/install/builds/RI-2021.6-win32/Py_210123_eval/xtensa-elf/arch/lib/\libhandlers-null.a(_vectors.o) (_DebugExceptionVector)
C:/usr/xtensa/XtDevTools/install/builds/RI-2021.6-win32/Py_210123_eval/xtensa-elf/arch/lib/\libhandlers-board.a(double-vector.o)
                              C:/usr/xtensa/XtDevTools/install/builds/RI-2021.6-win32/Py_210123_eval/xtensa-elf/arch/lib/\libhandlers-null.a(_vectors.o) (_DoubleExceptionVector)
C:/usr/xtensa/XtDevTools/install/builds/RI-2021.6-win32/Py_210123_eval/xtensa-elf/arch/lib/\libhandlers-board.a(kernel-vector.o)
                              C:/usr/xtensa/XtDevTools/install/builds/RI-2021.6-win32/Py_210123_eval/xtensa-elf/arch/lib/\libhandlers-null.a(_vectors.o) (_KernelExceptionVector)
C:/usr/xtensa/XtDevTools/install/builds/RI-2021.6-win32/Py_210123_eval/xtensa-elf/arch/lib/\libhal.a(cache_asm--hw_configid0.o)
                              C:/usr/xtensa/XtDevTools/install/builds/RI-2021.6-win32/Py_210123_eval/xtensa-elf/arch/lib/\libhandler-reset-unpack.a(reset-vector-unpack.o) (xthals_hw_configid0)
C:/usr/xtensa/XtDevTools/install/builds/RI-2021.6-win32/Py_210123_eval/xtensa-elf/arch/lib/\libhal.a(cache_asm--hw_configid1.o)
                              C:/usr/xtensa/XtDevTools/install/builds/RI-2021.6-win32/Py_210123_eval/xtensa-elf/arch/lib/\libhandler-reset-unpack.a(reset-vector-unpack.o) (xthals_hw_configid1)
C:/usr/xtensa/XtDevTools/install/builds/RI-2021.6-win32/Py_210123_eval/xtensa-elf/arch/lib/\libhal.a(cache_asm--release_major.o)
                              C:/usr/xtensa/XtDevTools/install/builds/RI-2021.6-win32/Py_210123_eval/xtensa-elf/arch/lib/\libhandler-reset-unpack.a(reset-vector-unpack.o) (xthals_release_major)
C:/usr/xtensa/XtDevTools/install/builds/RI-2021.6-win32/Py_210123_eval/xtensa-elf/arch/lib/\libhal.a(cache_asm--release_minor.o)
                              C:/usr/xtensa/XtDevTools/install/builds/RI-2021.6-win32/Py_210123_eval/xtensa-elf/arch/lib/\libhandler-reset-unpack.a(reset-vector-unpack.o) (xthals_release_minor)
C:/usr/xtensa/XtDevTools/install/builds/RI-2021.6-win32/Py_210123_eval/xtensa-elf/arch/lib/\libhal.a(const--intlevel.o)
                              C:/usr/xtensa/XtDevTools/install/builds/RI-2021.6-win32/Py_210123_eval/xtensa-elf/arch/lib/\libhandlers-board.a(xtos-set-inthandler.o) (Xthal_intlevel)

Allocating common symbols
Common symbol       size              file

__AE_SEARCHDONE     0x4               D:/PYRAMID_SW/dsp_trunk/tags/Sphinx_0p2/testing_app/system_integration/bin/Py_210123_eval/Release/dsp_verification.o
__AE_NEXTOFFSET     0x4               D:/PYRAMID_SW/dsp_trunk/tags/Sphinx_0p2/testing_app/system_integration/bin/Py_210123_eval/Release/dsp_verification.o
__AE_FIRST_TS       0x4               D:/PYRAMID_SW/dsp_trunk/tags/Sphinx_0p2/testing_app/system_integration/bin/Py_210123_eval/Release/dsp_verification.o
__AE_TABLESIZE      0x4               D:/PYRAMID_SW/dsp_trunk/tags/Sphinx_0p2/testing_app/system_integration/bin/Py_210123_eval/Release/dsp_verification.o

Linker script and memory map

LOAD C:/usr/xtensa/XtDevTools/install/builds/RI-2021.6-win32/Py_210123_eval/xtensa-elf/arch/lib/crt1-tiny.o
LOAD D:/PYRAMID_SW/dsp_trunk/tags/Sphinx_0p2/testing_app/system_integration/bin/Py_210123_eval/Release/dsp_verification.o
LOAD D:/PYRAMID_SW/dsp_trunk/tags/Sphinx_0p2/testing_app/system_integration/bin/Py_210123_eval/Release/main.o
LOAD D:/PYRAMID_SW/dsp_trunk/tags/Sphinx_0p2/testing_app/system_integration/bin/Py_210123_eval/Release/src/dsp_bootloader.o
LOAD D:/PYRAMID_SW/dsp_trunk/tags/Sphinx_0p2/testing_app/system_integration/bin/Py_210123_eval/Release/src/dsp_cli_nfca_rx.o
LOAD D:/PYRAMID_SW/dsp_trunk/tags/Sphinx_0p2/testing_app/system_integration/bin/Py_210123_eval/Release/src/dsp_cli_nfca_tx.o
LOAD D:/PYRAMID_SW/dsp_trunk/tags/Sphinx_0p2/testing_app/system_integration/bin/Py_210123_eval/Release/src/dsp_cli_nfcb_rx.o
LOAD D:/PYRAMID_SW/dsp_trunk/tags/Sphinx_0p2/testing_app/system_integration/bin/Py_210123_eval/Release/src/dsp_cli_nfcb_tx.o
LOAD D:/PYRAMID_SW/dsp_trunk/tags/Sphinx_0p2/testing_app/system_integration/bin/Py_210123_eval/Release/src/dsp_cli_nfcf_rx.o
LOAD D:/PYRAMID_SW/dsp_trunk/tags/Sphinx_0p2/testing_app/system_integration/bin/Py_210123_eval/Release/src/dsp_cli_nfcf_tx.o
LOAD D:/PYRAMID_SW/dsp_trunk/tags/Sphinx_0p2/testing_app/system_integration/bin/Py_210123_eval/Release/src/dsp_cli_nfcv_rx.o
LOAD D:/PYRAMID_SW/dsp_trunk/tags/Sphinx_0p2/testing_app/system_integration/bin/Py_210123_eval/Release/src/dsp_cli_nfcv_tx.o
LOAD D:/PYRAMID_SW/dsp_trunk/tags/Sphinx_0p2/testing_app/system_integration/bin/Py_210123_eval/Release/src/dsp_cli_rx.o
LOAD D:/PYRAMID_SW/dsp_trunk/tags/Sphinx_0p2/testing_app/system_integration/bin/Py_210123_eval/Release/src/dsp_cli_tx.o
LOAD D:/PYRAMID_SW/dsp_trunk/tags/Sphinx_0p2/testing_app/system_integration/bin/Py_210123_eval/Release/src/dsp_cli_utils.o
LOAD D:/PYRAMID_SW/dsp_trunk/tags/Sphinx_0p2/testing_app/system_integration/bin/Py_210123_eval/Release/src/dsp_cli_wind_lut.o
LOAD D:/PYRAMID_SW/dsp_trunk/tags/Sphinx_0p2/testing_app/system_integration/bin/Py_210123_eval/Release/src/dsp_evnt_mngr.o
LOAD D:/PYRAMID_SW/dsp_trunk/tags/Sphinx_0p2/testing_app/system_integration/bin/Py_210123_eval/Release/src/dsp_hal.o
LOAD D:/PYRAMID_SW/dsp_trunk/tags/Sphinx_0p2/testing_app/system_integration/bin/Py_210123_eval/Release/src/dsp_hal_activetop.o
LOAD D:/PYRAMID_SW/dsp_trunk/tags/Sphinx_0p2/testing_app/system_integration/bin/Py_210123_eval/Release/src/dsp_hal_cli_top.o
LOAD D:/PYRAMID_SW/dsp_trunk/tags/Sphinx_0p2/testing_app/system_integration/bin/Py_210123_eval/Release/src/dsp_hal_dsp_top.o
LOAD D:/PYRAMID_SW/dsp_trunk/tags/Sphinx_0p2/testing_app/system_integration/bin/Py_210123_eval/Release/src/dsp_hal_fifo.o
LOAD D:/PYRAMID_SW/dsp_trunk/tags/Sphinx_0p2/testing_app/system_integration/bin/Py_210123_eval/Release/src/dsp_hal_hmb.o
LOAD D:/PYRAMID_SW/dsp_trunk/tags/Sphinx_0p2/testing_app/system_integration/bin/Py_210123_eval/Release/src/dsp_hal_intr.o
LOAD D:/PYRAMID_SW/dsp_trunk/tags/Sphinx_0p2/testing_app/system_integration/bin/Py_210123_eval/Release/src/dsp_hal_mdm_top.o
LOAD D:/PYRAMID_SW/dsp_trunk/tags/Sphinx_0p2/testing_app/system_integration/bin/Py_210123_eval/Release/src/dsp_hal_sml1_top.o
LOAD D:/PYRAMID_SW/dsp_trunk/tags/Sphinx_0p2/testing_app/system_integration/bin/Py_210123_eval/Release/src/dsp_hal_sml3.o
LOAD D:/PYRAMID_SW/dsp_trunk/tags/Sphinx_0p2/testing_app/system_integration/bin/Py_210123_eval/Release/src/dsp_hal_timer.o
LOAD D:/PYRAMID_SW/dsp_trunk/tags/Sphinx_0p2/testing_app/system_integration/bin/Py_210123_eval/Release/src/dsp_intr_hndlr.o
LOAD D:/PYRAMID_SW/dsp_trunk/tags/Sphinx_0p2/testing_app/system_integration/bin/Py_210123_eval/Release/src/dsp_logs.o
LOAD D:/PYRAMID_SW/dsp_trunk/tags/Sphinx_0p2/testing_app/system_integration/bin/Py_210123_eval/Release/src/dsp_m0_common.o
LOAD D:/PYRAMID_SW/dsp_trunk/tags/Sphinx_0p2/testing_app/system_integration/bin/Py_210123_eval/Release/src/dsp_mngr.o
LOAD D:/PYRAMID_SW/dsp_trunk/tags/Sphinx_0p2/testing_app/system_integration/bin/Py_210123_eval/Release/src/dsp_sml0_apc.o
LOAD D:/PYRAMID_SW/dsp_trunk/tags/Sphinx_0p2/testing_app/system_integration/bin/Py_210123_eval/Release/src/dsp_sml0_lmac.o
LOAD D:/PYRAMID_SW/dsp_trunk/tags/Sphinx_0p2/testing_app/system_integration/bin/Py_210123_eval/Release/src/dsp_sml1.o
LOAD D:/PYRAMID_SW/dsp_trunk/tags/Sphinx_0p2/testing_app/system_integration/bin/Py_210123_eval/Release/src/dsp_sml1_dyn_reg.o
LOAD D:/PYRAMID_SW/dsp_trunk/tags/Sphinx_0p2/testing_app/system_integration/bin/Py_210123_eval/Release/src/dsp_sml1_pcm.o
LOAD D:/PYRAMID_SW/dsp_trunk/tags/Sphinx_0p2/testing_app/system_integration/bin/Py_210123_eval/Release/src/dsp_sml1_pcm_dyn_reg_lut.o
LOAD D:/PYRAMID_SW/dsp_trunk/tags/Sphinx_0p2/testing_app/system_integration/bin/Py_210123_eval/Release/src/dsp_sml1_pcm_listener.o
LOAD D:/PYRAMID_SW/dsp_trunk/tags/Sphinx_0p2/testing_app/system_integration/bin/Py_210123_eval/Release/src/dsp_sml1_pcm_listener_user_ta.o
LOAD D:/PYRAMID_SW/dsp_trunk/tags/Sphinx_0p2/testing_app/system_integration/bin/Py_210123_eval/Release/src/dsp_sml1_pcm_poller.o
LOAD D:/PYRAMID_SW/dsp_trunk/tags/Sphinx_0p2/testing_app/system_integration/bin/Py_210123_eval/Release/src/dsp_sml1_pcm_poller_user_ta.o
LOAD D:/PYRAMID_SW/dsp_trunk/tags/Sphinx_0p2/testing_app/system_integration/bin/Py_210123_eval/Release/src/dsp_sml1_user_ta_lut.o
LOAD D:/PYRAMID_SW/dsp_trunk/tags/Sphinx_0p2/testing_app/system_integration/bin/Py_210123_eval/Release/test_10_loopbck_nfcv_rw.o
LOAD D:/PYRAMID_SW/dsp_trunk/tags/Sphinx_0p2/testing_app/system_integration/bin/Py_210123_eval/Release/test_1_loopbck_nfcf_rw_std.o
LOAD D:/PYRAMID_SW/dsp_trunk/tags/Sphinx_0p2/testing_app/system_integration/bin/Py_210123_eval/Release/test_2_loopbck_nfcf_ce.o
LOAD D:/PYRAMID_SW/dsp_trunk/tags/Sphinx_0p2/testing_app/system_integration/bin/Py_210123_eval/Release/test_3_loopbck_nfca_rw_std.o
LOAD D:/PYRAMID_SW/dsp_trunk/tags/Sphinx_0p2/testing_app/system_integration/bin/Py_210123_eval/Release/test_4_loopbck_nfca_ce.o
LOAD D:/PYRAMID_SW/dsp_trunk/tags/Sphinx_0p2/testing_app/system_integration/bin/Py_210123_eval/Release/test_5_loopbck_nfca_rw_sdd.o
LOAD D:/PYRAMID_SW/dsp_trunk/tags/Sphinx_0p2/testing_app/system_integration/bin/Py_210123_eval/Release/test_6_loopbck_nfca_ce_swp_intf.o
LOAD D:/PYRAMID_SW/dsp_trunk/tags/Sphinx_0p2/testing_app/system_integration/bin/Py_210123_eval/Release/test_7_loopbck_nfcb_rw.o
LOAD D:/PYRAMID_SW/dsp_trunk/tags/Sphinx_0p2/testing_app/system_integration/bin/Py_210123_eval/Release/test_8_loopbck_nfcb_ce.o
LOAD D:/PYRAMID_SW/dsp_trunk/tags/Sphinx_0p2/testing_app/system_integration/bin/Py_210123_eval/Release/test_9_loopbck_nfca_rw_t1t.o
LOAD D:/PYRAMID_SW/dsp_trunk/tags/Sphinx_0p2/testing_app/system_integration/bin/Py_210123_eval/Release/test_integration.o
LOAD C:/usr/xtensa/XtDevTools/install/builds/RI-2021.6-win32/Py_210123_eval/xtensa-elf/lib/\libstdc++.a
LOAD C:/usr/xtensa/XtDevTools/install/builds/RI-2021.6-win32/Py_210123_eval/xtensa-elf/lib/\libm.a
LOAD C:/usr/xtensa/XtDevTools/install/builds/RI-2021.6-win32/Py_210123_eval/xtensa-elf/lib/xcc/\libgcc.a
LOAD C:/usr/xtensa/XtDevTools/install/builds/RI-2021.6-win32/Py_210123_eval/xtensa-elf/lib/\libc.a
LOAD C:/usr/xtensa/XtDevTools/install/builds/RI-2021.6-win32/Py_210123_eval/xtensa-elf/lib/\libgloss.a
LOAD C:/usr/xtensa/XtDevTools/install/builds/RI-2021.6-win32/Py_210123_eval/xtensa-elf/arch/lib/\libtinyrt.a
LOAD C:/usr/xtensa/XtDevTools/install/builds/RI-2021.6-win32/Py_210123_eval/xtensa-elf/lib/\libc.a
LOAD C:/usr/xtensa/XtDevTools/install/builds/RI-2021.6-win32/Py_210123_eval/xtensa-elf/arch/lib/\libhandler-reset-unpack.a
LOAD C:/usr/xtensa/XtDevTools/install/builds/RI-2021.6-win32/Py_210123_eval/xtensa-elf/arch/lib/\libhandlers-board.a
LOAD C:/usr/xtensa/XtDevTools/install/builds/RI-2021.6-win32/Py_210123_eval/xtensa-elf/arch/lib/\libhandlers-min.a
LOAD C:/usr/xtensa/XtDevTools/install/builds/RI-2021.6-win32/Py_210123_eval/xtensa-elf/arch/lib/\libhandlers-null.a
LOAD C:/usr/xtensa/XtDevTools/install/builds/RI-2021.6-win32/Py_210123_eval/xtensa-elf/arch/lib/\libhandler-reset.a
LOAD C:/usr/xtensa/XtDevTools/install/builds/RI-2021.6-win32/Py_210123_eval/xtensa-elf/arch/lib/\libhandlers-board.a
LOAD C:/usr/xtensa/XtDevTools/install/builds/RI-2021.6-win32/Py_210123_eval/xtensa-elf/arch/lib/\libtinyrt.a
LOAD C:/usr/xtensa/XtDevTools/install/builds/RI-2021.6-win32/Py_210123_eval/xtensa-elf/arch/lib/\libhal.a
LOAD C:/usr/xtensa/XtDevTools/install/builds/RI-2021.6-win32/Py_210123_eval/xtensa-elf/lib/\libc.a
LOAD C:/usr/xtensa/XtDevTools/install/builds/RI-2021.6-win32/Py_210123_eval/xtensa-elf/lib/xcc/\libgcc.a
                0x50000000                _memmap_mem_irom0_start = 0x50000000
                0x50010000                _memmap_mem_irom0_end = 0x50010000
                0x50040000                _memmap_mem_drom0_start = 0x50040000
                0x50048000                _memmap_mem_drom0_end = 0x50048000
                0x50080000                _memmap_mem_iram0_start = 0x50080000
                0x50088000                _memmap_mem_iram0_end = 0x50088000
                0x500a0000                _memmap_mem_dram0_start = 0x500a0000
                0x500a8000                _memmap_mem_dram0_end = 0x500a8000
                0x500b0000                _memmap_mem_iram1_start = 0x500b0000
                0x500b8000                _memmap_mem_iram1_end = 0x500b8000
                0x500c0000                _memmap_mem_dram1_start = 0x500c0000
                0x500c8000                _memmap_mem_dram1_end = 0x500c8000
                0x80000000                _memmap_mem_srom_start = 0x80000000
                0x80100000                _memmap_mem_srom_end = 0x80100000
                0x90000000                _memmap_mem_sram_start = 0x90000000
                0x90100000                _memmap_mem_sram_end = 0x90100000
                0x50000000                _memmap_seg_irom0_0_start = 0x50000000
                0x50000300                _memmap_seg_irom0_0_max = 0x50000300
                0x50000400                _memmap_seg_dv_0_start = 0x50000400
                0x50000578                _memmap_seg_dv_0_max = 0x50000578
                0x50000578                _memmap_seg_dv_1_start = 0x50000578
                0x50000580                _memmap_seg_dv_1_max = 0x50000580
                0x50000580                _memmap_seg_dv_2_start = 0x50000580
                0x500005b8                _memmap_seg_dv_2_max = 0x500005b8
                0x500005b8                _memmap_seg_dv_3_start = 0x500005b8
                0x500005c0                _memmap_seg_dv_3_max = 0x500005c0
                0x500005c0                _memmap_seg_dv_4_start = 0x500005c0
                0x500005f8                _memmap_seg_dv_4_max = 0x500005f8
                0x500005f8                _memmap_seg_dv_5_start = 0x500005f8
                0x50000600                _memmap_seg_dv_5_max = 0x50000600
                0x50000600                _memmap_seg_dv_6_start = 0x50000600
                0x50000638                _memmap_seg_dv_6_max = 0x50000638
                0x50000638                _memmap_seg_dv_7_start = 0x50000638
                0x50000640                _memmap_seg_dv_7_max = 0x50000640
                0x50000640                _memmap_seg_dv_8_start = 0x50000640
                0x50000678                _memmap_seg_dv_8_max = 0x50000678
                0x50000678                _memmap_seg_dv_9_start = 0x50000678
                0x50000680                _memmap_seg_dv_9_max = 0x50000680
                0x50000680                _memmap_seg_dv_10_start = 0x50000680
                0x500006b8                _memmap_seg_dv_10_max = 0x500006b8
                0x500006b8                _memmap_seg_dv_11_start = 0x500006b8
                0x50000700                _memmap_seg_dv_11_max = 0x50000700
                0x50000700                _memmap_seg_dv_12_start = 0x50000700
                0x50010000                _memmap_seg_dv_12_max = 0x50010000
                0x50040000                _memmap_seg_drom0_0_start = 0x50040000
                0x50048000                _memmap_seg_drom0_0_max = 0x50048000
                0x50080000                _memmap_seg_ipatch_start = 0x50080000
                0x50088000                _memmap_seg_ipatch_max = 0x50088000
                0x500a0000                _memmap_seg_dnoload_start = 0x500a0000
                0x500a2200                _memmap_seg_dnoload_max = 0x500a2200
                0x500a2200                _memmap_seg_dram0_0_start = 0x500a2200
                0x500a3800                _memmap_seg_dram0_0_max = 0x500a3800
                0x500a3800                _memmap_seg_dpatch_start = 0x500a3800
                0x500a8000                _memmap_seg_dpatch_max = 0x500a8000
                0x500b0000                _memmap_seg_iram1_0_start = 0x500b0000
                0x500b4000                _memmap_seg_iram1_0_max = 0x500b4000
                0x500b4000                _memmap_seg_iram1_1_start = 0x500b4000
                0x500b6000                _memmap_seg_iram1_1_max = 0x500b6000
                0x500b6000                _memmap_seg_iram1_2_start = 0x500b6000
                0x500b8000                _memmap_seg_iram1_2_max = 0x500b8000
                0x500c0000                _memmap_seg_dram1_0_start = 0x500c0000
                0x500c4000                _memmap_seg_dram1_0_max = 0x500c4000
                0x500c4000                _memmap_seg_dram1_1_start = 0x500c4000
                0x500c6000                _memmap_seg_dram1_1_max = 0x500c6000
                0x500c6000                _memmap_seg_dram1_2_start = 0x500c6000
                0x500c8000                _memmap_seg_dram1_2_max = 0x500c8000
                0x00000000                _rom_store_table = 0x0
                0x50000000                PROVIDE (_memmap_reset_vector, 0x50000000)
                0x50000400                PROVIDE (_memmap_vecbase_reset, 0x50000400)
                0x00011200                _memmap_cacheattr_wb_base = 0x11200
                0x00011200                _memmap_cacheattr_wt_base = 0x11200
                0x00022200                _memmap_cacheattr_bp_base = 0x22200
                0xfff000ff                _memmap_cacheattr_unused_mask = 0xfff000ff
                0x2221122f                _memmap_cacheattr_wb_trapnull = 0x2221122f
                0x2221122f                _memmap_cacheattr_wba_trapnull = 0x2221122f
                0x2221122f                _memmap_cacheattr_wbna_trapnull = 0x2221122f
                0x2221122f                _memmap_cacheattr_wt_trapnull = 0x2221122f
                0x2222222f                _memmap_cacheattr_bp_trapnull = 0x2222222f
                0xfff112ff                _memmap_cacheattr_wb_strict = 0xfff112ff
                0xfff112ff                _memmap_cacheattr_wt_strict = 0xfff112ff
                0xfff222ff                _memmap_cacheattr_bp_strict = 0xfff222ff
                0x22211222                _memmap_cacheattr_wb_allvalid = 0x22211222
                0x22211222                _memmap_cacheattr_wt_allvalid = 0x22211222
                0x22222222                _memmap_cacheattr_bp_allvalid = 0x22222222
                0x0000001c                _memmap_region_map = 0x1c
                0x2221122f                PROVIDE (_memmap_cacheattr_reset, _memmap_cacheattr_wb_trapnull)

.ResetVector.text
                0x50000000       0xf0
                0x50000000                _ResetVector_text_start = ABSOLUTE (.)
 *(.ResetVector.text)
 .ResetVector.text
                0x50000000       0xef C:/usr/xtensa/XtDevTools/install/builds/RI-2021.6-win32/Py_210123_eval/xtensa-elf/arch/lib/\libhandler-reset-unpack.a(reset-vector-unpack.o)
                                         0xf2 (size before relaxing)
                0x50000000                _ResetVector
                0x5000002c                _ResetHandler
                0x500000f0                . = ALIGN (0x4)
 *fill*         0x500000ef        0x1 
                0x500000f0                _ResetVector_text_end = ABSOLUTE (.)

.ResetHandler.text
                0x500000f0        0x0
                0x500000f0                _ResetHandler_text_start = ABSOLUTE (.)
 *(.ResetHandler.literal .ResetHandler.text)
                0x500000f0                . = ALIGN (0x4)
                0x500000f0                _ResetHandler_text_end = ABSOLUTE (.)
                0x500000f0                _memmap_seg_irom0_0_end = ALIGN (0x8)

.WindowVectors.text
                0x50000400      0x16c
                0x50000400                _WindowVectors_text_start = ABSOLUTE (.)
 *(.WindowVectors.text)
 .WindowVectors.text
                0x50000400      0x16a C:/usr/xtensa/XtDevTools/install/builds/RI-2021.6-win32/Py_210123_eval/xtensa-elf/arch/lib/\libhandlers-board.a(window-vectors.o)
                0x50000400                _WindowOverflow4
                0x50000410                _xtos_alloca_handler
                0x50000440                _WindowUnderflow4
                0x50000480                _WindowOverflow8
                0x500004c0                _WindowUnderflow8
                0x50000500                _WindowOverflow12
                0x50000540                _WindowUnderflow12
                0x5000056c                . = ALIGN (0x4)
 *fill*         0x5000056a        0x2 
                0x5000056c                _WindowVectors_text_end = ABSOLUTE (.)
                0x50000570                _memmap_seg_dv_0_end = ALIGN (0x8)

.Level2InterruptVector.literal
                0x50000578        0x0
                0x50000578                _Level2InterruptVector_literal_start = ABSOLUTE (.)
 *(.Level2InterruptVector.literal)
                0x50000578                . = ALIGN (0x4)
                0x50000578                _Level2InterruptVector_literal_end = ABSOLUTE (.)
                0x50000578                _memmap_seg_dv_1_end = ALIGN (0x8)

.Level2InterruptVector.text
                0x50000580        0x8
                0x50000580                _Level2InterruptVector_text_start = ABSOLUTE (.)
 *(.Level2InterruptVector.text)
 .Level2InterruptVector.text
                0x50000580        0x6 C:/usr/xtensa/XtDevTools/install/builds/RI-2021.6-win32/Py_210123_eval/xtensa-elf/arch/lib/\libhandlers-board.a(int-vector-level2.o)
                0x50000580                _Level2Vector
                0x50000588                . = ALIGN (0x4)
 *fill*         0x50000586        0x2 
                0x50000588                _Level2InterruptVector_text_end = ABSOLUTE (.)
                0x50000588                _memmap_seg_dv_2_end = ALIGN (0x8)

.Level3InterruptVector.literal
                0x500005b8        0x0
                0x500005b8                _Level3InterruptVector_literal_start = ABSOLUTE (.)
 *(.Level3InterruptVector.literal)
                0x500005b8                . = ALIGN (0x4)
                0x500005b8                _Level3InterruptVector_literal_end = ABSOLUTE (.)
                0x500005b8                _memmap_seg_dv_3_end = ALIGN (0x8)

.Level3InterruptVector.text
                0x500005c0        0x8
                0x500005c0                _Level3InterruptVector_text_start = ABSOLUTE (.)
 *(.Level3InterruptVector.text)
 .Level3InterruptVector.text
                0x500005c0        0x6 C:/usr/xtensa/XtDevTools/install/builds/RI-2021.6-win32/Py_210123_eval/xtensa-elf/arch/lib/\libhandlers-board.a(int-vector-level3.o)
                0x500005c0                _Level3Vector
                0x500005c8                . = ALIGN (0x4)
 *fill*         0x500005c6        0x2 
                0x500005c8                _Level3InterruptVector_text_end = ABSOLUTE (.)
                0x500005c8                _memmap_seg_dv_4_end = ALIGN (0x8)

.DebugExceptionVector.literal
                0x500005f8        0x0
                0x500005f8                _DebugExceptionVector_literal_start = ABSOLUTE (.)
 *(.DebugExceptionVector.literal)
                0x500005f8                . = ALIGN (0x4)
                0x500005f8                _DebugExceptionVector_literal_end = ABSOLUTE (.)
                0x500005f8                _memmap_seg_dv_5_end = ALIGN (0x8)

.DebugExceptionVector.text
                0x50000600        0xc
                0x50000600                _DebugExceptionVector_text_start = ABSOLUTE (.)
 *(.DebugExceptionVector.text)
 .DebugExceptionVector.text
                0x50000600        0xb C:/usr/xtensa/XtDevTools/install/builds/RI-2021.6-win32/Py_210123_eval/xtensa-elf/arch/lib/\libhandlers-board.a(debug-vector.o)
                0x50000600                _DebugExceptionVector
                0x5000060c                . = ALIGN (0x4)
 *fill*         0x5000060b        0x1 
                0x5000060c                _DebugExceptionVector_text_end = ABSOLUTE (.)
                0x50000610                _memmap_seg_dv_6_end = ALIGN (0x8)

.KernelExceptionVector.literal
                0x50000638        0x0
                0x50000638                _KernelExceptionVector_literal_start = ABSOLUTE (.)
 *(.KernelExceptionVector.literal)
                0x50000638                . = ALIGN (0x4)
                0x50000638                _KernelExceptionVector_literal_end = ABSOLUTE (.)
                0x50000638                _memmap_seg_dv_7_end = ALIGN (0x8)

.KernelExceptionVector.text
                0x50000640        0x8
                0x50000640                _KernelExceptionVector_text_start = ABSOLUTE (.)
 *(.KernelExceptionVector.text)
 .KernelExceptionVector.text
                0x50000640        0x6 C:/usr/xtensa/XtDevTools/install/builds/RI-2021.6-win32/Py_210123_eval/xtensa-elf/arch/lib/\libhandlers-board.a(kernel-vector.o)
                0x50000640                _KernelExceptionVector
                0x50000648                . = ALIGN (0x4)
 *fill*         0x50000646        0x2 
                0x50000648                _KernelExceptionVector_text_end = ABSOLUTE (.)
                0x50000648                _memmap_seg_dv_8_end = ALIGN (0x8)

.UserExceptionVector.literal
                0x50000678        0x4
                0x50000678                _UserExceptionVector_literal_start = ABSOLUTE (.)
 *(.UserExceptionVector.literal)
 .UserExceptionVector.literal
                0x50000678        0x4 C:/usr/xtensa/XtDevTools/install/builds/RI-2021.6-win32/Py_210123_eval/xtensa-elf/arch/lib/\libhandlers-board.a(user-vector.o)
                0x5000067c                . = ALIGN (0x4)
                0x5000067c                _UserExceptionVector_literal_end = ABSOLUTE (.)
                0x50000680                _memmap_seg_dv_9_end = ALIGN (0x8)

.UserExceptionVector.text
                0x50000680       0x18
                0x50000680                _UserExceptionVector_text_start = ABSOLUTE (.)
 *(.UserExceptionVector.text)
 .UserExceptionVector.text
                0x50000680       0x17 C:/usr/xtensa/XtDevTools/install/builds/RI-2021.6-win32/Py_210123_eval/xtensa-elf/arch/lib/\libhandlers-board.a(user-vector.o)
                0x50000680                _UserExceptionVector
                0x50000698                . = ALIGN (0x4)
 *fill*         0x50000697        0x1 
                0x50000698                _UserExceptionVector_text_end = ABSOLUTE (.)
                0x50000698                _memmap_seg_dv_10_end = ALIGN (0x8)

.DoubleExceptionVector.literal
                0x500006b8        0x0
                0x500006b8                _DoubleExceptionVector_literal_start = ABSOLUTE (.)
 *(.DoubleExceptionVector.literal)
                0x500006b8                . = ALIGN (0x4)
                0x500006b8                _DoubleExceptionVector_literal_end = ABSOLUTE (.)
                0x500006b8                _memmap_seg_dv_11_end = ALIGN (0x8)
                0x500006b8                _memmap_mem_irom0_max = ABSOLUTE (.)

.srom.rodata    0x50040000        0x0
                0x50040000                _srom_rodata_start = ABSOLUTE (.)
 *(.srom.rodata)
                0x50040000                . = ALIGN (0x4)
                0x50040000                _srom_rodata_end = ABSOLUTE (.)

.sram.rodata    0x50040000        0x0
                0x50040000                _sram_rodata_start = ABSOLUTE (.)
 *(.sram.rodata)
                0x50040000                . = ALIGN (0x4)
                0x50040000                _sram_rodata_end = ABSOLUTE (.)

.rtos.rodata    0x50040000       0x40
                0x50040000                _rtos_rodata_start = ABSOLUTE (.)
 *(.rtos.rodata)
 .rtos.rodata   0x50040000       0x40 C:/usr/xtensa/XtDevTools/install/builds/RI-2021.6-win32/Py_210123_eval/xtensa-elf/arch/lib/\libhal.a(const--intlevel.o)
                0x50040000                Xthal_intlevel
                0x50040040                . = ALIGN (0x4)
                0x50040040                _rtos_rodata_end = ABSOLUTE (.)

.rodata         0x50040040     0x5acc
                0x50040040                _rodata_start = ABSOLUTE (.)
 *(.rodata)
 .rodata        0x50040040      0xb18 D:/PYRAMID_SW/dsp_trunk/tags/Sphinx_0p2/testing_app/system_integration/bin/Py_210123_eval/Release/src/dsp_bootloader.o
                0x50040040                FUNC_DATA_SECTION
                0x500404b0                VAR_DATA_SECTION
                0x50040750                XTENSA_DATA_SECTION
 *fill*         0x50040b58        0x8 
 .rodata        0x50040b60      0x100 D:/PYRAMID_SW/dsp_trunk/tags/Sphinx_0p2/testing_app/system_integration/bin/Py_210123_eval/Release/src/dsp_cli_nfca_rx.o
 .rodata        0x50040c60       0x34 D:/PYRAMID_SW/dsp_trunk/tags/Sphinx_0p2/testing_app/system_integration/bin/Py_210123_eval/Release/src/dsp_cli_nfcb_rx.o
 *fill*         0x50040c94        0xc 
 .rodata        0x50040ca0       0x20 D:/PYRAMID_SW/dsp_trunk/tags/Sphinx_0p2/testing_app/system_integration/bin/Py_210123_eval/Release/src/dsp_cli_nfcb_tx.o
                0x50040ca0                TECH_B_RW_PATTERN
                0x50040cb0                TECH_B_CE_PATTERN
 .rodata        0x50040cc0       0x34 D:/PYRAMID_SW/dsp_trunk/tags/Sphinx_0p2/testing_app/system_integration/bin/Py_210123_eval/Release/src/dsp_cli_nfcv_rx.o
 .rodata        0x50040cf4        0x8 D:/PYRAMID_SW/dsp_trunk/tags/Sphinx_0p2/testing_app/system_integration/bin/Py_210123_eval/Release/src/dsp_cli_nfcv_tx.o
                0x50040cf4                TECH_V_RW_EOF
                0x50040cf6                TECH_V_RW_SOF
                0x50040cf8                TECH_V_RW_PATTERN
 *fill*         0x50040cfc        0x4 
 .rodata        0x50040d00       0x1a D:/PYRAMID_SW/dsp_trunk/tags/Sphinx_0p2/testing_app/system_integration/bin/Py_210123_eval/Release/src/dsp_cli_utils.o
                0x50040d00                cli_tx_nfca_fifo_chips
                0x50040d08                cli_tx_nfcf_fifo_chips
                0x50040d10                cli_tx_nfcb_fifo_chips
                0x50040d18                cli_tx_nfcv_fifo_chips
 *fill*         0x50040d1a        0x6 
 .rodata        0x50040d20       0xb8 D:/PYRAMID_SW/dsp_trunk/tags/Sphinx_0p2/testing_app/system_integration/bin/Py_210123_eval/Release/src/dsp_cli_wind_lut.o
                0x50040d20                cli_tx_bit_rate_lut
                0x50040d30                cli_tx_win_lut
                0x50040d34                cli_tx_nfcv_win_lut
                0x50040d38                cli_bd_fctr_lut
                0x50040d40                cli_tx_nfca_fdt_lstn_fctr_lut
                0x50040d48                cli_tx_nfca_fifo_WTM_lut
                0x50040d50                cli_tx_nfcb_fifo_WTM_lut
                0x50040d58                cli_tx_nfcf_fifo_WTM_lut
                0x50040d5a                cli_tx_nfcv_fifo_WTM_lut
                0x50040d60                cli_tx_nfca_chip_rate_lut
                0x50040d68                cli_tx_nfcb_chip_rate_lut
                0x50040d70                cli_tx_nfcf_chip_rate_lut
                0x50040d72                cli_tx_nfcv_chip_rate_lut
                0x50040d80                cli_tx_nfca_prog_delay_rdly_lut
                0x50040d90                cli_tx_nfcb_prog_delay_rdly_lut
                0x50040da0                cli_tx_nfcf_prog_delay_rdly_lut
                0x50040da4                cli_tx_nfcv_prog_delay_rdly_lut
                0x50040db0                cli_tx_nfca_prog_delay_byp_lut
                0x50040dc0                cli_tx_nfcb_prog_delay_byp_lut
                0x50040dd0                cli_tx_nfcf_prog_delay_byp_lut
                0x50040dd4                cli_tx_nfcv_prog_delay_byp_lut
 *fill*         0x50040dd8        0x8 
 .rodata        0x50040de0      0x3d4 D:/PYRAMID_SW/dsp_trunk/tags/Sphinx_0p2/testing_app/system_integration/bin/Py_210123_eval/Release/src/dsp_hal_sml3.o
                0x50040de0                rom_static_aon
                0x50040ea0                rom_static_stdby
                0x50040f50                rom_static_active
                0x50040fe0                rom_static_sml0rx
                0x50041020                rom_static_sml0tx
                0x50041040                rom_static_sml0pll
                0x50041080                rom_static_sml1
                0x500410c0                rom_static_dfemdm
                0x50041140                rom_static_clitop
                0x50041180                rom_static_dsptop
 *fill*         0x500411b4        0xc 
 .rodata        0x500411c0       0x10 D:/PYRAMID_SW/dsp_trunk/tags/Sphinx_0p2/testing_app/system_integration/bin/Py_210123_eval/Release/src/dsp_sml0_lmac.o
                0x500411c0                lmac_fssi_scaling_factor
 .rodata        0x500411d0     0x395e D:/PYRAMID_SW/dsp_trunk/tags/Sphinx_0p2/testing_app/system_integration/bin/Py_210123_eval/Release/src/dsp_sml1_pcm_dyn_reg_lut.o
                0x500411d0                poller_dyn_regs
                0x50041670                listener_dyn_regs
                0x50041b10                indx_map_poller_sml0_pll_pll_mode_dependent_rom
                0x50041b18                indx_map_listener_sml0_pll_pll_mode_dependent_rom
                0x50041b20                sml0_pll_pll_mode_dependent_rom
                0x50041b50                indx_map_poller_sml0_pll_pll_mode_dependent_dh
                0x50041b58                indx_map_listener_sml0_pll_pll_mode_dependent_dh
                0x50041b60                indx_map_poller_active_pll_mode_dependent_rom
                0x50041b68                indx_map_listener_active_pll_mode_dependent_rom
                0x50041b70                active_pll_mode_dependent_rom
                0x50041ba0                indx_map_poller_active_pll_mode_dependent_dh
                0x50041ba8                indx_map_listener_active_pll_mode_dependent_dh
                0x50041bb0                indx_map_poller_standby_pll_mode_dependent_rom
                0x50041bb8                indx_map_listener_standby_pll_mode_dependent_rom
                0x50041bc0                standby_pll_mode_dependent_rom
                0x50041bf0                indx_map_poller_sml0_pll_bw_ctrl_dh
                0x50041c00                indx_map_listener_sml0_pll_bw_ctrl_dh
                0x50041c40                indx_map_poller_sml0_pll_ce_rx_dh
                0x50041c50                indx_map_listener_sml0_pll_ce_rx_dh
                0x50041c60                indx_map_poller_active_ce_rx_rom
                0x50041c70                indx_map_listener_active_ce_rx_rom
                0x50041c80                active_ce_rx_rom
                0x50041d00                indx_map_poller_active_ce_rx_dh
                0x50041d10                indx_map_listener_active_ce_rx_dh
                0x50041d20                indx_map_poller_sml0_pll_ce_xtal_dh
                0x50041d30                indx_map_listener_sml0_pll_ce_xtal_dh
                0x50041d40                indx_map_poller_active_ce_tx_rom
                0x50041d50                indx_map_listener_active_ce_tx_rom
                0x50041d60                active_ce_tx_rom
                0x50041db0                indx_map_poller_active_ce_tx_dh
                0x50041dc0                indx_map_listener_active_ce_tx_dh
                0x50041dd0                indx_map_poller_active_pause_time_limit_ctrl_rom
                0x50041de0                indx_map_listener_active_pause_time_limit_ctrl_rom
                0x50041df0                active_pause_time_limit_ctrl_rom
                0x50041e80                indx_map_poller_sml0_rx_bb_agc_23_rom
                0x50041e90                indx_map_listener_sml0_rx_bb_agc_23_rom
                0x50041ea0                sml0_rx_bb_agc_23_rom
                0x50042010                indx_map_poller_sml0_rx_bb_agc_6_rom
                0x50042018                indx_map_listener_sml0_rx_bb_agc_6_rom
                0x50042020                sml0_rx_bb_agc_6_rom
                0x50042070                indx_map_poller_sml0_tx_txldo_dh
                0x50042078                indx_map_listener_sml0_tx_txldo_dh
                0x50042080                indx_map_poller_sml0_tx_pa_en_dh
                0x50042090                indx_map_listener_sml0_tx_pa_en_dh
                0x500420a0                indx_map_poller_sml0_tx_pa_bbws_dh
                0x500420b0                indx_map_listener_sml0_tx_pa_bbws_dh
                0x500420c0                indx_map_poller_sml0_tx_pa_bbws_idle_rom
                0x500420c4                indx_map_listener_sml0_tx_pa_bbws_idle_rom
                0x500420d0                sml0_tx_pa_bbws_idle_rom
                0x50042110                indx_map_poller_sml0_tx_pa_soft_start_dh
                0x50042118                indx_map_listener_sml0_tx_pa_soft_start_dh
                0x50042120                indx_map_poller_sml0_tx_pa_top_controller_rom
                0x50042128                indx_map_listener_sml0_tx_pa_top_controller_rom
                0x50042130                sml0_tx_pa_top_controller_rom
                0x50042140                indx_map_poller_sml0_tx_pa_cdc_dh
                0x50042148                indx_map_listener_sml0_tx_pa_cdc_dh
                0x50042150                indx_map_poller_sml1_txctrl_eof_dh
                0x50042158                indx_map_listener_sml1_txctrl_eof_dh
                0x50042160                indx_map_poller_active_trxmode_rom
                0x50042168                indx_map_listener_active_trxmode_rom
                0x50042170                active_trxmode_rom
                0x500421a0                indx_map_poller_sml0_rx_trxmode_otp
                0x500421a8                indx_map_listener_sml0_rx_trxmode_otp
                0x500421b0                indx_map_poller_sml0_rx_trxmode_rom
                0x500421b8                indx_map_listener_sml0_rx_trxmode_rom
                0x500421c0                sml0_rx_trxmode_rom
                0x500422a0                indx_map_poller_active_trxmode_bbabw_rom
                0x500422b0                indx_map_listener_active_trxmode_bbabw_rom
                0x500422c0                active_trxmode_bbabw_rom
                0x50042350                indx_map_poller_dfemdm_dfe_mdm_dyn_dh_22_dh
                0x50042360                indx_map_listener_dfemdm_dfe_mdm_dyn_dh_22_dh
                0x50042370                indx_map_poller_dfemdm_dfe_mdm_dyn_dh_4_dh
                0x50042380                indx_map_listener_dfemdm_dfe_mdm_dyn_dh_4_dh
                0x50042390                indx_map_poller_dfemdm_dfe_mdm_dyn_dh_2_dh
                0x50042398                indx_map_listener_dfemdm_dfe_mdm_dyn_dh_2_dh
                0x500423a0                indx_map_poller_dfemdm_dfe_mdm_dyn_otp_22_otp
                0x500423b0                indx_map_listener_dfemdm_dfe_mdm_dyn_otp_22_otp
                0x500423c0                indx_map_poller_dfemdm_dfe_mdm_dyn_otp_7_otp
                0x500423d0                indx_map_listener_dfemdm_dfe_mdm_dyn_otp_7_otp
                0x500423d8                indx_map_poller_dfemdm_dfe_mdm_dyn_otp_2_otp
                0x500423e0                indx_map_listener_dfemdm_dfe_mdm_dyn_otp_2_otp
                0x500423f0                indx_map_poller_dfemdm_dfe_mdm_dyn_rom_22_rom
                0x50042400                indx_map_listener_dfemdm_dfe_mdm_dyn_rom_22_rom
                0x50042410                dfemdm_dfe_mdm_dyn_rom_22_rom
                0x50042e10                indx_map_poller_dfemdm_dfe_mdm_dyn_rom_g1_10_rom
                0x50042e20                indx_map_listener_dfemdm_dfe_mdm_dyn_rom_g1_10_rom
                0x50042e30                dfemdm_dfe_mdm_dyn_rom_g1_10_rom
                0x50042f40                indx_map_poller_dfemdm_dfe_mdm_dyn_rom_g2_10_rom
                0x50042f50                indx_map_listener_dfemdm_dfe_mdm_dyn_rom_g2_10_rom
                0x50042f60                dfemdm_dfe_mdm_dyn_rom_g2_10_rom
                0x50043da0                indx_map_poller_dfemdm_dfe_mdm_dyn_rom_g1_9_rom
                0x50043db0                indx_map_listener_dfemdm_dfe_mdm_dyn_rom_g1_9_rom
                0x50043dc0                dfemdm_dfe_mdm_dyn_rom_g1_9_rom
                0x50044070                indx_map_poller_dfemdm_dfe_mdm_dyn_rom_g2_9_rom
                0x50044080                indx_map_listener_dfemdm_dfe_mdm_dyn_rom_g2_9_rom
                0x50044090                dfemdm_dfe_mdm_dyn_rom_g2_9_rom
                0x500440e0                indx_map_poller_dfemdm_dfe_mdm_dyn_rom_6_rom
                0x500440f0                indx_map_listener_dfemdm_dfe_mdm_dyn_rom_6_rom
                0x50044100                dfemdm_dfe_mdm_dyn_rom_6_rom
                0x500441b0                indx_map_poller_dfemdm_dfe_mdm_dyn_rom_5_rom
                0x500441c0                indx_map_listener_dfemdm_dfe_mdm_dyn_rom_5_rom
                0x500441d0                dfemdm_dfe_mdm_dyn_rom_5_rom
                0x50044220                indx_map_poller_dfemdm_dfe_mdm_dyn_rom_4_rom
                0x50044228                indx_map_listener_dfemdm_dfe_mdm_dyn_rom_4_rom
                0x50044230                dfemdm_dfe_mdm_dyn_rom_4_rom
                0x500447f0                indx_map_poller_dfemdm_dfe_mdm_dyn_rom_g1_2_rom
                0x50044800                indx_map_listener_dfemdm_dfe_mdm_dyn_rom_g1_2_rom
                0x50044810                dfemdm_dfe_mdm_dyn_rom_g1_2_rom
                0x50044840                indx_map_poller_dfemdm_dfe_mdm_dyn_rom_g2_2_rom
                0x50044850                indx_map_listener_dfemdm_dfe_mdm_dyn_rom_g2_2_rom
                0x50044860                dfemdm_dfe_mdm_dyn_rom_g2_2_rom
                0x500448f0                indx_map_poller_dfemdm_dfe_mdm_dyn_rom_g3_2_rom
                0x50044900                indx_map_listener_dfemdm_dfe_mdm_dyn_rom_g3_2_rom
                0x50044910                dfemdm_dfe_mdm_dyn_rom_g3_2_rom
                0x50044920                indx_map_poller_standby_bbagc_load_en_rom
                0x50044928                indx_map_listener_standby_bbagc_load_en_rom
                0x50044930                standby_bbagc_load_en_rom
                0x50044960                indx_map_poller_sml1_sml1_rom_dyn_rom
                0x50044968                indx_map_listener_sml1_sml1_rom_dyn_rom
                0x50044970                sml1_sml1_rom_dyn_rom
                0x50044ae0                indx_map_poller_sml1_txctrl_mdm_blndzn_od_otp
                0x50044af0                indx_map_listener_sml1_txctrl_mdm_blndzn_od_otp
                0x50044b00                indx_map_poller_sml1_pa_strength_dh
                0x50044b10                indx_map_listener_sml1_pa_strength_dh
                0x50044b20                indx_map_poller_sml1_fssi_otp_dyn_otp
                0x50044b28                indx_map_listener_sml1_fssi_otp_dyn_otp
 *fill*         0x50044b2e        0x2 
 .rodata        0x50044b30      0xfd4 D:/PYRAMID_SW/dsp_trunk/tags/Sphinx_0p2/testing_app/system_integration/bin/Py_210123_eval/Release/src/dsp_sml1_user_ta_lut.o
                0x50044b30                pcm_poller_uta_val
                0x50045190                pcm_poller_fod_start_val
                0x500452a0                pcm_listener_uta_val
                0x500459b0                pcm_listener_fod_start_val
 *(SORT(.rodata.sort.*))
 *(SORT(.rodata.keepsort.*) .rodata.keep.*)
 *(.rodata.*)
 *(.gnu.linkonce.r.*)
 *(.rodata1)
                0x50045b04                __XT_EXCEPTION_TABLE__ = ABSOLUTE (.)
 *(.xt_except_table)
 *(.gcc_except_table)
 *(.gnu.linkonce.e.*)
 *(.gnu.version_r)
 *(.eh_frame)
 *crtbegin.o(.ctors)
 *(EXCLUDE_FILE(*crtend.o) .ctors)
 *(SORT(.ctors.*))
 *(.ctors)
 *crtbegin.o(.dtors)
 *(EXCLUDE_FILE(*crtend.o) .dtors)
 *(SORT(.dtors.*))
 *(.dtors)
                0x50045b04                __XT_EXCEPTION_DESCS__ = ABSOLUTE (.)
 *(.xt_except_desc)
 *(.gnu.linkonce.h.*)
                0x50045b04                __XT_EXCEPTION_DESCS_END__ = ABSOLUTE (.)
 *(.xt_except_desc_end)
 *(.dynamic)
 *(.gnu.version_d)
                0x50045b04                . = ALIGN (0x4)
                0x50045b04                _bss_table_start = ABSOLUTE (.)
                0x50045b04        0x4 LONG 0x500a2610 _bss_start
                0x50045b08        0x4 LONG 0x500a3790 _bss_end
                0x50045b0c                _bss_table_end = ABSOLUTE (.)
                0x50045b0c                . = ALIGN (0x4)
                0x50045b0c                _rodata_end = ABSOLUTE (.)

.dram0.rodata   0x50045b0c        0x0
                0x50045b0c                _dram0_rodata_start = ABSOLUTE (.)
 *(.dram0.rodata)
 *(.dram.rodata)
                0x50045b0c                . = ALIGN (0x4)
                0x50045b0c                _dram0_rodata_end = ABSOLUTE (.)

.clib.rodata    0x50045b0c        0x0
                0x50045b0c                _clib_rodata_start = ABSOLUTE (.)
 *(.clib.rodata)
                0x50045b0c                . = ALIGN (0x4)
                0x50045b0c                _clib_rodata_end = ABSOLUTE (.)

.drom0.rodata   0x50045b0c        0x0
                0x50045b0c                _drom0_rodata_start = ABSOLUTE (.)
 *(.drom0.rodata)
 *(.drom.rodata)
                0x50045b0c                . = ALIGN (0x4)
                0x50045b0c                _drom0_rodata_end = ABSOLUTE (.)
                0x50045b10                _memmap_seg_drom0_0_end = ALIGN (0x8)
                0x50045b0c                _memmap_mem_drom0_max = ABSOLUTE (.)

.patch.text     0x50080000        0x0
                0x50080000                _patch_text_start = ABSOLUTE (.)
 *(.patch.literal .patch.text)
                0x50080000                . = ALIGN (0x4)
                0x50080000                _patch_text_end = ABSOLUTE (.)
                0x50080000                _memmap_seg_ipatch_end = ALIGN (0x8)
                0x50080000                _memmap_mem_iram0_max = ABSOLUTE (.)

.noload.data    0x500a0000     0x218c
                0x500a0000                _noload_data_start = ABSOLUTE (.)
 *(.noload.data)
 .noload.data   0x500a0000      0x708 D:/PYRAMID_SW/dsp_trunk/tags/Sphinx_0p2/testing_app/system_integration/bin/Py_210123_eval/Release/src/dsp_bootloader.o
                0x500a0000                g_func_lookup_table
                0x500a046c                g_var_lookup_table
                0x500a0704                dsp_patch_load_func_ptr
 *fill*         0x500a0708        0x8 
 .noload.data   0x500a0710      0x584 D:/PYRAMID_SW/dsp_trunk/tags/Sphinx_0p2/testing_app/system_integration/bin/Py_210123_eval/Release/src/dsp_hal_sml3.o
                0x500a0710                g_dsp_otp_flags
                0x500a0730                otp_static_aon
                0x500a0790                otp_static_stdby
                0x500a0830                otp_static_active
                0x500a08a0                otp_static_sml0rx
                0x500a0a00                otp_static_sml0tx
                0x500a0a10                otp_static_sml1
                0x500a0aa0                otp_static_dsptop
                0x500a0ac0                otp_static_new_backup
                0x500a0b10                dh_static_active
                0x500a0b50                dh_static_sml0rx
                0x500a0bc0                dh_static_sml0tx
                0x500a0bf0                dh_static_sml0pll
                0x500a0c30                dh_static_sml1
 *fill*         0x500a0c94        0xc 
 .noload.data   0x500a0ca0     0x14ec D:/PYRAMID_SW/dsp_trunk/tags/Sphinx_0p2/testing_app/system_integration/bin/Py_210123_eval/Release/src/dsp_sml1_pcm_dyn_reg_lut.o
                0x500a0ca0                sml0_pll_pll_mode_dependent_dh
                0x500a0ce0                active_pll_mode_dependent_dh
                0x500a0d30                sml0_pll_bw_ctrl_dh
                0x500a0e00                sml0_pll_ce_rx_dh
                0x500a0ea0                active_ce_rx_dh
                0x500a0f70                sml0_pll_ce_xtal_dh
                0x500a0fe0                active_ce_tx_dh
                0x500a1030                sml0_tx_txldo_dh
                0x500a1080                sml0_tx_pa_en_dh
                0x500a1140                sml0_tx_pa_bbws_dh
                0x500a1200                sml0_tx_pa_soft_start_dh
                0x500a1260                sml0_tx_pa_cdc_dh
                0x500a12a0                sml1_txctrl_eof_dh
                0x500a1300                sml0_rx_trxmode_otp
                0x500a1330                dfemdm_dfe_mdm_dyn_dh_22_dh
                0x500a1650                dfemdm_dfe_mdm_dyn_dh_4_dh
                0x500a1760                dfemdm_dfe_mdm_dyn_dh_2_dh
                0x500a1ae0                dfemdm_dfe_mdm_dyn_otp_22_otp
                0x500a1d50                dfemdm_dfe_mdm_dyn_otp_7_otp
                0x500a1e50                dfemdm_dfe_mdm_dyn_otp_2_otp
                0x500a1e70                sml1_pa_strength_dh
                0x500a2100                sml1_fssi_otp_dyn_otp
                0x500a2120                pactrl_p_n_ctrl_off
                0x500a2130                sml1_txctrl_mdm_blndzn_od_otp
                0x500a218c                . = ALIGN (0x4)
                0x500a218c                _noload_data_end = ABSOLUTE (.)
                0x500a2190                _memmap_seg_dnoload_end = ALIGN (0x8)

.clib.data      0x500a2200        0x0
                0x500a2200                _clib_data_start = ABSOLUTE (.)
 *(.clib.data)
                0x500a2200                . = ALIGN (0x4)
                0x500a2200                _clib_data_end = ABSOLUTE (.)

.clib.percpu.data
                0x500a2200        0x0
                0x500a2200                _clib_percpu_data_start = ABSOLUTE (.)
 *(.clib.percpu.data)
                0x500a2200                . = ALIGN (0x4)
                0x500a2200                _clib_percpu_data_end = ABSOLUTE (.)

.rtos.percpu.data
                0x500a2200      0x408
                0x500a2200                _rtos_percpu_data_start = ABSOLUTE (.)
 *(.rtos.percpu.data)
 .rtos.percpu.data
                0x500a2200        0x0 C:/usr/xtensa/XtDevTools/install/builds/RI-2021.6-win32/Py_210123_eval/xtensa-elf/arch/lib/\libhandler-reset-unpack.a(reset-vector-unpack.o)
 .rtos.percpu.data
                0x500a2200        0x0 C:/usr/xtensa/XtDevTools/install/builds/RI-2021.6-win32/Py_210123_eval/xtensa-elf/arch/lib/\libhandlers-board.a(xtos-interrupt-enable.o)
 .rtos.percpu.data
                0x500a2200        0x0 C:/usr/xtensa/XtDevTools/install/builds/RI-2021.6-win32/Py_210123_eval/xtensa-elf/arch/lib/\libhandlers-board.a(xtos-interrupt-disable.o)
 .rtos.percpu.data
                0x500a2200        0x0 C:/usr/xtensa/XtDevTools/install/builds/RI-2021.6-win32/Py_210123_eval/xtensa-elf/arch/lib/\libhandlers-board.a(xtos-interrupt-clear.o)
 .rtos.percpu.data
                0x500a2200        0x0 C:/usr/xtensa/XtDevTools/install/builds/RI-2021.6-win32/Py_210123_eval/xtensa-elf/arch/lib/\libhandlers-board.a(xtos-set-inthandler.o)
 .rtos.percpu.data
                0x500a2200        0x0 C:/usr/xtensa/XtDevTools/install/builds/RI-2021.6-win32/Py_210123_eval/xtensa-elf/arch/lib/\libhandlers-board.a(xtos-set-exchandler.o)
 .rtos.percpu.data
                0x500a2200        0x0 C:/usr/xtensa/XtDevTools/install/builds/RI-2021.6-win32/Py_210123_eval/xtensa-elf/arch/lib/\libhandlers-board.a(exc-syscall-handler.o)
 .rtos.percpu.data
                0x500a2200      0x100 C:/usr/xtensa/XtDevTools/install/builds/RI-2021.6-win32/Py_210123_eval/xtensa-elf/arch/lib/\libhandlers-board.a(exc-table.o)
                0x500a2200                xtos_c_handler_table
 .rtos.percpu.data
                0x500a2300      0x208 C:/usr/xtensa/XtDevTools/install/builds/RI-2021.6-win32/Py_210123_eval/xtensa-elf/arch/lib/\libhandlers-board.a(interrupt-table.o)
                0x500a2300                _xtos_intstruct
                0x500a2300                xtos_enabled
                0x500a2304                xtos_vpri_enabled
                0x500a2308                xtos_interrupt_table
                0x500a2408                xtos_interrupt_mask_table
 .rtos.percpu.data
                0x500a2508      0x100 C:/usr/xtensa/XtDevTools/install/builds/RI-2021.6-win32/Py_210123_eval/xtensa-elf/arch/lib/\libhandlers-board.a(user-vector.o)
                0x500a2508                xtos_exc_handler_table
 .rtos.percpu.data
                0x500a2608        0x0 C:/usr/xtensa/XtDevTools/install/builds/RI-2021.6-win32/Py_210123_eval/xtensa-elf/arch/lib/\libhandlers-board.a(exc-c-wrapper-handler.o)
 .rtos.percpu.data
                0x500a2608        0x0 C:/usr/xtensa/XtDevTools/install/builds/RI-2021.6-win32/Py_210123_eval/xtensa-elf/arch/lib/\libhandlers-board.a(exc-return.o)
 .rtos.percpu.data
                0x500a2608        0x0 C:/usr/xtensa/XtDevTools/install/builds/RI-2021.6-win32/Py_210123_eval/xtensa-elf/arch/lib/\libhandlers-board.a(int-lowpri-dispatcher.o)
 .rtos.percpu.data
                0x500a2608        0x0 C:/usr/xtensa/XtDevTools/install/builds/RI-2021.6-win32/Py_210123_eval/xtensa-elf/arch/lib/\libhandlers-board.a(window-vectors.o)
 .rtos.percpu.data
                0x500a2608        0x0 C:/usr/xtensa/XtDevTools/install/builds/RI-2021.6-win32/Py_210123_eval/xtensa-elf/arch/lib/\libhandlers-board.a(int-init-level1.o)
 .rtos.percpu.data
                0x500a2608        0x0 C:/usr/xtensa/XtDevTools/install/builds/RI-2021.6-win32/Py_210123_eval/xtensa-elf/arch/lib/\libhandlers-board.a(int-init-level2.o)
 .rtos.percpu.data
                0x500a2608        0x0 C:/usr/xtensa/XtDevTools/install/builds/RI-2021.6-win32/Py_210123_eval/xtensa-elf/arch/lib/\libhandlers-board.a(int-init-level3.o)
 .rtos.percpu.data
                0x500a2608        0x0 C:/usr/xtensa/XtDevTools/install/builds/RI-2021.6-win32/Py_210123_eval/xtensa-elf/arch/lib/\libhandlers-board.a(exc-unhandled.o)
 .rtos.percpu.data
                0x500a2608        0x0 C:/usr/xtensa/XtDevTools/install/builds/RI-2021.6-win32/Py_210123_eval/xtensa-elf/arch/lib/\libhandlers-board.a(tiny-refs-S--level1int-.o)
 .rtos.percpu.data
                0x500a2608        0x0 C:/usr/xtensa/XtDevTools/install/builds/RI-2021.6-win32/Py_210123_eval/xtensa-elf/arch/lib/\libhandlers-board.a(int-vector-level2.o)
 .rtos.percpu.data
                0x500a2608        0x0 C:/usr/xtensa/XtDevTools/install/builds/RI-2021.6-win32/Py_210123_eval/xtensa-elf/arch/lib/\libhandlers-board.a(int-vector-level3.o)
 .rtos.percpu.data
                0x500a2608        0x0 C:/usr/xtensa/XtDevTools/install/builds/RI-2021.6-win32/Py_210123_eval/xtensa-elf/arch/lib/\libhandlers-board.a(int-handler-level2.o)
 .rtos.percpu.data
                0x500a2608        0x0 C:/usr/xtensa/XtDevTools/install/builds/RI-2021.6-win32/Py_210123_eval/xtensa-elf/arch/lib/\libhandlers-board.a(int-handler-level3.o)
 .rtos.percpu.data
                0x500a2608        0x0 C:/usr/xtensa/XtDevTools/install/builds/RI-2021.6-win32/Py_210123_eval/xtensa-elf/arch/lib/\libhandlers-min.a(tiny-refs-min.o)
 .rtos.percpu.data
                0x500a2608        0x0 C:/usr/xtensa/XtDevTools/install/builds/RI-2021.6-win32/Py_210123_eval/xtensa-elf/arch/lib/\libhandlers-null.a(_vectors.o)
 .rtos.percpu.data
                0x500a2608        0x0 C:/usr/xtensa/XtDevTools/install/builds/RI-2021.6-win32/Py_210123_eval/xtensa-elf/arch/lib/\libhandlers-null.a(_sharedvectors.o)
 .rtos.percpu.data
                0x500a2608        0x0 C:/usr/xtensa/XtDevTools/install/builds/RI-2021.6-win32/Py_210123_eval/xtensa-elf/arch/lib/\libhandlers-board.a(debug-vector.o)
 .rtos.percpu.data
                0x500a2608        0x0 C:/usr/xtensa/XtDevTools/install/builds/RI-2021.6-win32/Py_210123_eval/xtensa-elf/arch/lib/\libhandlers-board.a(double-vector.o)
 .rtos.percpu.data
                0x500a2608        0x0 C:/usr/xtensa/XtDevTools/install/builds/RI-2021.6-win32/Py_210123_eval/xtensa-elf/arch/lib/\libhandlers-board.a(kernel-vector.o)
                0x500a2608                . = ALIGN (0x4)
                0x500a2608                _rtos_percpu_data_end = ABSOLUTE (.)

.rtos.data      0x500a2608        0x0
                0x500a2608                _rtos_data_start = ABSOLUTE (.)
 *(.rtos.data)
 .rtos.data     0x500a2608        0x0 C:/usr/xtensa/XtDevTools/install/builds/RI-2021.6-win32/Py_210123_eval/xtensa-elf/arch/lib/\libhal.a(cache_asm--hw_configid0.o)
 .rtos.data     0x500a2608        0x0 C:/usr/xtensa/XtDevTools/install/builds/RI-2021.6-win32/Py_210123_eval/xtensa-elf/arch/lib/\libhal.a(cache_asm--hw_configid1.o)
 .rtos.data     0x500a2608        0x0 C:/usr/xtensa/XtDevTools/install/builds/RI-2021.6-win32/Py_210123_eval/xtensa-elf/arch/lib/\libhal.a(cache_asm--release_major.o)
 .rtos.data     0x500a2608        0x0 C:/usr/xtensa/XtDevTools/install/builds/RI-2021.6-win32/Py_210123_eval/xtensa-elf/arch/lib/\libhal.a(cache_asm--release_minor.o)
 .rtos.data     0x500a2608        0x0 C:/usr/xtensa/XtDevTools/install/builds/RI-2021.6-win32/Py_210123_eval/xtensa-elf/arch/lib/\libhal.a(const--intlevel.o)
                0x500a2608                . = ALIGN (0x4)
                0x500a2608                _rtos_data_end = ABSOLUTE (.)

.dram0.data     0x500a2608        0x0
                0x500a2608                _dram0_data_start = ABSOLUTE (.)
 *(.dram0.data)
 *(.dram.data)
                0x500a2608                . = ALIGN (0x4)
                0x500a2608                _dram0_data_end = ABSOLUTE (.)

.data           0x500a2608        0x0
                0x500a2608                _data_start = ABSOLUTE (.)
 *(.data)
 .data          0x500a2608        0x0 C:/usr/xtensa/XtDevTools/install/builds/RI-2021.6-win32/Py_210123_eval/xtensa-elf/arch/lib/crt1-tiny.o
 .data          0x500a2608        0x0 D:/PYRAMID_SW/dsp_trunk/tags/Sphinx_0p2/testing_app/system_integration/bin/Py_210123_eval/Release/dsp_verification.o
 .data          0x500a2608        0x0 D:/PYRAMID_SW/dsp_trunk/tags/Sphinx_0p2/testing_app/system_integration/bin/Py_210123_eval/Release/main.o
 .data          0x500a2608        0x0 D:/PYRAMID_SW/dsp_trunk/tags/Sphinx_0p2/testing_app/system_integration/bin/Py_210123_eval/Release/src/dsp_bootloader.o
 .data          0x500a2608        0x0 D:/PYRAMID_SW/dsp_trunk/tags/Sphinx_0p2/testing_app/system_integration/bin/Py_210123_eval/Release/src/dsp_cli_nfca_rx.o
 .data          0x500a2608        0x0 D:/PYRAMID_SW/dsp_trunk/tags/Sphinx_0p2/testing_app/system_integration/bin/Py_210123_eval/Release/src/dsp_cli_nfca_tx.o
 .data          0x500a2608        0x0 D:/PYRAMID_SW/dsp_trunk/tags/Sphinx_0p2/testing_app/system_integration/bin/Py_210123_eval/Release/src/dsp_cli_nfcb_rx.o
 .data          0x500a2608        0x0 D:/PYRAMID_SW/dsp_trunk/tags/Sphinx_0p2/testing_app/system_integration/bin/Py_210123_eval/Release/src/dsp_cli_nfcb_tx.o
 .data          0x500a2608        0x0 D:/PYRAMID_SW/dsp_trunk/tags/Sphinx_0p2/testing_app/system_integration/bin/Py_210123_eval/Release/src/dsp_cli_nfcf_rx.o
 .data          0x500a2608        0x0 D:/PYRAMID_SW/dsp_trunk/tags/Sphinx_0p2/testing_app/system_integration/bin/Py_210123_eval/Release/src/dsp_cli_nfcf_tx.o
 .data          0x500a2608        0x0 D:/PYRAMID_SW/dsp_trunk/tags/Sphinx_0p2/testing_app/system_integration/bin/Py_210123_eval/Release/src/dsp_cli_nfcv_rx.o
 .data          0x500a2608        0x0 D:/PYRAMID_SW/dsp_trunk/tags/Sphinx_0p2/testing_app/system_integration/bin/Py_210123_eval/Release/src/dsp_cli_nfcv_tx.o
 .data          0x500a2608        0x0 D:/PYRAMID_SW/dsp_trunk/tags/Sphinx_0p2/testing_app/system_integration/bin/Py_210123_eval/Release/src/dsp_cli_rx.o
 .data          0x500a2608        0x0 D:/PYRAMID_SW/dsp_trunk/tags/Sphinx_0p2/testing_app/system_integration/bin/Py_210123_eval/Release/src/dsp_cli_tx.o
 .data          0x500a2608        0x0 D:/PYRAMID_SW/dsp_trunk/tags/Sphinx_0p2/testing_app/system_integration/bin/Py_210123_eval/Release/src/dsp_cli_utils.o
 .data          0x500a2608        0x0 D:/PYRAMID_SW/dsp_trunk/tags/Sphinx_0p2/testing_app/system_integration/bin/Py_210123_eval/Release/src/dsp_cli_wind_lut.o
 .data          0x500a2608        0x0 D:/PYRAMID_SW/dsp_trunk/tags/Sphinx_0p2/testing_app/system_integration/bin/Py_210123_eval/Release/src/dsp_evnt_mngr.o
 .data          0x500a2608        0x0 D:/PYRAMID_SW/dsp_trunk/tags/Sphinx_0p2/testing_app/system_integration/bin/Py_210123_eval/Release/src/dsp_hal.o
 .data          0x500a2608        0x0 D:/PYRAMID_SW/dsp_trunk/tags/Sphinx_0p2/testing_app/system_integration/bin/Py_210123_eval/Release/src/dsp_hal_activetop.o
 .data          0x500a2608        0x0 D:/PYRAMID_SW/dsp_trunk/tags/Sphinx_0p2/testing_app/system_integration/bin/Py_210123_eval/Release/src/dsp_hal_cli_top.o
 .data          0x500a2608        0x0 D:/PYRAMID_SW/dsp_trunk/tags/Sphinx_0p2/testing_app/system_integration/bin/Py_210123_eval/Release/src/dsp_hal_dsp_top.o
 .data          0x500a2608        0x0 D:/PYRAMID_SW/dsp_trunk/tags/Sphinx_0p2/testing_app/system_integration/bin/Py_210123_eval/Release/src/dsp_hal_fifo.o
 .data          0x500a2608        0x0 D:/PYRAMID_SW/dsp_trunk/tags/Sphinx_0p2/testing_app/system_integration/bin/Py_210123_eval/Release/src/dsp_hal_hmb.o
 .data          0x500a2608        0x0 D:/PYRAMID_SW/dsp_trunk/tags/Sphinx_0p2/testing_app/system_integration/bin/Py_210123_eval/Release/src/dsp_hal_intr.o
 .data          0x500a2608        0x0 D:/PYRAMID_SW/dsp_trunk/tags/Sphinx_0p2/testing_app/system_integration/bin/Py_210123_eval/Release/src/dsp_hal_mdm_top.o
 .data          0x500a2608        0x0 D:/PYRAMID_SW/dsp_trunk/tags/Sphinx_0p2/testing_app/system_integration/bin/Py_210123_eval/Release/src/dsp_hal_sml1_top.o
 .data          0x500a2608        0x0 D:/PYRAMID_SW/dsp_trunk/tags/Sphinx_0p2/testing_app/system_integration/bin/Py_210123_eval/Release/src/dsp_hal_sml3.o
 .data          0x500a2608        0x0 D:/PYRAMID_SW/dsp_trunk/tags/Sphinx_0p2/testing_app/system_integration/bin/Py_210123_eval/Release/src/dsp_hal_timer.o
 .data          0x500a2608        0x0 D:/PYRAMID_SW/dsp_trunk/tags/Sphinx_0p2/testing_app/system_integration/bin/Py_210123_eval/Release/src/dsp_intr_hndlr.o
 .data          0x500a2608        0x0 D:/PYRAMID_SW/dsp_trunk/tags/Sphinx_0p2/testing_app/system_integration/bin/Py_210123_eval/Release/src/dsp_logs.o
 .data          0x500a2608        0x0 D:/PYRAMID_SW/dsp_trunk/tags/Sphinx_0p2/testing_app/system_integration/bin/Py_210123_eval/Release/src/dsp_m0_common.o
 .data          0x500a2608        0x0 D:/PYRAMID_SW/dsp_trunk/tags/Sphinx_0p2/testing_app/system_integration/bin/Py_210123_eval/Release/src/dsp_mngr.o
 .data          0x500a2608        0x0 D:/PYRAMID_SW/dsp_trunk/tags/Sphinx_0p2/testing_app/system_integration/bin/Py_210123_eval/Release/src/dsp_sml0_apc.o
 .data          0x500a2608        0x0 D:/PYRAMID_SW/dsp_trunk/tags/Sphinx_0p2/testing_app/system_integration/bin/Py_210123_eval/Release/src/dsp_sml0_lmac.o
 .data          0x500a2608        0x0 D:/PYRAMID_SW/dsp_trunk/tags/Sphinx_0p2/testing_app/system_integration/bin/Py_210123_eval/Release/src/dsp_sml1.o
 .data          0x500a2608        0x0 D:/PYRAMID_SW/dsp_trunk/tags/Sphinx_0p2/testing_app/system_integration/bin/Py_210123_eval/Release/src/dsp_sml1_dyn_reg.o
 .data          0x500a2608        0x0 D:/PYRAMID_SW/dsp_trunk/tags/Sphinx_0p2/testing_app/system_integration/bin/Py_210123_eval/Release/src/dsp_sml1_pcm.o
 .data          0x500a2608        0x0 D:/PYRAMID_SW/dsp_trunk/tags/Sphinx_0p2/testing_app/system_integration/bin/Py_210123_eval/Release/src/dsp_sml1_pcm_dyn_reg_lut.o
 .data          0x500a2608        0x0 D:/PYRAMID_SW/dsp_trunk/tags/Sphinx_0p2/testing_app/system_integration/bin/Py_210123_eval/Release/src/dsp_sml1_pcm_listener.o
 .data          0x500a2608        0x0 D:/PYRAMID_SW/dsp_trunk/tags/Sphinx_0p2/testing_app/system_integration/bin/Py_210123_eval/Release/src/dsp_sml1_pcm_listener_user_ta.o
 .data          0x500a2608        0x0 D:/PYRAMID_SW/dsp_trunk/tags/Sphinx_0p2/testing_app/system_integration/bin/Py_210123_eval/Release/src/dsp_sml1_pcm_poller.o
 .data          0x500a2608        0x0 D:/PYRAMID_SW/dsp_trunk/tags/Sphinx_0p2/testing_app/system_integration/bin/Py_210123_eval/Release/src/dsp_sml1_pcm_poller_user_ta.o
 .data          0x500a2608        0x0 D:/PYRAMID_SW/dsp_trunk/tags/Sphinx_0p2/testing_app/system_integration/bin/Py_210123_eval/Release/src/dsp_sml1_user_ta_lut.o
 .data          0x500a2608        0x0 D:/PYRAMID_SW/dsp_trunk/tags/Sphinx_0p2/testing_app/system_integration/bin/Py_210123_eval/Release/test_10_loopbck_nfcv_rw.o
 .data          0x500a2608        0x0 D:/PYRAMID_SW/dsp_trunk/tags/Sphinx_0p2/testing_app/system_integration/bin/Py_210123_eval/Release/test_1_loopbck_nfcf_rw_std.o
 .data          0x500a2608        0x0 D:/PYRAMID_SW/dsp_trunk/tags/Sphinx_0p2/testing_app/system_integration/bin/Py_210123_eval/Release/test_2_loopbck_nfcf_ce.o
 .data          0x500a2608        0x0 D:/PYRAMID_SW/dsp_trunk/tags/Sphinx_0p2/testing_app/system_integration/bin/Py_210123_eval/Release/test_3_loopbck_nfca_rw_std.o
 .data          0x500a2608        0x0 D:/PYRAMID_SW/dsp_trunk/tags/Sphinx_0p2/testing_app/system_integration/bin/Py_210123_eval/Release/test_4_loopbck_nfca_ce.o
 .data          0x500a2608        0x0 D:/PYRAMID_SW/dsp_trunk/tags/Sphinx_0p2/testing_app/system_integration/bin/Py_210123_eval/Release/test_5_loopbck_nfca_rw_sdd.o
 .data          0x500a2608        0x0 D:/PYRAMID_SW/dsp_trunk/tags/Sphinx_0p2/testing_app/system_integration/bin/Py_210123_eval/Release/test_6_loopbck_nfca_ce_swp_intf.o
 .data          0x500a2608        0x0 D:/PYRAMID_SW/dsp_trunk/tags/Sphinx_0p2/testing_app/system_integration/bin/Py_210123_eval/Release/test_7_loopbck_nfcb_rw.o
 .data          0x500a2608        0x0 D:/PYRAMID_SW/dsp_trunk/tags/Sphinx_0p2/testing_app/system_integration/bin/Py_210123_eval/Release/test_8_loopbck_nfcb_ce.o
 .data          0x500a2608        0x0 D:/PYRAMID_SW/dsp_trunk/tags/Sphinx_0p2/testing_app/system_integration/bin/Py_210123_eval/Release/test_9_loopbck_nfca_rw_t1t.o
 .data          0x500a2608        0x0 D:/PYRAMID_SW/dsp_trunk/tags/Sphinx_0p2/testing_app/system_integration/bin/Py_210123_eval/Release/test_integration.o
 .data          0x500a2608        0x0 C:/usr/xtensa/XtDevTools/install/builds/RI-2021.6-win32/Py_210123_eval/xtensa-elf/lib/xcc/\libgcc.a(_udivsi3.o)
 *(SORT(.data.sort.*))
 *(SORT(.data.keepsort.*) .data.keep.*)
 *(.data.*)
 *(.gnu.linkonce.d.*)
 *(.gnu.linkonce.d.*personality*)
 *(.data1)
 *(.sdata)
 *(.sdata.*)
 *(.gnu.linkonce.s.*)
 *(.sdata2)
 *(.sdata2.*)
 *(.gnu.linkonce.s2.*)
 *(.jcr)
 *(__llvm_prf_cnts)
 *(__llvm_prf_data)
 *(__llvm_prf_vnds)
                0x500a2608                . = ALIGN (0x4)
                0x500a2608                _data_end = ABSOLUTE (.)

.bss            0x500a2610     0x1180
                0x500a2610                . = ALIGN (0x8)
                0x500a2610                _bss_start = ABSOLUTE (.)
 *(.dynsbss)
 *(.sbss)
 *(.sbss.*)
 *(.gnu.linkonce.sb.*)
 *(.scommon)
 *(.sbss2)
 *(.sbss2.*)
 *(.gnu.linkonce.sb2.*)
 *(.dynbss)
 *(.bss)
 .bss           0x500a2610        0x0 C:/usr/xtensa/XtDevTools/install/builds/RI-2021.6-win32/Py_210123_eval/xtensa-elf/arch/lib/crt1-tiny.o
 .bss           0x500a2610       0x10 D:/PYRAMID_SW/dsp_trunk/tags/Sphinx_0p2/testing_app/system_integration/bin/Py_210123_eval/Release/dsp_verification.o
                0x500a261c                temp_data
 .bss           0x500a2620        0x0 D:/PYRAMID_SW/dsp_trunk/tags/Sphinx_0p2/testing_app/system_integration/bin/Py_210123_eval/Release/main.o
 .bss           0x500a2620        0x0 D:/PYRAMID_SW/dsp_trunk/tags/Sphinx_0p2/testing_app/system_integration/bin/Py_210123_eval/Release/src/dsp_bootloader.o
 .bss           0x500a2620       0x18 D:/PYRAMID_SW/dsp_trunk/tags/Sphinx_0p2/testing_app/system_integration/bin/Py_210123_eval/Release/src/dsp_cli_nfca_rx.o
                0x500a2620                g_sof_flag
                0x500a2621                g_rx_valid_parity_ctr
                0x500a2622                g_eof_flag
                0x500a2623                g_sof_flag_enc
                0x500a2624                g_last_bit_in
                0x500a2628                rx_mdm_end_tm_cptr_g
                0x500a262c                g_sof_flag_ce
                0x500a2630                t1t_data_ptr
                0x500a2634                t1t_data_len
                0x500a2636                t1t_crc
 .bss           0x500a2638        0x4 D:/PYRAMID_SW/dsp_trunk/tags/Sphinx_0p2/testing_app/system_integration/bin/Py_210123_eval/Release/src/dsp_cli_nfca_tx.o
                0x500a2638                g_nfca_tx_last_n_bytes_flag
                0x500a2639                g_nfca_tx_last_byte_flag
                0x500a263a                g_nfca_tx_last_bit_flag
                0x500a263b                g_rrdd_max
 .bss           0x500a263c        0x0 D:/PYRAMID_SW/dsp_trunk/tags/Sphinx_0p2/testing_app/system_integration/bin/Py_210123_eval/Release/src/dsp_cli_nfcb_rx.o
 .bss           0x500a263c        0x0 D:/PYRAMID_SW/dsp_trunk/tags/Sphinx_0p2/testing_app/system_integration/bin/Py_210123_eval/Release/src/dsp_cli_nfcb_tx.o
 .bss           0x500a263c        0x0 D:/PYRAMID_SW/dsp_trunk/tags/Sphinx_0p2/testing_app/system_integration/bin/Py_210123_eval/Release/src/dsp_cli_nfcf_rx.o
 .bss           0x500a263c        0x0 D:/PYRAMID_SW/dsp_trunk/tags/Sphinx_0p2/testing_app/system_integration/bin/Py_210123_eval/Release/src/dsp_cli_nfcf_tx.o
 .bss           0x500a263c        0x0 D:/PYRAMID_SW/dsp_trunk/tags/Sphinx_0p2/testing_app/system_integration/bin/Py_210123_eval/Release/src/dsp_cli_nfcv_rx.o
 .bss           0x500a263c        0x0 D:/PYRAMID_SW/dsp_trunk/tags/Sphinx_0p2/testing_app/system_integration/bin/Py_210123_eval/Release/src/dsp_cli_nfcv_tx.o
 .bss           0x500a263c        0x0 D:/PYRAMID_SW/dsp_trunk/tags/Sphinx_0p2/testing_app/system_integration/bin/Py_210123_eval/Release/src/dsp_cli_rx.o
 .bss           0x500a263c        0x3 D:/PYRAMID_SW/dsp_trunk/tags/Sphinx_0p2/testing_app/system_integration/bin/Py_210123_eval/Release/src/dsp_cli_tx.o
                0x500a263c                tx_win_size_bytes
                0x500a263d                tx_win_size_bits
                0x500a263e                g_is_tx_finished
 .bss           0x500a263f        0x0 D:/PYRAMID_SW/dsp_trunk/tags/Sphinx_0p2/testing_app/system_integration/bin/Py_210123_eval/Release/src/dsp_cli_utils.o
 .bss           0x500a263f        0x0 D:/PYRAMID_SW/dsp_trunk/tags/Sphinx_0p2/testing_app/system_integration/bin/Py_210123_eval/Release/src/dsp_cli_wind_lut.o
 *fill*         0x500a263f        0x1 
 .bss           0x500a2640       0x90 D:/PYRAMID_SW/dsp_trunk/tags/Sphinx_0p2/testing_app/system_integration/bin/Py_210123_eval/Release/src/dsp_evnt_mngr.o
                0x500a2640                hndld_evnts
 .bss           0x500a26d0        0x0 D:/PYRAMID_SW/dsp_trunk/tags/Sphinx_0p2/testing_app/system_integration/bin/Py_210123_eval/Release/src/dsp_hal.o
 .bss           0x500a26d0        0x0 D:/PYRAMID_SW/dsp_trunk/tags/Sphinx_0p2/testing_app/system_integration/bin/Py_210123_eval/Release/src/dsp_hal_activetop.o
 .bss           0x500a26d0        0xc D:/PYRAMID_SW/dsp_trunk/tags/Sphinx_0p2/testing_app/system_integration/bin/Py_210123_eval/Release/src/dsp_hal_cli_top.o
                0x500a26d0                rxend_time
                0x500a26d4                poll_to_poll_flg
                0x500a26d5                lstn_to_poll_flg
                0x500a26d8                cli_top_reg
 .bss           0x500a26dc        0x0 D:/PYRAMID_SW/dsp_trunk/tags/Sphinx_0p2/testing_app/system_integration/bin/Py_210123_eval/Release/src/dsp_hal_dsp_top.o
 .bss           0x500a26dc        0x0 D:/PYRAMID_SW/dsp_trunk/tags/Sphinx_0p2/testing_app/system_integration/bin/Py_210123_eval/Release/src/dsp_hal_fifo.o
 .bss           0x500a26dc        0x0 D:/PYRAMID_SW/dsp_trunk/tags/Sphinx_0p2/testing_app/system_integration/bin/Py_210123_eval/Release/src/dsp_hal_hmb.o
 .bss           0x500a26dc        0x0 D:/PYRAMID_SW/dsp_trunk/tags/Sphinx_0p2/testing_app/system_integration/bin/Py_210123_eval/Release/src/dsp_hal_intr.o
 .bss           0x500a26dc        0x0 D:/PYRAMID_SW/dsp_trunk/tags/Sphinx_0p2/testing_app/system_integration/bin/Py_210123_eval/Release/src/dsp_hal_mdm_top.o
 .bss           0x500a26dc        0x0 D:/PYRAMID_SW/dsp_trunk/tags/Sphinx_0p2/testing_app/system_integration/bin/Py_210123_eval/Release/src/dsp_hal_sml1_top.o
 .bss           0x500a26dc        0x0 D:/PYRAMID_SW/dsp_trunk/tags/Sphinx_0p2/testing_app/system_integration/bin/Py_210123_eval/Release/src/dsp_hal_sml3.o
 *fill*         0x500a26dc        0x4 
 .bss           0x500a26e0       0x70 D:/PYRAMID_SW/dsp_trunk/tags/Sphinx_0p2/testing_app/system_integration/bin/Py_210123_eval/Release/src/dsp_hal_timer.o
                0x500a26e0                TIMER_S
                0x500a26e4                timer_clk
                0x500a26e8                tmr_rate_g
                0x500a26f0                alarms_state
                0x500a2720                alarm_clbk
 .bss           0x500a2750        0x0 D:/PYRAMID_SW/dsp_trunk/tags/Sphinx_0p2/testing_app/system_integration/bin/Py_210123_eval/Release/src/dsp_intr_hndlr.o
 .bss           0x500a2750      0x170 D:/PYRAMID_SW/dsp_trunk/tags/Sphinx_0p2/testing_app/system_integration/bin/Py_210123_eval/Release/src/dsp_logs.o
                0x500a2750                log_count
                0x500a2754                logger_interface
                0x500a276c                logger_interface_ptr
                0x500a2770                active_bank_address
                0x500a2774                next_word_index
                0x500a2780                dsp_logs_banks
 .bss           0x500a28c0      0x660 D:/PYRAMID_SW/dsp_trunk/tags/Sphinx_0p2/testing_app/system_integration/bin/Py_210123_eval/Release/src/dsp_m0_common.o
                0x500a28c0                dsp_m0_common
                0x500a2da8                dsp_m0_common_ptr
                0x500a2dac                dsp_m0_mdm
                0x500a2dd0                dsp_m0_mdm_ptr
                0x500a2dd4                cli_rx_ip_data
                0x500a2de0                data_buffer
 .bss           0x500a2f20      0x809 D:/PYRAMID_SW/dsp_trunk/tags/Sphinx_0p2/testing_app/system_integration/bin/Py_210123_eval/Release/src/dsp_mngr.o
                0x500a2f20                ce_next_cmd_flag
                0x500a2f21                g_emd_flag
                0x500a2f24                cli_config
                0x500a33e0                g_sml1
                0x500a3728                dsp_assert_flag
 .bss           0x500a3729        0x0 D:/PYRAMID_SW/dsp_trunk/tags/Sphinx_0p2/testing_app/system_integration/bin/Py_210123_eval/Release/src/dsp_sml0_apc.o
 .bss           0x500a3729        0x0 D:/PYRAMID_SW/dsp_trunk/tags/Sphinx_0p2/testing_app/system_integration/bin/Py_210123_eval/Release/src/dsp_sml0_lmac.o
 .bss           0x500a3729        0x0 D:/PYRAMID_SW/dsp_trunk/tags/Sphinx_0p2/testing_app/system_integration/bin/Py_210123_eval/Release/src/dsp_sml1.o
 .bss           0x500a3729        0x0 D:/PYRAMID_SW/dsp_trunk/tags/Sphinx_0p2/testing_app/system_integration/bin/Py_210123_eval/Release/src/dsp_sml1_dyn_reg.o
 .bss           0x500a3729        0x0 D:/PYRAMID_SW/dsp_trunk/tags/Sphinx_0p2/testing_app/system_integration/bin/Py_210123_eval/Release/src/dsp_sml1_pcm.o
 .bss           0x500a3729        0x0 D:/PYRAMID_SW/dsp_trunk/tags/Sphinx_0p2/testing_app/system_integration/bin/Py_210123_eval/Release/src/dsp_sml1_pcm_dyn_reg_lut.o
 *fill*         0x500a3729        0x3 
 .bss           0x500a372c        0x1 D:/PYRAMID_SW/dsp_trunk/tags/Sphinx_0p2/testing_app/system_integration/bin/Py_210123_eval/Release/src/dsp_sml1_pcm_listener.o
                0x500a372c                g_rf_off_counter
 *fill*         0x500a372d        0x3 
 .bss           0x500a3730       0x20 D:/PYRAMID_SW/dsp_trunk/tags/Sphinx_0p2/testing_app/system_integration/bin/Py_210123_eval/Release/src/dsp_sml1_pcm_listener_user_ta.o
                0x500a3730                regs_listener
 .bss           0x500a3750        0x0 D:/PYRAMID_SW/dsp_trunk/tags/Sphinx_0p2/testing_app/system_integration/bin/Py_210123_eval/Release/src/dsp_sml1_pcm_poller.o
 .bss           0x500a3750       0x30 D:/PYRAMID_SW/dsp_trunk/tags/Sphinx_0p2/testing_app/system_integration/bin/Py_210123_eval/Release/src/dsp_sml1_pcm_poller_user_ta.o
                0x500a3750                force_rfagc_temp_value
                0x500a3751                val_len
                0x500a3760                regs_poller
 .bss           0x500a3780        0x0 D:/PYRAMID_SW/dsp_trunk/tags/Sphinx_0p2/testing_app/system_integration/bin/Py_210123_eval/Release/src/dsp_sml1_user_ta_lut.o
 .bss           0x500a3780        0x0 D:/PYRAMID_SW/dsp_trunk/tags/Sphinx_0p2/testing_app/system_integration/bin/Py_210123_eval/Release/test_10_loopbck_nfcv_rw.o
 .bss           0x500a3780        0x0 D:/PYRAMID_SW/dsp_trunk/tags/Sphinx_0p2/testing_app/system_integration/bin/Py_210123_eval/Release/test_1_loopbck_nfcf_rw_std.o
 .bss           0x500a3780        0x0 D:/PYRAMID_SW/dsp_trunk/tags/Sphinx_0p2/testing_app/system_integration/bin/Py_210123_eval/Release/test_2_loopbck_nfcf_ce.o
 .bss           0x500a3780        0x0 D:/PYRAMID_SW/dsp_trunk/tags/Sphinx_0p2/testing_app/system_integration/bin/Py_210123_eval/Release/test_3_loopbck_nfca_rw_std.o
 .bss           0x500a3780        0x0 D:/PYRAMID_SW/dsp_trunk/tags/Sphinx_0p2/testing_app/system_integration/bin/Py_210123_eval/Release/test_4_loopbck_nfca_ce.o
 .bss           0x500a3780        0x0 D:/PYRAMID_SW/dsp_trunk/tags/Sphinx_0p2/testing_app/system_integration/bin/Py_210123_eval/Release/test_5_loopbck_nfca_rw_sdd.o
 .bss           0x500a3780        0x0 D:/PYRAMID_SW/dsp_trunk/tags/Sphinx_0p2/testing_app/system_integration/bin/Py_210123_eval/Release/test_6_loopbck_nfca_ce_swp_intf.o
 .bss           0x500a3780        0x0 D:/PYRAMID_SW/dsp_trunk/tags/Sphinx_0p2/testing_app/system_integration/bin/Py_210123_eval/Release/test_7_loopbck_nfcb_rw.o
 .bss           0x500a3780        0x0 D:/PYRAMID_SW/dsp_trunk/tags/Sphinx_0p2/testing_app/system_integration/bin/Py_210123_eval/Release/test_8_loopbck_nfcb_ce.o
 .bss           0x500a3780        0x0 D:/PYRAMID_SW/dsp_trunk/tags/Sphinx_0p2/testing_app/system_integration/bin/Py_210123_eval/Release/test_9_loopbck_nfca_rw_t1t.o
 .bss           0x500a3780        0x0 D:/PYRAMID_SW/dsp_trunk/tags/Sphinx_0p2/testing_app/system_integration/bin/Py_210123_eval/Release/test_integration.o
 .bss           0x500a3780        0x0 C:/usr/xtensa/XtDevTools/install/builds/RI-2021.6-win32/Py_210123_eval/xtensa-elf/lib/xcc/\libgcc.a(_udivsi3.o)
 *(SORT(.bss.sort.*))
 *(SORT(.bss.keepsort.*) .bss.keep.*)
 *(.bss.*)
 *(.gnu.linkonce.b.*)
 *(COMMON)
 COMMON         0x500a3780       0x10 D:/PYRAMID_SW/dsp_trunk/tags/Sphinx_0p2/testing_app/system_integration/bin/Py_210123_eval/Release/dsp_verification.o
                0x500a3780                __AE_SEARCHDONE
                0x500a3784                __AE_NEXTOFFSET
                0x500a3788                __AE_FIRST_TS
                0x500a378c                __AE_TABLESIZE
 *(.clib.bss)
 *(.clib.percpu.bss)
 *(.rtos.percpu.bss)
 .rtos.percpu.bss
                0x500a3790        0x0 C:/usr/xtensa/XtDevTools/install/builds/RI-2021.6-win32/Py_210123_eval/xtensa-elf/arch/lib/\libhandler-reset-unpack.a(reset-vector-unpack.o)
 .rtos.percpu.bss
                0x500a3790        0x0 C:/usr/xtensa/XtDevTools/install/builds/RI-2021.6-win32/Py_210123_eval/xtensa-elf/arch/lib/\libhandlers-board.a(xtos-interrupt-enable.o)
 .rtos.percpu.bss
                0x500a3790        0x0 C:/usr/xtensa/XtDevTools/install/builds/RI-2021.6-win32/Py_210123_eval/xtensa-elf/arch/lib/\libhandlers-board.a(xtos-interrupt-disable.o)
 .rtos.percpu.bss
                0x500a3790        0x0 C:/usr/xtensa/XtDevTools/install/builds/RI-2021.6-win32/Py_210123_eval/xtensa-elf/arch/lib/\libhandlers-board.a(xtos-interrupt-clear.o)
 .rtos.percpu.bss
                0x500a3790        0x0 C:/usr/xtensa/XtDevTools/install/builds/RI-2021.6-win32/Py_210123_eval/xtensa-elf/arch/lib/\libhandlers-board.a(xtos-set-inthandler.o)
 .rtos.percpu.bss
                0x500a3790        0x0 C:/usr/xtensa/XtDevTools/install/builds/RI-2021.6-win32/Py_210123_eval/xtensa-elf/arch/lib/\libhandlers-board.a(xtos-set-exchandler.o)
 .rtos.percpu.bss
                0x500a3790        0x0 C:/usr/xtensa/XtDevTools/install/builds/RI-2021.6-win32/Py_210123_eval/xtensa-elf/arch/lib/\libhandlers-board.a(exc-syscall-handler.o)
 .rtos.percpu.bss
                0x500a3790        0x0 C:/usr/xtensa/XtDevTools/install/builds/RI-2021.6-win32/Py_210123_eval/xtensa-elf/arch/lib/\libhandlers-board.a(exc-table.o)
 .rtos.percpu.bss
                0x500a3790        0x0 C:/usr/xtensa/XtDevTools/install/builds/RI-2021.6-win32/Py_210123_eval/xtensa-elf/arch/lib/\libhandlers-board.a(interrupt-table.o)
 .rtos.percpu.bss
                0x500a3790        0x0 C:/usr/xtensa/XtDevTools/install/builds/RI-2021.6-win32/Py_210123_eval/xtensa-elf/arch/lib/\libhandlers-board.a(user-vector.o)
 .rtos.percpu.bss
                0x500a3790        0x0 C:/usr/xtensa/XtDevTools/install/builds/RI-2021.6-win32/Py_210123_eval/xtensa-elf/arch/lib/\libhandlers-board.a(exc-c-wrapper-handler.o)
 .rtos.percpu.bss
                0x500a3790        0x0 C:/usr/xtensa/XtDevTools/install/builds/RI-2021.6-win32/Py_210123_eval/xtensa-elf/arch/lib/\libhandlers-board.a(exc-return.o)
 .rtos.percpu.bss
                0x500a3790        0x0 C:/usr/xtensa/XtDevTools/install/builds/RI-2021.6-win32/Py_210123_eval/xtensa-elf/arch/lib/\libhandlers-board.a(int-lowpri-dispatcher.o)
 .rtos.percpu.bss
                0x500a3790        0x0 C:/usr/xtensa/XtDevTools/install/builds/RI-2021.6-win32/Py_210123_eval/xtensa-elf/arch/lib/\libhandlers-board.a(window-vectors.o)
 .rtos.percpu.bss
                0x500a3790        0x0 C:/usr/xtensa/XtDevTools/install/builds/RI-2021.6-win32/Py_210123_eval/xtensa-elf/arch/lib/\libhandlers-board.a(int-init-level1.o)
 .rtos.percpu.bss
                0x500a3790        0x0 C:/usr/xtensa/XtDevTools/install/builds/RI-2021.6-win32/Py_210123_eval/xtensa-elf/arch/lib/\libhandlers-board.a(int-init-level2.o)
 .rtos.percpu.bss
                0x500a3790        0x0 C:/usr/xtensa/XtDevTools/install/builds/RI-2021.6-win32/Py_210123_eval/xtensa-elf/arch/lib/\libhandlers-board.a(int-init-level3.o)
 .rtos.percpu.bss
                0x500a3790        0x0 C:/usr/xtensa/XtDevTools/install/builds/RI-2021.6-win32/Py_210123_eval/xtensa-elf/arch/lib/\libhandlers-board.a(exc-unhandled.o)
 .rtos.percpu.bss
                0x500a3790        0x0 C:/usr/xtensa/XtDevTools/install/builds/RI-2021.6-win32/Py_210123_eval/xtensa-elf/arch/lib/\libhandlers-board.a(tiny-refs-S--level1int-.o)
 .rtos.percpu.bss
                0x500a3790        0x0 C:/usr/xtensa/XtDevTools/install/builds/RI-2021.6-win32/Py_210123_eval/xtensa-elf/arch/lib/\libhandlers-board.a(int-vector-level2.o)
 .rtos.percpu.bss
                0x500a3790        0x0 C:/usr/xtensa/XtDevTools/install/builds/RI-2021.6-win32/Py_210123_eval/xtensa-elf/arch/lib/\libhandlers-board.a(int-vector-level3.o)
 .rtos.percpu.bss
                0x500a3790        0x0 C:/usr/xtensa/XtDevTools/install/builds/RI-2021.6-win32/Py_210123_eval/xtensa-elf/arch/lib/\libhandlers-board.a(int-handler-level2.o)
 .rtos.percpu.bss
                0x500a3790        0x0 C:/usr/xtensa/XtDevTools/install/builds/RI-2021.6-win32/Py_210123_eval/xtensa-elf/arch/lib/\libhandlers-board.a(int-handler-level3.o)
 .rtos.percpu.bss
                0x500a3790        0x0 C:/usr/xtensa/XtDevTools/install/builds/RI-2021.6-win32/Py_210123_eval/xtensa-elf/arch/lib/\libhandlers-min.a(tiny-refs-min.o)
 .rtos.percpu.bss
                0x500a3790        0x0 C:/usr/xtensa/XtDevTools/install/builds/RI-2021.6-win32/Py_210123_eval/xtensa-elf/arch/lib/\libhandlers-null.a(_vectors.o)
 .rtos.percpu.bss
                0x500a3790        0x0 C:/usr/xtensa/XtDevTools/install/builds/RI-2021.6-win32/Py_210123_eval/xtensa-elf/arch/lib/\libhandlers-null.a(_sharedvectors.o)
 .rtos.percpu.bss
                0x500a3790        0x0 C:/usr/xtensa/XtDevTools/install/builds/RI-2021.6-win32/Py_210123_eval/xtensa-elf/arch/lib/\libhandlers-board.a(debug-vector.o)
 .rtos.percpu.bss
                0x500a3790        0x0 C:/usr/xtensa/XtDevTools/install/builds/RI-2021.6-win32/Py_210123_eval/xtensa-elf/arch/lib/\libhandlers-board.a(double-vector.o)
 .rtos.percpu.bss
                0x500a3790        0x0 C:/usr/xtensa/XtDevTools/install/builds/RI-2021.6-win32/Py_210123_eval/xtensa-elf/arch/lib/\libhandlers-board.a(kernel-vector.o)
 *(.rtos.bss)
 .rtos.bss      0x500a3790        0x0 C:/usr/xtensa/XtDevTools/install/builds/RI-2021.6-win32/Py_210123_eval/xtensa-elf/arch/lib/\libhal.a(cache_asm--hw_configid0.o)
 .rtos.bss      0x500a3790        0x0 C:/usr/xtensa/XtDevTools/install/builds/RI-2021.6-win32/Py_210123_eval/xtensa-elf/arch/lib/\libhal.a(cache_asm--hw_configid1.o)
 .rtos.bss      0x500a3790        0x0 C:/usr/xtensa/XtDevTools/install/builds/RI-2021.6-win32/Py_210123_eval/xtensa-elf/arch/lib/\libhal.a(cache_asm--release_major.o)
 .rtos.bss      0x500a3790        0x0 C:/usr/xtensa/XtDevTools/install/builds/RI-2021.6-win32/Py_210123_eval/xtensa-elf/arch/lib/\libhal.a(cache_asm--release_minor.o)
 .rtos.bss      0x500a3790        0x0 C:/usr/xtensa/XtDevTools/install/builds/RI-2021.6-win32/Py_210123_eval/xtensa-elf/arch/lib/\libhal.a(const--intlevel.o)
 *(.dram0.bss)
                0x500a3790                . = ALIGN (0x8)
                0x500a3790                _bss_end = ABSOLUTE (.)
                0x500a3790                _end = ALIGN (0x8)
                0x500a3790                PROVIDE (end, ALIGN (0x8))
                0x500a3790                _stack_sentry = ALIGN (0x8)
                0x500a3790                _memmap_seg_dram0_0_end = ALIGN (0x8)
                0x500a3800                PROVIDE (__stack, 0x500a3800)
                0x500a3800                _heap_sentry = 0x500a3800

.patch.data     0x500a3800        0x0
                0x500a3800                _patch_data_start = ABSOLUTE (.)
 *(.patch.data)
                0x500a3800                . = ALIGN (0x4)
                0x500a3800                _patch_data_end = ABSOLUTE (.)
                0x500a3800                _memmap_seg_dpatch_end = ALIGN (0x8)
                0x500a3800                _memmap_mem_dram0_max = ABSOLUTE (.)

.iram1_0.text   0x500b0000        0x0
                0x500b0000                _iram1_0_text_start = ABSOLUTE (.)
 *(.iram1_0.literal .iram1_0.text)
                0x500b0000                . = ALIGN (0x4)
                0x500b0000                _iram1_0_text_end = ABSOLUTE (.)
                0x500b0000                _memmap_seg_iram1_0_end = ALIGN (0x8)

.iram1_1.text   0x500b4000        0x0
                0x500b4000                _iram1_1_text_start = ABSOLUTE (.)
 *(.iram1_1.literal .iram1_1.text)
                0x500b4000                . = ALIGN (0x4)
                0x500b4000                _iram1_1_text_end = ABSOLUTE (.)
                0x500b4000                _memmap_seg_iram1_1_end = ALIGN (0x8)

.iram1_2.text   0x500b6000        0x0
                0x500b6000                _iram1_2_text_start = ABSOLUTE (.)
 *(.iram1_2.literal .iram1_2.text)
                0x500b6000                . = ALIGN (0x4)
                0x500b6000                _iram1_2_text_end = ABSOLUTE (.)
                0x500b6000                _memmap_seg_iram1_2_end = ALIGN (0x8)
                0x500b6000                _memmap_mem_iram1_max = ABSOLUTE (.)

.DoubleExceptionVector.text
                0x50000700        0x8
                0x50000700                _DoubleExceptionVector_text_start = ABSOLUTE (.)
 *(.DoubleExceptionVector.text)
 .DoubleExceptionVector.text
                0x50000700        0x6 C:/usr/xtensa/XtDevTools/install/builds/RI-2021.6-win32/Py_210123_eval/xtensa-elf/arch/lib/\libhandlers-board.a(double-vector.o)
                0x50000700                _DoubleExceptionVector
                0x50000708                . = ALIGN (0x4)
 *fill*         0x50000706        0x2 
                0x50000708                _DoubleExceptionVector_text_end = ABSOLUTE (.)

__llvm_prf_names
                0x50000708        0x0
                0x50000708                __llvm_prf_names_start = ABSOLUTE (.)
 *(__llvm_prf_names)
                0x50000708                . = ALIGN (0x4)
                0x50000708                __llvm_prf_names_end = ABSOLUTE (.)

.text           0x50000708     0xec04
                0x50000708                _stext = .
                0x50000708                _text_start = ABSOLUTE (.)
 *(.entry.text)
 *(.init.literal)
 *(.init)
 *(.literal.sort.* SORT(.text.sort.*))
 *(.literal.keepsort.* SORT(.text.keepsort.*) .literal.keep.* .text.keep.* .literal.*personality* .text.*personality*)
 *(.literal .text .literal.* .text.* .stub .gnu.warning .gnu.linkonce.literal.* .gnu.linkonce.t.*.literal .gnu.linkonce.t.*)
 .literal       0x50000708       0x10 C:/usr/xtensa/XtDevTools/install/builds/RI-2021.6-win32/Py_210123_eval/xtensa-elf/arch/lib/crt1-tiny.o
                                         0x14 (size before relaxing)
 .literal       0x50000718        0x4 D:/PYRAMID_SW/dsp_trunk/tags/Sphinx_0p2/testing_app/system_integration/bin/Py_210123_eval/Release/dsp_verification.o
 .literal       0x5000071c       0x10 D:/PYRAMID_SW/dsp_trunk/tags/Sphinx_0p2/testing_app/system_integration/bin/Py_210123_eval/Release/main.o
 .literal       0x5000072c       0x30 D:/PYRAMID_SW/dsp_trunk/tags/Sphinx_0p2/testing_app/system_integration/bin/Py_210123_eval/Release/src/dsp_bootloader.o
                                         0x38 (size before relaxing)
 .literal       0x5000075c       0x2c D:/PYRAMID_SW/dsp_trunk/tags/Sphinx_0p2/testing_app/system_integration/bin/Py_210123_eval/Release/src/dsp_cli_nfca_rx.o
                                         0xbc (size before relaxing)
 .literal       0x50000788       0x2c D:/PYRAMID_SW/dsp_trunk/tags/Sphinx_0p2/testing_app/system_integration/bin/Py_210123_eval/Release/src/dsp_cli_nfca_tx.o
                                        0x180 (size before relaxing)
 .literal       0x500007b4        0x4 D:/PYRAMID_SW/dsp_trunk/tags/Sphinx_0p2/testing_app/system_integration/bin/Py_210123_eval/Release/src/dsp_cli_nfcb_rx.o
                                         0x3c (size before relaxing)
 .literal       0x500007b8        0x8 D:/PYRAMID_SW/dsp_trunk/tags/Sphinx_0p2/testing_app/system_integration/bin/Py_210123_eval/Release/src/dsp_cli_nfcb_tx.o
                                         0x68 (size before relaxing)
 .literal       0x500007c0       0x10 D:/PYRAMID_SW/dsp_trunk/tags/Sphinx_0p2/testing_app/system_integration/bin/Py_210123_eval/Release/src/dsp_cli_nfcf_rx.o
                                         0x98 (size before relaxing)
 .literal       0x500007d0       0x14 D:/PYRAMID_SW/dsp_trunk/tags/Sphinx_0p2/testing_app/system_integration/bin/Py_210123_eval/Release/src/dsp_cli_nfcf_tx.o
                                         0x7c (size before relaxing)
 .literal       0x500007e4        0x4 D:/PYRAMID_SW/dsp_trunk/tags/Sphinx_0p2/testing_app/system_integration/bin/Py_210123_eval/Release/src/dsp_cli_nfcv_rx.o
                                         0x2c (size before relaxing)
 .literal       0x500007e8        0xc D:/PYRAMID_SW/dsp_trunk/tags/Sphinx_0p2/testing_app/system_integration/bin/Py_210123_eval/Release/src/dsp_cli_nfcv_tx.o
                                         0x64 (size before relaxing)
 .literal       0x500007f4       0x1c D:/PYRAMID_SW/dsp_trunk/tags/Sphinx_0p2/testing_app/system_integration/bin/Py_210123_eval/Release/src/dsp_cli_rx.o
                                         0x5c (size before relaxing)
 .literal       0x50000810       0x10 D:/PYRAMID_SW/dsp_trunk/tags/Sphinx_0p2/testing_app/system_integration/bin/Py_210123_eval/Release/src/dsp_cli_tx.o
                                         0x8c (size before relaxing)
 .literal       0x50000820        0x0 D:/PYRAMID_SW/dsp_trunk/tags/Sphinx_0p2/testing_app/system_integration/bin/Py_210123_eval/Release/src/dsp_cli_utils.o
                                          0x4 (size before relaxing)
 .literal       0x50000820        0x4 D:/PYRAMID_SW/dsp_trunk/tags/Sphinx_0p2/testing_app/system_integration/bin/Py_210123_eval/Release/src/dsp_evnt_mngr.o
                                         0x10 (size before relaxing)
 .literal       0x50000824       0x18 D:/PYRAMID_SW/dsp_trunk/tags/Sphinx_0p2/testing_app/system_integration/bin/Py_210123_eval/Release/src/dsp_hal.o
                                         0x34 (size before relaxing)
 .literal       0x5000083c        0x4 D:/PYRAMID_SW/dsp_trunk/tags/Sphinx_0p2/testing_app/system_integration/bin/Py_210123_eval/Release/src/dsp_hal_activetop.o
                                          0x8 (size before relaxing)
 .literal       0x50000840       0x60 D:/PYRAMID_SW/dsp_trunk/tags/Sphinx_0p2/testing_app/system_integration/bin/Py_210123_eval/Release/src/dsp_hal_cli_top.o
                                        0x138 (size before relaxing)
 .literal       0x500008a0        0x0 D:/PYRAMID_SW/dsp_trunk/tags/Sphinx_0p2/testing_app/system_integration/bin/Py_210123_eval/Release/src/dsp_hal_dsp_top.o
                                          0x4 (size before relaxing)
 .literal       0x500008a0        0x0 D:/PYRAMID_SW/dsp_trunk/tags/Sphinx_0p2/testing_app/system_integration/bin/Py_210123_eval/Release/src/dsp_hal_fifo.o
                                          0x4 (size before relaxing)
 .literal       0x500008a0        0x4 D:/PYRAMID_SW/dsp_trunk/tags/Sphinx_0p2/testing_app/system_integration/bin/Py_210123_eval/Release/src/dsp_hal_hmb.o
                                         0x18 (size before relaxing)
 .literal       0x500008a4       0x1c D:/PYRAMID_SW/dsp_trunk/tags/Sphinx_0p2/testing_app/system_integration/bin/Py_210123_eval/Release/src/dsp_hal_mdm_top.o
                                         0x34 (size before relaxing)
 .literal       0x500008c0        0x0 D:/PYRAMID_SW/dsp_trunk/tags/Sphinx_0p2/testing_app/system_integration/bin/Py_210123_eval/Release/src/dsp_hal_sml1_top.o
                                          0x8 (size before relaxing)
 .literal       0x500008c0       0xc0 D:/PYRAMID_SW/dsp_trunk/tags/Sphinx_0p2/testing_app/system_integration/bin/Py_210123_eval/Release/src/dsp_hal_sml3.o
                                         0xf8 (size before relaxing)
 .literal       0x50000980       0x28 D:/PYRAMID_SW/dsp_trunk/tags/Sphinx_0p2/testing_app/system_integration/bin/Py_210123_eval/Release/src/dsp_hal_timer.o
                                         0x64 (size before relaxing)
 .literal       0x500009a8        0xc D:/PYRAMID_SW/dsp_trunk/tags/Sphinx_0p2/testing_app/system_integration/bin/Py_210123_eval/Release/src/dsp_intr_hndlr.o
                                         0x94 (size before relaxing)
 .literal       0x500009b4       0x10 D:/PYRAMID_SW/dsp_trunk/tags/Sphinx_0p2/testing_app/system_integration/bin/Py_210123_eval/Release/src/dsp_logs.o
                                         0x1c (size before relaxing)
 .literal       0x500009c4        0x8 D:/PYRAMID_SW/dsp_trunk/tags/Sphinx_0p2/testing_app/system_integration/bin/Py_210123_eval/Release/src/dsp_m0_common.o
                                          0xc (size before relaxing)
 .literal       0x500009cc       0x1c D:/PYRAMID_SW/dsp_trunk/tags/Sphinx_0p2/testing_app/system_integration/bin/Py_210123_eval/Release/src/dsp_mngr.o
                                         0xac (size before relaxing)
 .literal       0x500009e8       0x14 D:/PYRAMID_SW/dsp_trunk/tags/Sphinx_0p2/testing_app/system_integration/bin/Py_210123_eval/Release/src/dsp_sml0_apc.o
                                         0x58 (size before relaxing)
 .literal       0x500009fc        0x0 D:/PYRAMID_SW/dsp_trunk/tags/Sphinx_0p2/testing_app/system_integration/bin/Py_210123_eval/Release/src/dsp_sml0_lmac.o
                                          0x4 (size before relaxing)
 .literal       0x500009fc        0x0 D:/PYRAMID_SW/dsp_trunk/tags/Sphinx_0p2/testing_app/system_integration/bin/Py_210123_eval/Release/src/dsp_sml1.o
                                         0x1c (size before relaxing)
 .literal       0x500009fc       0x5c D:/PYRAMID_SW/dsp_trunk/tags/Sphinx_0p2/testing_app/system_integration/bin/Py_210123_eval/Release/src/dsp_sml1_dyn_reg.o
                                        0x104 (size before relaxing)
 .literal       0x50000a58       0x1c D:/PYRAMID_SW/dsp_trunk/tags/Sphinx_0p2/testing_app/system_integration/bin/Py_210123_eval/Release/src/dsp_sml1_pcm.o
                                         0xc4 (size before relaxing)
 .literal       0x50000a74       0x24 D:/PYRAMID_SW/dsp_trunk/tags/Sphinx_0p2/testing_app/system_integration/bin/Py_210123_eval/Release/src/dsp_sml1_pcm_listener.o
                                         0xc0 (size before relaxing)
 .literal       0x50000a98       0x4c D:/PYRAMID_SW/dsp_trunk/tags/Sphinx_0p2/testing_app/system_integration/bin/Py_210123_eval/Release/src/dsp_sml1_pcm_listener_user_ta.o
                                        0x1d4 (size before relaxing)
 .literal       0x50000ae4       0x1c D:/PYRAMID_SW/dsp_trunk/tags/Sphinx_0p2/testing_app/system_integration/bin/Py_210123_eval/Release/src/dsp_sml1_pcm_poller.o
                                         0xe8 (size before relaxing)
 .literal       0x50000b00       0x44 D:/PYRAMID_SW/dsp_trunk/tags/Sphinx_0p2/testing_app/system_integration/bin/Py_210123_eval/Release/src/dsp_sml1_pcm_poller_user_ta.o
                                        0x424 (size before relaxing)
 .literal       0x50000b44        0x8 C:/usr/xtensa/XtDevTools/install/builds/RI-2021.6-win32/Py_210123_eval/xtensa-elf/arch/lib/\libhandlers-board.a(xtos-interrupt-enable.o)
 .literal       0x50000b4c        0x0 C:/usr/xtensa/XtDevTools/install/builds/RI-2021.6-win32/Py_210123_eval/xtensa-elf/arch/lib/\libhandlers-board.a(xtos-interrupt-disable.o)
                                          0x8 (size before relaxing)
 .literal       0x50000b4c        0xc C:/usr/xtensa/XtDevTools/install/builds/RI-2021.6-win32/Py_210123_eval/xtensa-elf/arch/lib/\libhandlers-board.a(xtos-set-inthandler.o)
 .literal       0x50000b58       0x14 C:/usr/xtensa/XtDevTools/install/builds/RI-2021.6-win32/Py_210123_eval/xtensa-elf/arch/lib/\libhandlers-board.a(xtos-set-exchandler.o)
 .literal       0x50000b6c        0xc C:/usr/xtensa/XtDevTools/install/builds/RI-2021.6-win32/Py_210123_eval/xtensa-elf/arch/lib/\libhandlers-board.a(exc-syscall-handler.o)
 .literal       0x50000b78        0x8 C:/usr/xtensa/XtDevTools/install/builds/RI-2021.6-win32/Py_210123_eval/xtensa-elf/arch/lib/\libhandlers-board.a(exc-c-wrapper-handler.o)
                                         0x14 (size before relaxing)
 .literal       0x50000b80        0x0 C:/usr/xtensa/XtDevTools/install/builds/RI-2021.6-win32/Py_210123_eval/xtensa-elf/arch/lib/\libhandlers-board.a(int-lowpri-dispatcher.o)
                                         0x2c (size before relaxing)
 .literal       0x50000b80        0x8 C:/usr/xtensa/XtDevTools/install/builds/RI-2021.6-win32/Py_210123_eval/xtensa-elf/arch/lib/\libhandlers-board.a(int-handler-level2.o)
                                         0x1c (size before relaxing)
 .literal       0x50000b88        0x8 C:/usr/xtensa/XtDevTools/install/builds/RI-2021.6-win32/Py_210123_eval/xtensa-elf/arch/lib/\libhandlers-board.a(int-handler-level3.o)
                                         0x1c (size before relaxing)
 .text          0x50000b90       0x2f C:/usr/xtensa/XtDevTools/install/builds/RI-2021.6-win32/Py_210123_eval/xtensa-elf/arch/lib/crt1-tiny.o
                                         0x32 (size before relaxing)
                0x50000b90                _start
 *fill*         0x50000bbf        0x1 
 .text          0x50000bc0       0x4d D:/PYRAMID_SW/dsp_trunk/tags/Sphinx_0p2/testing_app/system_integration/bin/Py_210123_eval/Release/dsp_verification.o
                0x50000bc0                delay
                0x50000c08                verify_dsp_to_m0_data
 *fill*         0x50000c0d        0x3 
 .text          0x50000c10       0x34 D:/PYRAMID_SW/dsp_trunk/tags/Sphinx_0p2/testing_app/system_integration/bin/Py_210123_eval/Release/main.o
                0x50000c10                main
 *fill*         0x50000c44        0x4 
 .text          0x50000c48       0xec D:/PYRAMID_SW/dsp_trunk/tags/Sphinx_0p2/testing_app/system_integration/bin/Py_210123_eval/Release/src/dsp_bootloader.o
                0x50000c48                dsp_system_init
                0x50000c80                dsp_bootloader_init
 *fill*         0x50000d34        0x4 
 .text          0x50000d38     0x12d4 D:/PYRAMID_SW/dsp_trunk/tags/Sphinx_0p2/testing_app/system_integration/bin/Py_210123_eval/Release/src/dsp_cli_nfca_rx.o
                0x50000d38                cli_nfca_rx_reset_due_emd
                0x50000d68                cli_nfca_rx_process_byte
                0x50000de0                cli_nfca_rx_process_n_bytes
                0x50000ee8                dsp_cli_nfca_rw_rx_encrptd_data
                0x500010c4                dsp_cli_nfca_rw_rx_buf_intrf
                0x50001360                dsp_cli_nfca_ce_rx_encrptd_data
                0x500015dc                dsp_cli_nfca_ce_rx_buf_intrf
                0x50001968                dsp_cli_nfca_rx_config
                0x50001a44                dsp_cli_nfca_rw_rx_process
                0x50001df8                dsp_cli_nfca_ce_rx_process
 *fill*         0x5000200c        0x4 
 .text          0x50002010     0x1232 D:/PYRAMID_SW/dsp_trunk/tags/Sphinx_0p2/testing_app/system_integration/bin/Py_210123_eval/Release/src/dsp_cli_nfca_tx.o
                0x50002010                cli_nfca_tx_send_dummy_high
                0x50002054                dsp_cli_nfca_tx_config
                0x50002150                cli_nfca_tx_process_byte
                0x500021dc                cli_nfca_tx_process_n_bytes
                0x500023b4                cli_nfca_tx_send_bit
                0x50002434                cli_nfca_tx_ce_send_bit
                0x500024b4                cli_nfca_tx_send_byte
                0x50002548                cli_nfca_tx_send_n_bytes
                0x5000269c                cli_nfca_tx_rrdd_shortframe
                0x500026e8                cli_nfca_tx_interframe
                0x50002790                dsp_cli_nfca_rw_tx_process
                0x50002cb4                dsp_cli_nfca_ce_tx_calc_fdt_lstn
                0x50002d94                dsp_cli_nfca_ce_tx_process
 *fill*         0x50003242        0x6 
 .text          0x50003248      0x6c5 D:/PYRAMID_SW/dsp_trunk/tags/Sphinx_0p2/testing_app/system_integration/bin/Py_210123_eval/Release/src/dsp_cli_nfcb_rx.o
                0x50003248                cli_nfcb_rx_reset_due_emd
                0x50003270                cli_nfcb_rx_end_due_error
                0x50003298                cli_nfcb_rx_calc_crc_n_bytes
                0x500032c0                cli_nfcb_rx_store_data
                0x500033c8                dsp_cli_nfcb_rx_config
                0x50003438                dsp_cli_nfcb_rx_get_data
                0x50003750                dsp_cli_nfcb_rx_process_data
 *fill*         0x5000390d        0x3 
 .text          0x50003910      0x5d8 D:/PYRAMID_SW/dsp_trunk/tags/Sphinx_0p2/testing_app/system_integration/bin/Py_210123_eval/Release/src/dsp_cli_nfcb_tx.o
                0x50003910                cli_nfcb_tx_send_bit
                0x50003958                cli_nfcb_tx_send_dummy_high
                0x5000399c                cli_nfcb_tx_send_sync_pattern
                0x50003b34                cli_nfcb_tx_send_n_bytes
                0x50003bc4                cli_nfcb_tx_calc_crc_n_bytes
                0x50003be8                dsp_cli_nfcb_tx_config
                0x50003c30                dsp_cli_nfcb_tx_process
 .text          0x50003ee8      0xbfe D:/PYRAMID_SW/dsp_trunk/tags/Sphinx_0p2/testing_app/system_integration/bin/Py_210123_eval/Release/src/dsp_cli_nfcf_rx.o
                0x50003ee8                update_periodic_slot_timeout
                0x50003fa8                sos_check
                0x500040bc                sof_check
                0x50004280                get_frm_len
                0x50004464                get_data_frm
                0x500045e8                finish_cli_rx_get_data
                0x50004668                dsp_cli_nfcf_rx_config
                0x50004738                dsp_cli_nfcf_ce_rx_buf_get_data
                0x500047dc                dsp_cli_nfcf_rw_rx_buf_get_data
                0x500048d4                dsp_cli_nfcf_process_frame
 *fill*         0x50004ae6        0x2 
 .text          0x50004ae8      0x7d6 D:/PYRAMID_SW/dsp_trunk/tags/Sphinx_0p2/testing_app/system_integration/bin/Py_210123_eval/Release/src/dsp_cli_nfcf_tx.o
                0x50004ae8                dsp_cli_nfcf_tx_crc_byte_calc
                0x50004b34                dsp_cli_nfcf_tx_send_high
                0x50004b50                dsp_cli_nfcf_tx_send_bit
                0x50004bac                dsp_cli_nfcf_tx_send_byte
                0x50004be0                dsp_cli_nfcf_tx_send_n_bytes
                0x50004c14                dsp_cli_nfcf_tx_config
                0x50004d0c                dsp_cli_nfcf_tx_send_last_byte
                0x50004d54                dsp_cli_nfcf_ce_tx_calc_fdt_lstn
                0x50004d9c                dsp_cli_nfcf_tx_process
 *fill*         0x500052be        0x2 
 .text          0x500052c0      0x47b D:/PYRAMID_SW/dsp_trunk/tags/Sphinx_0p2/testing_app/system_integration/bin/Py_210123_eval/Release/src/dsp_cli_nfcv_rx.o
                0x500052c0                cli_nfcv_rx_end_due_error
                0x500052e8                cli_nfcv_rx_calc_crc_n_bytes
                0x50005310                cli_nfcv_rx_store_data
                0x5000536c                dsp_cli_nfcv_rx_config
                0x500053b8                dsp_cli_nfcv_rx_get_data
                0x500055d4                dsp_cli_nfcv_rx_process_data
 *fill*         0x5000573b        0x5 
 .text          0x50005740      0x484 D:/PYRAMID_SW/dsp_trunk/tags/Sphinx_0p2/testing_app/system_integration/bin/Py_210123_eval/Release/src/dsp_cli_nfcv_tx.o
                0x50005740                cli_nfcv_tx_send_dummy_high
                0x50005770                cli_nfcv_tx_send_sof
                0x500057b8                cli_nfcv_tx_send_eof
                0x5000582c                cli_nfcv_tx_calc_crc_byte
                0x50005848                cli_nfcv_tx_send_byte_1_out_of_4
                0x500058a8                cli_nfcv_tx_send_byte_1_out_of_256
                0x500058ec                dsp_cli_nfcv_tx_config
                0x50005944                dsp_cli_nfcv_tx_process
 *fill*         0x50005bc4        0x4 
 .text          0x50005bc8      0x5f6 D:/PYRAMID_SW/dsp_trunk/tags/Sphinx_0p2/testing_app/system_integration/bin/Py_210123_eval/Release/src/dsp_cli_rx.o
                0x50005bc8                dsp_cli_rx_process
                0x50005cbc                dsp_cli_rx_config
                0x50005d98                dsp_cli_form_pckt_to_swp
                0x50006018                dsp_cli_form_m0_yula_pckt
                0x500060d8                dsp_cli_rx_end_oprtn
                0x500061b0                dsp_cli_rx_done
 *fill*         0x500061be        0x2 
 .text          0x500061c0      0x77e D:/PYRAMID_SW/dsp_trunk/tags/Sphinx_0p2/testing_app/system_integration/bin/Py_210123_eval/Release/src/dsp_cli_tx.o
                0x500061c0                dsp_cli_tx_config
                0x50006508                dsp_cli_tx_process
                0x500065b4                dsp_cli_send_spi_pkt_to_dsp
                0x5000661c                dsp_cli_tx_end
                0x50006670                dsp_cli_tx_done
                0x50006680                trigger_after_tx_timer_alarms
 *fill*         0x5000693e        0x2 
 .text          0x50006940       0x55 D:/PYRAMID_SW/dsp_trunk/tags/Sphinx_0p2/testing_app/system_integration/bin/Py_210123_eval/Release/src/dsp_cli_utils.o
                0x50006940                dsp_cli_init
                0x5000696c                cli_calc_odd_parity
 *fill*         0x50006995        0x3 
 .text          0x50006998       0xa0 D:/PYRAMID_SW/dsp_trunk/tags/Sphinx_0p2/testing_app/system_integration/bin/Py_210123_eval/Release/src/dsp_evnt_mngr.o
                0x50006998                dsp_evnt_mngr_init
                0x500069ec                dsp_evnt_mngr_register_event_cllbck
                0x50006a04                dsp_evnt_mngr_post_event
                0x50006a18                dsp_evnt_mngr_handle_events
 .text          0x50006a38      0x1f5 D:/PYRAMID_SW/dsp_trunk/tags/Sphinx_0p2/testing_app/system_integration/bin/Py_210123_eval/Release/src/dsp_hal.o
                0x50006a38                fifo_buff_fill
                0x50006a98                dsp_hal_clitop_log_spare
                0x50006aec                dsp_hal_dsptop_ce_a_switch_mode
                0x50006af4                dsp_hal_dsptop_ce_b_switch_mode
                0x50006afc                dsp_hal_dsptop_ce_f_switch_mode
                0x50006b04                dsp_hal_memcpy
                0x50006b70                set_cea_rtl_state
 *fill*         0x50006c2d        0x3 
 .text          0x50006c30       0x29 D:/PYRAMID_SW/dsp_trunk/tags/Sphinx_0p2/testing_app/system_integration/bin/Py_210123_eval/Release/src/dsp_hal_activetop.o
                0x50006c30                dsp_hal_activetop_set_clk_div
                0x50006c48                dsp_hal_activetop_get_clk_div
 *fill*         0x50006c59        0x7 
 .text          0x50006c60      0xa9f D:/PYRAMID_SW/dsp_trunk/tags/Sphinx_0p2/testing_app/system_integration/bin/Py_210123_eval/Release/src/dsp_hal_cli_top.o
                0x50006c60                dsp_hal_pass_common_structure
                0x50006c80                hal_cli_ser_tx_end
                0x50006c90                hal_cli_modm_rxend
                0x50006cb4                hal_cli_aftr_tx_ce_alarms
                0x50006cd0                hal_cli_aftr_tx_rw_alarms
                0x50006d08                hal_cli_aftr_tx_techF_rw_fst_alarms
                0x50006d28                hal_cli_aftr_tx_techF_rw_slotted_alarms
                0x50006d50                hal_cli_aftr_tx_techF_rw_scnd_alarms
                0x50006d78                hal_cli_modm_rxend_ce_alarms
                0x50006d8c                hal_cancel_fdt_alarms
                0x50006db8                hal_cli_rx_timeout_alarm
                0x50006dc0                mdm_flag_evnt_sel
                0x50006ed4                dsp_hal_out_fifo_enable
                0x50006f18                dsp_hal_tx_ser_enable
                0x500071a4                dsp_hal_tx_ser_start
                0x500071c4                dsp_hal_cli_top_int_en
                0x500071dc                dsp_hal_cli_top_int_dis
                0x5000720c                dsp_hal_cli_top_int_clear
                0x50007238                dsp_hal_cli_top_int1_clear
                0x50007264                dsp_hal_cli_top_tx_end_oprtn
                0x500072c4                dsp_hal_in_fifo_enable
                0x500072f8                dsp_hal_in_fifo_rst
                0x50007324                dsp_hal_cli_top_int_stat
                0x50007334                dsp_hal_cli_top_init
                0x50007344                dsp_hal_trigger_m0_int
                0x5000736c                dsp_hal_tech_f_mapping
                0x5000738c                hal_cli_top_configure_mdm_events
                0x50007590                dsp_hal_register_rxend_time
                0x500075a0                dsp_hal_modify_poll2poll_flg
                0x500075b0                dsp_hal_read_poll2poll_flg
                0x500075bc                dsp_hal_modify_lstn2poll_flg
                0x500075cc                dsp_hal_read_lstn2poll_flg
                0x500075d8                dsp_hal_check_lstn2poll_poll2poll
 *fill*         0x500076ff        0x1 
 .text          0x50007700       0x37 D:/PYRAMID_SW/dsp_trunk/tags/Sphinx_0p2/testing_app/system_integration/bin/Py_210123_eval/Release/src/dsp_hal_dsp_top.o
                0x50007700                dsp_hal_cli_int_en
                0x50007708                dsp_hal_timer_enable
 *fill*         0x50007737        0x1 
 .text          0x50007738       0x60 D:/PYRAMID_SW/dsp_trunk/tags/Sphinx_0p2/testing_app/system_integration/bin/Py_210123_eval/Release/src/dsp_hal_fifo.o
                0x50007738                fifo_32bit_pop
                0x50007750                fifo_32bit_push
                0x50007764                fifo_4bit_pop
                0x5000777c                fifo_4bit_reset
 .text          0x50007798      0x221 D:/PYRAMID_SW/dsp_trunk/tags/Sphinx_0p2/testing_app/system_integration/bin/Py_210123_eval/Release/src/dsp_hal_hmb.o
                0x50007798                dsp_hmb_enable
                0x5000789c                dsp_hmb_set_flag
                0x500078b4                dsp_hmb_dsp_intr_hndlr
                0x50007988                dsp_hmb_poll_m0_flag
 *fill*         0x500079b9        0x7 
 .text          0x500079c0      0x232 D:/PYRAMID_SW/dsp_trunk/tags/Sphinx_0p2/testing_app/system_integration/bin/Py_210123_eval/Release/src/dsp_hal_mdm_top.o
                0x500079c0                modem_configs_en
                0x50007bb4                modem_dis
 *fill*         0x50007bf2        0x6 
 .text          0x50007bf8       0xce D:/PYRAMID_SW/dsp_trunk/tags/Sphinx_0p2/testing_app/system_integration/bin/Py_210123_eval/Release/src/dsp_hal_sml1_top.o
                0x50007bf8                sml1_hal_block_access
 *fill*         0x50007cc6        0x2 
 .text          0x50007cc8      0x4c1 D:/PYRAMID_SW/dsp_trunk/tags/Sphinx_0p2/testing_app/system_integration/bin/Py_210123_eval/Release/src/dsp_hal_sml3.o
                0x50007cc8                dsp_hal_sml3_startup
                0x50007d88                dsp_hal_sml3_wakeup
                0x50008014                dsp_hal_shared_mem_mode_set
                0x50008058                dsp_hal_calc_rom_checksum
                0x50008160                dsp_hal_get_dsp_version
 *fill*         0x50008189        0x7 
 .text          0x50008190      0x2d4 D:/PYRAMID_SW/dsp_trunk/tags/Sphinx_0p2/testing_app/system_integration/bin/Py_210123_eval/Release/src/dsp_hal_timer.o
                0x50008190                dsp_timer_intr_handler
                0x5000834c                timer_init
                0x5000837c                timer_alarm_init
                0x50008398                timer_alarm_clear
                0x500083b4                timer_alarm_cancel
                0x500083d8                timer_set_alarm
                0x500083f8                timer_alarm_is_pending
                0x50008418                timer_get
                0x50008428                timer_set_clk_multiplicand
 *fill*         0x50008464        0x4 
 .text          0x50008468      0x4cb D:/PYRAMID_SW/dsp_trunk/tags/Sphinx_0p2/testing_app/system_integration/bin/Py_210123_eval/Release/src/dsp_intr_hndlr.o
                0x50008468                dsp_exception_intr_handlr
                0x50008470                dsp_config_intr_handler
                0x5000850c                dsp_rx_fifo_intr_handler
                0x5000855c                modem_tmr_cbk
                0x5000860c                dsp_tx_fifo_wtrm_intr_handler
                0x50008638                dsp_cli_top_intr_handler
                0x500087b0                dsp_sml1_hw_intr_handler
                0x500087e4                dma_start_isr
 *fill*         0x50008933        0x5 
 .text          0x50008938      0x118 D:/PYRAMID_SW/dsp_trunk/tags/Sphinx_0p2/testing_app/system_integration/bin/Py_210123_eval/Release/src/dsp_logs.o
                0x50008938                dsp_log_init
                0x5000899c                dsp_log_write
 .text          0x50008a50       0x7b D:/PYRAMID_SW/dsp_trunk/tags/Sphinx_0p2/testing_app/system_integration/bin/Py_210123_eval/Release/src/dsp_m0_common.o
                0x50008a50                dsp_m0_common_init
 *fill*         0x50008acb        0x5 
 .text          0x50008ad0      0x70a D:/PYRAMID_SW/dsp_trunk/tags/Sphinx_0p2/testing_app/system_integration/bin/Py_210123_eval/Release/src/dsp_mngr.o
                0x50008ad0                timer_used_alarms_init
                0x50008b7c                exception_handler
                0x50008ba0                dsp_mngr_init
                0x50008d18                dsp_mngr_rx_config_hndlr
                0x50008f10                dsp_mngr_tx_config_hndlr
                0x50008fd8                dsp_mngr_next_cmd_hndlr
                0x5000903c                dsp_mngr_rx_done_hndlr
                0x500090e4                dsp_mngr_tx_done_hndlr
                0x50009190                dsp_mngr_exception_hndlr
                0x500091b4                dsp_assert_handler
 *fill*         0x500091da        0x6 
 .text          0x500091e0      0x439 D:/PYRAMID_SW/dsp_trunk/tags/Sphinx_0p2/testing_app/system_integration/bin/Py_210123_eval/Release/src/dsp_sml0_apc.o
                0x500091e0                dsp_sml0_apc_init
                0x500091ec                dsp_sml0_apc_call
 *fill*         0x50009619        0x7 
 .text          0x50009620       0x2f D:/PYRAMID_SW/dsp_trunk/tags/Sphinx_0p2/testing_app/system_integration/bin/Py_210123_eval/Release/src/dsp_sml0_lmac.o
                0x50009620                dsp_sml0_lmac_call
 *fill*         0x5000964f        0x1 
 .text          0x50009650       0xbd D:/PYRAMID_SW/dsp_trunk/tags/Sphinx_0p2/testing_app/system_integration/bin/Py_210123_eval/Release/src/dsp_sml1.o
                0x50009650                dsp_sml1_timeout_callback
                0x50009678                dsp_sml1_error_callback
                0x50009690                dsp_sml1_init
                0x500096b0                dsp_sml1_config
                0x500096d0                dsp_sml1_process
                0x500096e8                dsp_sml1_idle
                0x50009700                dsp_sml1_terminate
                0x50009708                dsp_sml1_exception
 *fill*         0x5000970d        0x3 
 .text          0x50009710      0xd84 D:/PYRAMID_SW/dsp_trunk/tags/Sphinx_0p2/testing_app/system_integration/bin/Py_210123_eval/Release/src/dsp_sml1_dyn_reg.o
                0x50009710                dyn_reg_lut_index_finder
                0x50009784                dsp_sml1_pcm_dyn_reg_index_config
                0x500097b8                dsp_sml1_pcm_dynamic_matrix_updates
                0x50009d4c                dsp_sml1_pcm_poller_dynamic_matrix
                0x50009d6c                dsp_sml1_pcm_listener_dynamic_matrix_updates
                0x5000a400                dsp_sml1_pcm_listener_dynamic_matrix
 *fill*         0x5000a494        0x4 
 .text          0x5000a498      0x5a5 D:/PYRAMID_SW/dsp_trunk/tags/Sphinx_0p2/testing_app/system_integration/bin/Py_210123_eval/Release/src/dsp_sml1_pcm.o
                0x5000a498                dsp_sml1_pcm_init
                0x5000a538                dsp_sml1_pcm_config
                0x5000a594                dsp_sml1_pcm_process
                0x5000a710                dsp_sml1_pcm_idle
                0x5000a774                dsp_sml1_pcm_startup_config
                0x5000a8e4                dsp_sml1_pcm_terminate
                0x5000aa30                dsp_sml1_pcm_error_monitor
                0x5000aa38                dsp_sml1_pcm_exception
 *fill*         0x5000aa3d        0x3 
 .text          0x5000aa40      0xd5f D:/PYRAMID_SW/dsp_trunk/tags/Sphinx_0p2/testing_app/system_integration/bin/Py_210123_eval/Release/src/dsp_sml1_pcm_listener.o
                0x5000aa40                pcm_listener_uta_timeout_config
                0x5000aa70                pcm_listener_field_on_demand
                0x5000abb8                pcm_listener_tech_change
                0x5000ac10                pcm_listener_fdt_poll_wait_m0
                0x5000ac84                pcm_listener_fdt_poll
                0x5000ad18                pcm_listener_post_fdt_listen
                0x5000ae20                pcm_listener_next_cmd_rsp
                0x5000ae94                dsp_sml1_pcm_listener_config
                0x5000b2bc                dsp_sml1_pcm_listener_pre_tx
                0x5000b448                dsp_sml1_pcm_listener_post_tx
                0x5000b490                dsp_sml1_pcm_listener_pre_rx
                0x5000b570                dsp_sml1_pcm_listener_post_rx
                0x5000b604                dsp_sml1_pcm_listener_fdt_lsn
                0x5000b664                dsp_sml1_pcm_listener_tx_rx_oprtn
                0x5000b71c                dsp_sml1_detect_rf_off
 *fill*         0x5000b79f        0x1 
 .text          0x5000b7a0      0xeed D:/PYRAMID_SW/dsp_trunk/tags/Sphinx_0p2/testing_app/system_integration/bin/Py_210123_eval/Release/src/dsp_sml1_pcm_listener_user_ta.o
                0x5000b7a0                clk_external_clk
                0x5000b7ec                frequency_adjust
                0x5000b834                phase_adjust
                0x5000b87c                tgt_ph
                0x5000b948                lmac_apply
                0x5000b994                dsp_sml1_pcm_listener_poller_command
                0x5000b9a8                dsp_sml1_pcm_listener_guard_time
                0x5000bf8c                dsp_sml1_pcm_listener_pre_fdt_listen
                0x5000c1c8                dsp_sml1_pcm_listener_post_fdt_listen
                0x5000c33c                dsp_sml1_pcm_listener_listener_response
                0x5000c3a0                dsp_sml1_pcm_listener_fdt_poll
 *fill*         0x5000c68d        0x3 
 .text          0x5000c690      0xe5b D:/PYRAMID_SW/dsp_trunk/tags/Sphinx_0p2/testing_app/system_integration/bin/Py_210123_eval/Release/src/dsp_sml1_pcm_poller.o
                0x5000c690                dsp_sml1_od_mode_callback
                0x5000c6a0                wait_programmable_time
                0x5000c6b4                pcm_poller_uta_timeout_config
                0x5000c6e4                pcm_poller_od_mode
                0x5000c800                pcm_poller_field_on_demand
                0x5000c960                pcm_poller_init_rf_avoid
                0x5000ca80                pcm_poller_tech_change
                0x5000cb84                pcm_poller_pre_fdt_poll
                0x5000cc0c                dsp_sml1_pcm_poller_fdt_poll
                0x5000ccd8                dsp_sml1_pcm_poller_ext_fdt_poll
                0x5000cdc8                pcm_poller_next_cmd_rsp
                0x5000ce44                dsp_sml1_pcm_poller_config
                0x5000d200                dsp_sml1_pcm_poller_pre_tx
                0x5000d314                dsp_sml1_pcm_poller_post_tx
                0x5000d370                dsp_sml1_pcm_poller_pre_rx
                0x5000d420                dsp_sml1_pcm_poller_post_rx
                0x5000d474                dsp_sml1_pcm_poller_tx_rx_oprtn
 *fill*         0x5000d4eb        0x5 
 .text          0x5000d4f0     0x1867 D:/PYRAMID_SW/dsp_trunk/tags/Sphinx_0p2/testing_app/system_integration/bin/Py_210123_eval/Release/src/dsp_sml1_pcm_poller_user_ta.o
                0x5000d4f0                dsp_sml1_user_ta_wait_callback
                0x5000d500                dsp_sml1_user_ta_counter_callback
                0x5000d510                user_ta_wait
                0x5000d560                user_ta_counter
                0x5000d590                sml1_hal_enable_rf_colavd
                0x5000d654                enable_dcdc
                0x5000d6a4                xosc_enable
                0x5000d6f4                clk_external_clk_1
                0x5000d744                clk_external_clk_2
                0x5000d794                txldo_en
                0x5000d7e4                sigma_delta_load
                0x5000d834                vco_calib_mod_1
                0x5000d88c                pll_adj_lk_bw
                0x5000d8dc                switch_clk
                0x5000d92c                disable_lp_osc
                0x5000d97c                rf_agc
                0x5000d9ec                dcoc
                0x5000da40                pa_soft_start
                0x5000da8c                apc_apply
                0x5000dadc                generate_apc_failed_error
                0x5000dae4                reset_bb_agc
                0x5000dbb0                vco_calibration_mod_3
                0x5000dc0c                pa_off
                0x5000dc5c                disable_dcdc
                0x5000dcac                disable_txldo
                0x5000dcfc                enable_lp_osc
                0x5000dd4c                disable_xosc
                0x5000dd9c                disable_external_clk_request
                0x5000ddec                dsp_sml1_pcm_poller_collision_avoidance
                0x5000e0bc                dsp_sml1_pcm_poller_pre_guard_time
                0x5000e2a0                dsp_sml1_pcm_poller_post_guard_time
                0x5000e424                dsp_sml1_pcm_poller_command
                0x5000e47c                dsp_sml1_pcm_poller_fdt_listen
                0x5000e74c                dsp_sml1_pcm_poller_pre_fdt_poll
                0x5000e988                dsp_sml1_pcm_poller_post_fdt_poll
                0x5000eb44                dsp_sml1_pcm_rf_off
 *fill*         0x5000ed57        0x1 
 .text          0x5000ed58       0x37 C:/usr/xtensa/XtDevTools/install/builds/RI-2021.6-win32/Py_210123_eval/xtensa-elf/arch/lib/\libhandlers-board.a(xtos-interrupt-enable.o)
                0x5000ed58                xtos_interrupt_enable
 *fill*         0x5000ed8f        0x1 
 .text          0x5000ed90       0x37 C:/usr/xtensa/XtDevTools/install/builds/RI-2021.6-win32/Py_210123_eval/xtensa-elf/arch/lib/\libhandlers-board.a(xtos-interrupt-disable.o)
                0x5000ed90                xtos_interrupt_disable
 *fill*         0x5000edc7        0x1 
 .text          0x5000edc8       0x4a C:/usr/xtensa/XtDevTools/install/builds/RI-2021.6-win32/Py_210123_eval/xtensa-elf/arch/lib/\libhandlers-board.a(xtos-set-inthandler.o)
                0x5000edc8                xtos_set_interrupt_handler
 *fill*         0x5000ee12        0x2 
 .text          0x5000ee14       0x43 C:/usr/xtensa/XtDevTools/install/builds/RI-2021.6-win32/Py_210123_eval/xtensa-elf/arch/lib/\libhandlers-board.a(xtos-set-exchandler.o)
                0x5000ee14                xtos_set_exception_handler
 *fill*         0x5000ee57        0x1 
 .text          0x5000ee58       0x81 C:/usr/xtensa/XtDevTools/install/builds/RI-2021.6-win32/Py_210123_eval/xtensa-elf/arch/lib/\libhandlers-board.a(exc-syscall-handler.o)
                0x5000ee58                _xtos_syscall_handler
                0x5000ee97                _SyscallException
 *fill*         0x5000eed9        0x3 
 .text          0x5000eedc       0x9d C:/usr/xtensa/XtDevTools/install/builds/RI-2021.6-win32/Py_210123_eval/xtensa-elf/arch/lib/\libhandlers-board.a(exc-c-wrapper-handler.o)
                0x5000eedc                xtos_cause3_handler
                0x5000eeec                xtos_c_wrapper_handler
                0x5000ef4c                _GeneralException
 *fill*         0x5000ef79        0x3 
 .text          0x5000ef7c       0xfc C:/usr/xtensa/XtDevTools/install/builds/RI-2021.6-win32/Py_210123_eval/xtensa-elf/arch/lib/\libhandlers-board.a(int-lowpri-dispatcher.o)
                0x5000ef7c                _xtos_l1int_handler
                0x5000ef9a                _LevelOneInterrupt
 .text          0x5000f078       0xb9 C:/usr/xtensa/XtDevTools/install/builds/RI-2021.6-win32/Py_210123_eval/xtensa-elf/arch/lib/\libhandlers-board.a(int-handler-level2.o)
                0x5000f078                _Level2FromVector
 *fill*         0x5000f131        0x3 
 .text          0x5000f134       0xb6 C:/usr/xtensa/XtDevTools/install/builds/RI-2021.6-win32/Py_210123_eval/xtensa-elf/arch/lib/\libhandlers-board.a(int-handler-level3.o)
                0x5000f134                _Level3FromVector
 *fill*         0x5000f1ea        0x0 
 *fill*         0x5000f1ea        0x0 
 *fill*         0x5000f1ea        0x0 
 *fill*         0x5000f1ea        0x0 
 *fill*         0x5000f1ea        0x0 
 *fill*         0x5000f1ea        0x0 
 *fill*         0x5000f1ea        0x0 
 *fill*         0x5000f1ea        0x0 
 *fill*         0x5000f1ea        0x0 
 *fill*         0x5000f1ea        0x0 
 *fill*         0x5000f1ea        0x0 
 *fill*         0x5000f1ea        0x0 
 *fill*         0x5000f1ea        0x0 
 *fill*         0x5000f1ea        0x0 
 *fill*         0x5000f1ea        0x0 
 *fill*         0x5000f1ea        0x0 
 .text          0x5000f1ea        0x0 D:/PYRAMID_SW/dsp_trunk/tags/Sphinx_0p2/testing_app/system_integration/bin/Py_210123_eval/Release/src/dsp_cli_wind_lut.o
 *fill*         0x5000f1ea        0x0 
 *fill*         0x5000f1ea        0x0 
 *fill*         0x5000f1ea        0x0 
 *fill*         0x5000f1ea        0x0 
 *fill*         0x5000f1ea        0x0 
 *fill*         0x5000f1ea        0x0 
 *fill*         0x5000f1ea        0x0 
 *fill*         0x5000f1ea        0x0 
 *fill*         0x5000f1ea        0x0 
 *fill*         0x5000f1ea        0x2 
 .literal       0x5000f1ec        0x0 D:/PYRAMID_SW/dsp_trunk/tags/Sphinx_0p2/testing_app/system_integration/bin/Py_210123_eval/Release/src/dsp_hal_intr.o
 *fill*         0x5000f1ec        0x4 
 .text          0x5000f1f0       0x5b D:/PYRAMID_SW/dsp_trunk/tags/Sphinx_0p2/testing_app/system_integration/bin/Py_210123_eval/Release/src/dsp_hal_intr.o
                0x5000f1f0                dsp_hal_intr_init
                0x5000f200                dsp_hal_register_interrupt_handler
                0x5000f214                dsp_hal_intrpt_enable
                0x5000f220                dsp_hal_intrpt_disable
                0x5000f22c                dsp_hal_intrpt_clear
                0x5000f238                dsp_hal_unregister_intrpt_handler
 *fill*         0x5000f24b        0x0 
 *fill*         0x5000f24b        0x0 
 *fill*         0x5000f24b        0x0 
 *fill*         0x5000f24b        0x0 
 *fill*         0x5000f24b        0x0 
 *fill*         0x5000f24b        0x0 
 *fill*         0x5000f24b        0x0 
 *fill*         0x5000f24b        0x0 
 *fill*         0x5000f24b        0x0 
 *fill*         0x5000f24b        0x0 
 *fill*         0x5000f24b        0x0 
 *fill*         0x5000f24b        0x0 
 *fill*         0x5000f24b        0x0 
 *fill*         0x5000f24b        0x0 
 *fill*         0x5000f24b        0x0 
 .text          0x5000f24b        0x0 D:/PYRAMID_SW/dsp_trunk/tags/Sphinx_0p2/testing_app/system_integration/bin/Py_210123_eval/Release/src/dsp_sml1_pcm_dyn_reg_lut.o
 *fill*         0x5000f24b        0x0 
 *fill*         0x5000f24b        0x0 
 *fill*         0x5000f24b        0x0 
 *fill*         0x5000f24b        0x0 
 *fill*         0x5000f24b        0x0 
 .text          0x5000f24b        0x0 D:/PYRAMID_SW/dsp_trunk/tags/Sphinx_0p2/testing_app/system_integration/bin/Py_210123_eval/Release/src/dsp_sml1_user_ta_lut.o
 .text          0x5000f24b        0x0 D:/PYRAMID_SW/dsp_trunk/tags/Sphinx_0p2/testing_app/system_integration/bin/Py_210123_eval/Release/test_10_loopbck_nfcv_rw.o
 .text          0x5000f24b        0x0 D:/PYRAMID_SW/dsp_trunk/tags/Sphinx_0p2/testing_app/system_integration/bin/Py_210123_eval/Release/test_1_loopbck_nfcf_rw_std.o
 .text          0x5000f24b        0x0 D:/PYRAMID_SW/dsp_trunk/tags/Sphinx_0p2/testing_app/system_integration/bin/Py_210123_eval/Release/test_2_loopbck_nfcf_ce.o
 .text          0x5000f24b        0x0 D:/PYRAMID_SW/dsp_trunk/tags/Sphinx_0p2/testing_app/system_integration/bin/Py_210123_eval/Release/test_3_loopbck_nfca_rw_std.o
 .text          0x5000f24b        0x0 D:/PYRAMID_SW/dsp_trunk/tags/Sphinx_0p2/testing_app/system_integration/bin/Py_210123_eval/Release/test_4_loopbck_nfca_ce.o
 .text          0x5000f24b        0x0 D:/PYRAMID_SW/dsp_trunk/tags/Sphinx_0p2/testing_app/system_integration/bin/Py_210123_eval/Release/test_5_loopbck_nfca_rw_sdd.o
 .text          0x5000f24b        0x0 D:/PYRAMID_SW/dsp_trunk/tags/Sphinx_0p2/testing_app/system_integration/bin/Py_210123_eval/Release/test_6_loopbck_nfca_ce_swp_intf.o
 .text          0x5000f24b        0x0 D:/PYRAMID_SW/dsp_trunk/tags/Sphinx_0p2/testing_app/system_integration/bin/Py_210123_eval/Release/test_7_loopbck_nfcb_rw.o
 .text          0x5000f24b        0x0 D:/PYRAMID_SW/dsp_trunk/tags/Sphinx_0p2/testing_app/system_integration/bin/Py_210123_eval/Release/test_8_loopbck_nfcb_ce.o
 .text          0x5000f24b        0x0 D:/PYRAMID_SW/dsp_trunk/tags/Sphinx_0p2/testing_app/system_integration/bin/Py_210123_eval/Release/test_9_loopbck_nfca_rw_t1t.o
 .text          0x5000f24b        0x0 D:/PYRAMID_SW/dsp_trunk/tags/Sphinx_0p2/testing_app/system_integration/bin/Py_210123_eval/Release/test_integration.o
 *fill*         0x5000f24b        0x1 
 .literal       0x5000f24c        0x0 C:/usr/xtensa/XtDevTools/install/builds/RI-2021.6-win32/Py_210123_eval/xtensa-elf/lib/xcc/\libgcc.a(_udivsi3.o)
 *fill*         0x5000f24c        0x4 
 .text          0x5000f250       0x4e C:/usr/xtensa/XtDevTools/install/builds/RI-2021.6-win32/Py_210123_eval/xtensa-elf/lib/xcc/\libgcc.a(_udivsi3.o)
                0x5000f250                __udivsi3
 .text          0x5000f29e        0x0 C:/usr/xtensa/XtDevTools/install/builds/RI-2021.6-win32/Py_210123_eval/xtensa-elf/arch/lib/\libhandler-reset-unpack.a(reset-vector-unpack.o)
 *fill*         0x5000f29e        0x0 
 *fill*         0x5000f29e        0x0 
 *fill*         0x5000f29e        0x2 
 .text          0x5000f2a0       0x1b C:/usr/xtensa/XtDevTools/install/builds/RI-2021.6-win32/Py_210123_eval/xtensa-elf/arch/lib/\libhandlers-board.a(xtos-interrupt-clear.o)
                0x5000f2a0                xtos_interrupt_clear
 *fill*         0x5000f2bb        0x0 
 *fill*         0x5000f2bb        0x0 
 *fill*         0x5000f2bb        0x0 
 *fill*         0x5000f2bb        0x1 
 .text          0x5000f2bc        0x5 C:/usr/xtensa/XtDevTools/install/builds/RI-2021.6-win32/Py_210123_eval/xtensa-elf/arch/lib/\libhandlers-board.a(exc-table.o)
                0x5000f2bc                xtos_p_none
 *fill*         0x5000f2c1        0x3 
 .text          0x5000f2c4        0x8 C:/usr/xtensa/XtDevTools/install/builds/RI-2021.6-win32/Py_210123_eval/xtensa-elf/arch/lib/\libhandlers-board.a(interrupt-table.o)
                0x5000f2c4                xtos_unhandled_interrupt
 .text          0x5000f2cc        0x0 C:/usr/xtensa/XtDevTools/install/builds/RI-2021.6-win32/Py_210123_eval/xtensa-elf/arch/lib/\libhandlers-board.a(user-vector.o)
 *fill*         0x5000f2cc        0x0 
 .text          0x5000f2cc       0x18 C:/usr/xtensa/XtDevTools/install/builds/RI-2021.6-win32/Py_210123_eval/xtensa-elf/arch/lib/\libhandlers-board.a(exc-return.o)
                0x5000f2cc                _xtos_return_from_exc
 .text          0x5000f2e4        0x0 C:/usr/xtensa/XtDevTools/install/builds/RI-2021.6-win32/Py_210123_eval/xtensa-elf/arch/lib/\libhandlers-board.a(window-vectors.o)
 .text          0x5000f2e4        0x5 C:/usr/xtensa/XtDevTools/install/builds/RI-2021.6-win32/Py_210123_eval/xtensa-elf/arch/lib/\libhandlers-board.a(int-init-level1.o)
                0x5000f2e4                xtos_dispatch_level1_interrupts
 *fill*         0x5000f2e9        0x3 
 .text          0x5000f2ec        0x5 C:/usr/xtensa/XtDevTools/install/builds/RI-2021.6-win32/Py_210123_eval/xtensa-elf/arch/lib/\libhandlers-board.a(int-init-level2.o)
                0x5000f2ec                xtos_dispatch_level2_interrupts
 *fill*         0x5000f2f1        0x3 
 .text          0x5000f2f4        0x5 C:/usr/xtensa/XtDevTools/install/builds/RI-2021.6-win32/Py_210123_eval/xtensa-elf/arch/lib/\libhandlers-board.a(int-init-level3.o)
                0x5000f2f4                xtos_dispatch_level3_interrupts
 *fill*         0x5000f2f9        0x3 
 .text          0x5000f2fc        0xd C:/usr/xtensa/XtDevTools/install/builds/RI-2021.6-win32/Py_210123_eval/xtensa-elf/arch/lib/\libhandlers-board.a(exc-unhandled.o)
                0x5000f2fc                xtos_unhandled_exception
 .text          0x5000f309        0x0 C:/usr/xtensa/XtDevTools/install/builds/RI-2021.6-win32/Py_210123_eval/xtensa-elf/arch/lib/\libhandlers-board.a(tiny-refs-S--level1int-.o)
 .text          0x5000f309        0x0 C:/usr/xtensa/XtDevTools/install/builds/RI-2021.6-win32/Py_210123_eval/xtensa-elf/arch/lib/\libhandlers-board.a(int-vector-level2.o)
 .text          0x5000f309        0x0 C:/usr/xtensa/XtDevTools/install/builds/RI-2021.6-win32/Py_210123_eval/xtensa-elf/arch/lib/\libhandlers-board.a(int-vector-level3.o)
 *fill*         0x5000f309        0x0 
 *fill*         0x5000f309        0x0 
 .text          0x5000f309        0x0 C:/usr/xtensa/XtDevTools/install/builds/RI-2021.6-win32/Py_210123_eval/xtensa-elf/arch/lib/\libhandlers-min.a(tiny-refs-min.o)
 .text          0x5000f309        0x0 C:/usr/xtensa/XtDevTools/install/builds/RI-2021.6-win32/Py_210123_eval/xtensa-elf/arch/lib/\libhandlers-null.a(_vectors.o)
 .text          0x5000f309        0x0 C:/usr/xtensa/XtDevTools/install/builds/RI-2021.6-win32/Py_210123_eval/xtensa-elf/arch/lib/\libhandlers-null.a(_sharedvectors.o)
 .text          0x5000f309        0x0 C:/usr/xtensa/XtDevTools/install/builds/RI-2021.6-win32/Py_210123_eval/xtensa-elf/arch/lib/\libhandlers-board.a(debug-vector.o)
 .text          0x5000f309        0x0 C:/usr/xtensa/XtDevTools/install/builds/RI-2021.6-win32/Py_210123_eval/xtensa-elf/arch/lib/\libhandlers-board.a(double-vector.o)
 .text          0x5000f309        0x0 C:/usr/xtensa/XtDevTools/install/builds/RI-2021.6-win32/Py_210123_eval/xtensa-elf/arch/lib/\libhandlers-board.a(kernel-vector.o)
 .text          0x5000f309        0x0 C:/usr/xtensa/XtDevTools/install/builds/RI-2021.6-win32/Py_210123_eval/xtensa-elf/arch/lib/\libhal.a(cache_asm--hw_configid0.o)
 .text          0x5000f309        0x0 C:/usr/xtensa/XtDevTools/install/builds/RI-2021.6-win32/Py_210123_eval/xtensa-elf/arch/lib/\libhal.a(cache_asm--hw_configid1.o)
 .text          0x5000f309        0x0 C:/usr/xtensa/XtDevTools/install/builds/RI-2021.6-win32/Py_210123_eval/xtensa-elf/arch/lib/\libhal.a(cache_asm--release_major.o)
 .text          0x5000f309        0x0 C:/usr/xtensa/XtDevTools/install/builds/RI-2021.6-win32/Py_210123_eval/xtensa-elf/arch/lib/\libhal.a(cache_asm--release_minor.o)
 .text          0x5000f309        0x0 C:/usr/xtensa/XtDevTools/install/builds/RI-2021.6-win32/Py_210123_eval/xtensa-elf/arch/lib/\libhal.a(const--intlevel.o)
 *(.fini.literal)
 *(.fini)
 *(.gnu.version)
                0x5000f30c                . = ALIGN (0x4)
 *fill*         0x5000f309        0x3 
                0x5000f30c                _text_end = ABSOLUTE (.)
                0x5000f30c                _etext = .

.ResetVector.literal
                0x5000f30c        0x0
 .ResetVector.literal
                0x5000f30c        0x0 C:/usr/xtensa/XtDevTools/install/builds/RI-2021.6-win32/Py_210123_eval/xtensa-elf/arch/lib/\libhandler-reset-unpack.a(reset-vector-unpack.o)

.srom.text      0x5000f30c        0x0
                0x5000f30c                _srom_text_start = ABSOLUTE (.)
 *(.srom.literal .srom.text)
                0x5000f30c                . = ALIGN (0x4)
                0x5000f30c                _srom_text_end = ABSOLUTE (.)

.sram.text      0x5000f30c        0x0
                0x5000f30c                _sram_text_start = ABSOLUTE (.)
 *(.sram.literal .sram.text)
                0x5000f30c                . = ALIGN (0x4)
                0x5000f30c                _sram_text_end = ABSOLUTE (.)

.rtos.text      0x5000f30c        0x0
                0x5000f30c                _rtos_text_start = ABSOLUTE (.)
 *(.rtos.literal .rtos.text)
                0x5000f30c                . = ALIGN (0x4)
                0x5000f30c                _rtos_text_end = ABSOLUTE (.)

.irom0.text     0x5000f30c        0x0
                0x5000f30c                _irom0_text_start = ABSOLUTE (.)
 *(.irom0.literal .irom.literal .irom.text.literal .irom0.text .irom.text)
                0x5000f30c                . = ALIGN (0x4)
                0x5000f30c                _irom0_text_end = ABSOLUTE (.)

.iram0.text     0x5000f30c        0x0
                0x5000f30c                _iram0_text_start = ABSOLUTE (.)
 *(.iram0.literal .iram.literal .iram.text.literal .iram0.text .iram.text)
                0x5000f30c                . = ALIGN (0x4)
                0x5000f30c                _iram0_text_end = ABSOLUTE (.)

.clib.text      0x5000f30c        0x0
                0x5000f30c                _clib_text_start = ABSOLUTE (.)
 *(.clib.literal .clib.text)
                0x5000f30c                . = ALIGN (0x4)
                0x5000f30c                _clib_text_end = ABSOLUTE (.)
                0x5000f30c                _memmap_mem_irom0_max = ABSOLUTE (.)

.dram1_0.data   0x500c0000        0x0
                0x500c0000                _dram1_0_data_start = ABSOLUTE (.)
 *(.dram1_0.data)
                0x500c0000                . = ALIGN (0x4)
                0x500c0000                _dram1_0_data_end = ABSOLUTE (.)
                0x500c0000                _memmap_seg_dram1_0_end = ALIGN (0x8)

.dram1_1.data   0x500c4000        0x0
                0x500c4000                _dram1_1_data_start = ABSOLUTE (.)
 *(.dram1_1.data)
                0x500c4000                . = ALIGN (0x4)
                0x500c4000                _dram1_1_data_end = ABSOLUTE (.)
                0x500c4000                _memmap_seg_dram1_1_end = ALIGN (0x8)

.dram1_2.data   0x500c6000        0x0
                0x500c6000                _dram1_2_data_start = ABSOLUTE (.)
 *(.dram1_2.data)
                0x500c6000                . = ALIGN (0x4)
                0x500c6000                _dram1_2_data_end = ABSOLUTE (.)
                0x500c6000                _memmap_seg_dram1_2_end = ALIGN (0x8)
                0x500c6000                _memmap_mem_dram1_max = ABSOLUTE (.)
                0x500c6000                _memmap_mem_srom_max = ABSOLUTE (.)
                0x500c6000                _memmap_mem_sram_max = ABSOLUTE (.)

.debug
 *(.debug)

.line
 *(.line)

.debug_srcinfo
 *(.debug_srcinfo)

.debug_sfnames
 *(.debug_sfnames)

.debug_aranges  0x00000000      0x7a0
 *(.debug_aranges)
 .debug_aranges
                0x00000000       0x20 C:/usr/xtensa/XtDevTools/install/builds/RI-2021.6-win32/Py_210123_eval/xtensa-elf/arch/lib/crt1-tiny.o
 .debug_aranges
                0x00000020       0x20 D:/PYRAMID_SW/dsp_trunk/tags/Sphinx_0p2/testing_app/system_integration/bin/Py_210123_eval/Release/dsp_verification.o
 .debug_aranges
                0x00000040       0x20 D:/PYRAMID_SW/dsp_trunk/tags/Sphinx_0p2/testing_app/system_integration/bin/Py_210123_eval/Release/main.o
 .debug_aranges
                0x00000060       0x20 D:/PYRAMID_SW/dsp_trunk/tags/Sphinx_0p2/testing_app/system_integration/bin/Py_210123_eval/Release/src/dsp_bootloader.o
 .debug_aranges
                0x00000080       0x20 D:/PYRAMID_SW/dsp_trunk/tags/Sphinx_0p2/testing_app/system_integration/bin/Py_210123_eval/Release/src/dsp_cli_nfca_rx.o
 .debug_aranges
                0x000000a0       0x20 D:/PYRAMID_SW/dsp_trunk/tags/Sphinx_0p2/testing_app/system_integration/bin/Py_210123_eval/Release/src/dsp_cli_nfca_tx.o
 .debug_aranges
                0x000000c0       0x20 D:/PYRAMID_SW/dsp_trunk/tags/Sphinx_0p2/testing_app/system_integration/bin/Py_210123_eval/Release/src/dsp_cli_nfcb_rx.o
 .debug_aranges
                0x000000e0       0x20 D:/PYRAMID_SW/dsp_trunk/tags/Sphinx_0p2/testing_app/system_integration/bin/Py_210123_eval/Release/src/dsp_cli_nfcb_tx.o
 .debug_aranges
                0x00000100       0x20 D:/PYRAMID_SW/dsp_trunk/tags/Sphinx_0p2/testing_app/system_integration/bin/Py_210123_eval/Release/src/dsp_cli_nfcf_rx.o
 .debug_aranges
                0x00000120       0x20 D:/PYRAMID_SW/dsp_trunk/tags/Sphinx_0p2/testing_app/system_integration/bin/Py_210123_eval/Release/src/dsp_cli_nfcf_tx.o
 .debug_aranges
                0x00000140       0x20 D:/PYRAMID_SW/dsp_trunk/tags/Sphinx_0p2/testing_app/system_integration/bin/Py_210123_eval/Release/src/dsp_cli_nfcv_rx.o
 .debug_aranges
                0x00000160       0x20 D:/PYRAMID_SW/dsp_trunk/tags/Sphinx_0p2/testing_app/system_integration/bin/Py_210123_eval/Release/src/dsp_cli_nfcv_tx.o
 .debug_aranges
                0x00000180       0x20 D:/PYRAMID_SW/dsp_trunk/tags/Sphinx_0p2/testing_app/system_integration/bin/Py_210123_eval/Release/src/dsp_cli_rx.o
 .debug_aranges
                0x000001a0       0x20 D:/PYRAMID_SW/dsp_trunk/tags/Sphinx_0p2/testing_app/system_integration/bin/Py_210123_eval/Release/src/dsp_cli_tx.o
 .debug_aranges
                0x000001c0       0x20 D:/PYRAMID_SW/dsp_trunk/tags/Sphinx_0p2/testing_app/system_integration/bin/Py_210123_eval/Release/src/dsp_cli_utils.o
 .debug_aranges
                0x000001e0       0x20 D:/PYRAMID_SW/dsp_trunk/tags/Sphinx_0p2/testing_app/system_integration/bin/Py_210123_eval/Release/src/dsp_evnt_mngr.o
 .debug_aranges
                0x00000200       0x20 D:/PYRAMID_SW/dsp_trunk/tags/Sphinx_0p2/testing_app/system_integration/bin/Py_210123_eval/Release/src/dsp_hal.o
 .debug_aranges
                0x00000220       0x20 D:/PYRAMID_SW/dsp_trunk/tags/Sphinx_0p2/testing_app/system_integration/bin/Py_210123_eval/Release/src/dsp_hal_activetop.o
 .debug_aranges
                0x00000240       0x20 D:/PYRAMID_SW/dsp_trunk/tags/Sphinx_0p2/testing_app/system_integration/bin/Py_210123_eval/Release/src/dsp_hal_cli_top.o
 .debug_aranges
                0x00000260       0x20 D:/PYRAMID_SW/dsp_trunk/tags/Sphinx_0p2/testing_app/system_integration/bin/Py_210123_eval/Release/src/dsp_hal_dsp_top.o
 .debug_aranges
                0x00000280       0x20 D:/PYRAMID_SW/dsp_trunk/tags/Sphinx_0p2/testing_app/system_integration/bin/Py_210123_eval/Release/src/dsp_hal_fifo.o
 .debug_aranges
                0x000002a0       0x20 D:/PYRAMID_SW/dsp_trunk/tags/Sphinx_0p2/testing_app/system_integration/bin/Py_210123_eval/Release/src/dsp_hal_hmb.o
 .debug_aranges
                0x000002c0       0x20 D:/PYRAMID_SW/dsp_trunk/tags/Sphinx_0p2/testing_app/system_integration/bin/Py_210123_eval/Release/src/dsp_hal_intr.o
 .debug_aranges
                0x000002e0       0x20 D:/PYRAMID_SW/dsp_trunk/tags/Sphinx_0p2/testing_app/system_integration/bin/Py_210123_eval/Release/src/dsp_hal_mdm_top.o
 .debug_aranges
                0x00000300       0x20 D:/PYRAMID_SW/dsp_trunk/tags/Sphinx_0p2/testing_app/system_integration/bin/Py_210123_eval/Release/src/dsp_hal_sml1_top.o
 .debug_aranges
                0x00000320       0x20 D:/PYRAMID_SW/dsp_trunk/tags/Sphinx_0p2/testing_app/system_integration/bin/Py_210123_eval/Release/src/dsp_hal_sml3.o
 .debug_aranges
                0x00000340       0x20 D:/PYRAMID_SW/dsp_trunk/tags/Sphinx_0p2/testing_app/system_integration/bin/Py_210123_eval/Release/src/dsp_hal_timer.o
 .debug_aranges
                0x00000360       0x20 D:/PYRAMID_SW/dsp_trunk/tags/Sphinx_0p2/testing_app/system_integration/bin/Py_210123_eval/Release/src/dsp_intr_hndlr.o
 .debug_aranges
                0x00000380       0x20 D:/PYRAMID_SW/dsp_trunk/tags/Sphinx_0p2/testing_app/system_integration/bin/Py_210123_eval/Release/src/dsp_logs.o
 .debug_aranges
                0x000003a0       0x20 D:/PYRAMID_SW/dsp_trunk/tags/Sphinx_0p2/testing_app/system_integration/bin/Py_210123_eval/Release/src/dsp_m0_common.o
 .debug_aranges
                0x000003c0       0x20 D:/PYRAMID_SW/dsp_trunk/tags/Sphinx_0p2/testing_app/system_integration/bin/Py_210123_eval/Release/src/dsp_mngr.o
 .debug_aranges
                0x000003e0       0x20 D:/PYRAMID_SW/dsp_trunk/tags/Sphinx_0p2/testing_app/system_integration/bin/Py_210123_eval/Release/src/dsp_sml0_apc.o
 .debug_aranges
                0x00000400       0x20 D:/PYRAMID_SW/dsp_trunk/tags/Sphinx_0p2/testing_app/system_integration/bin/Py_210123_eval/Release/src/dsp_sml0_lmac.o
 .debug_aranges
                0x00000420       0x20 D:/PYRAMID_SW/dsp_trunk/tags/Sphinx_0p2/testing_app/system_integration/bin/Py_210123_eval/Release/src/dsp_sml1.o
 .debug_aranges
                0x00000440       0x20 D:/PYRAMID_SW/dsp_trunk/tags/Sphinx_0p2/testing_app/system_integration/bin/Py_210123_eval/Release/src/dsp_sml1_dyn_reg.o
 .debug_aranges
                0x00000460       0x20 D:/PYRAMID_SW/dsp_trunk/tags/Sphinx_0p2/testing_app/system_integration/bin/Py_210123_eval/Release/src/dsp_sml1_pcm.o
 .debug_aranges
                0x00000480       0x20 D:/PYRAMID_SW/dsp_trunk/tags/Sphinx_0p2/testing_app/system_integration/bin/Py_210123_eval/Release/src/dsp_sml1_pcm_listener.o
 .debug_aranges
                0x000004a0       0x20 D:/PYRAMID_SW/dsp_trunk/tags/Sphinx_0p2/testing_app/system_integration/bin/Py_210123_eval/Release/src/dsp_sml1_pcm_listener_user_ta.o
 .debug_aranges
                0x000004c0       0x20 D:/PYRAMID_SW/dsp_trunk/tags/Sphinx_0p2/testing_app/system_integration/bin/Py_210123_eval/Release/src/dsp_sml1_pcm_poller.o
 .debug_aranges
                0x000004e0       0x20 D:/PYRAMID_SW/dsp_trunk/tags/Sphinx_0p2/testing_app/system_integration/bin/Py_210123_eval/Release/src/dsp_sml1_pcm_poller_user_ta.o
 .debug_aranges
                0x00000500       0x20 C:/usr/xtensa/XtDevTools/install/builds/RI-2021.6-win32/Py_210123_eval/xtensa-elf/lib/xcc/\libgcc.a(_udivsi3.o)
 .debug_aranges
                0x00000520       0x20 C:/usr/xtensa/XtDevTools/install/builds/RI-2021.6-win32/Py_210123_eval/xtensa-elf/arch/lib/\libhandler-reset-unpack.a(reset-vector-unpack.o)
 .debug_aranges
                0x00000540       0x20 C:/usr/xtensa/XtDevTools/install/builds/RI-2021.6-win32/Py_210123_eval/xtensa-elf/arch/lib/\libhandlers-board.a(exc-syscall-handler.o)
 .debug_aranges
                0x00000560       0x20 C:/usr/xtensa/XtDevTools/install/builds/RI-2021.6-win32/Py_210123_eval/xtensa-elf/arch/lib/\libhandlers-board.a(exc-table.o)
 .debug_aranges
                0x00000580       0x20 C:/usr/xtensa/XtDevTools/install/builds/RI-2021.6-win32/Py_210123_eval/xtensa-elf/arch/lib/\libhandlers-board.a(interrupt-table.o)
 .debug_aranges
                0x000005a0       0x20 C:/usr/xtensa/XtDevTools/install/builds/RI-2021.6-win32/Py_210123_eval/xtensa-elf/arch/lib/\libhandlers-board.a(user-vector.o)
 .debug_aranges
                0x000005c0       0x20 C:/usr/xtensa/XtDevTools/install/builds/RI-2021.6-win32/Py_210123_eval/xtensa-elf/arch/lib/\libhandlers-board.a(exc-c-wrapper-handler.o)
 .debug_aranges
                0x000005e0       0x20 C:/usr/xtensa/XtDevTools/install/builds/RI-2021.6-win32/Py_210123_eval/xtensa-elf/arch/lib/\libhandlers-board.a(exc-return.o)
 .debug_aranges
                0x00000600       0x20 C:/usr/xtensa/XtDevTools/install/builds/RI-2021.6-win32/Py_210123_eval/xtensa-elf/arch/lib/\libhandlers-board.a(int-lowpri-dispatcher.o)
 .debug_aranges
                0x00000620       0x20 C:/usr/xtensa/XtDevTools/install/builds/RI-2021.6-win32/Py_210123_eval/xtensa-elf/arch/lib/\libhandlers-board.a(window-vectors.o)
 .debug_aranges
                0x00000640       0x20 C:/usr/xtensa/XtDevTools/install/builds/RI-2021.6-win32/Py_210123_eval/xtensa-elf/arch/lib/\libhandlers-board.a(int-init-level1.o)
 .debug_aranges
                0x00000660       0x20 C:/usr/xtensa/XtDevTools/install/builds/RI-2021.6-win32/Py_210123_eval/xtensa-elf/arch/lib/\libhandlers-board.a(int-init-level2.o)
 .debug_aranges
                0x00000680       0x20 C:/usr/xtensa/XtDevTools/install/builds/RI-2021.6-win32/Py_210123_eval/xtensa-elf/arch/lib/\libhandlers-board.a(int-init-level3.o)
 .debug_aranges
                0x000006a0       0x20 C:/usr/xtensa/XtDevTools/install/builds/RI-2021.6-win32/Py_210123_eval/xtensa-elf/arch/lib/\libhandlers-board.a(exc-unhandled.o)
 .debug_aranges
                0x000006c0       0x20 C:/usr/xtensa/XtDevTools/install/builds/RI-2021.6-win32/Py_210123_eval/xtensa-elf/arch/lib/\libhandlers-board.a(int-vector-level2.o)
 .debug_aranges
                0x000006e0       0x20 C:/usr/xtensa/XtDevTools/install/builds/RI-2021.6-win32/Py_210123_eval/xtensa-elf/arch/lib/\libhandlers-board.a(int-vector-level3.o)
 .debug_aranges
                0x00000700       0x20 C:/usr/xtensa/XtDevTools/install/builds/RI-2021.6-win32/Py_210123_eval/xtensa-elf/arch/lib/\libhandlers-board.a(int-handler-level2.o)
 .debug_aranges
                0x00000720       0x20 C:/usr/xtensa/XtDevTools/install/builds/RI-2021.6-win32/Py_210123_eval/xtensa-elf/arch/lib/\libhandlers-board.a(int-handler-level3.o)
 .debug_aranges
                0x00000740       0x20 C:/usr/xtensa/XtDevTools/install/builds/RI-2021.6-win32/Py_210123_eval/xtensa-elf/arch/lib/\libhandlers-board.a(debug-vector.o)
 .debug_aranges
                0x00000760       0x20 C:/usr/xtensa/XtDevTools/install/builds/RI-2021.6-win32/Py_210123_eval/xtensa-elf/arch/lib/\libhandlers-board.a(double-vector.o)
 .debug_aranges
                0x00000780       0x20 C:/usr/xtensa/XtDevTools/install/builds/RI-2021.6-win32/Py_210123_eval/xtensa-elf/arch/lib/\libhandlers-board.a(kernel-vector.o)

.debug_pubnames
                0x00000000     0x545a
 *(.debug_pubnames)
 .debug_pubnames
                0x00000000       0x91 D:/PYRAMID_SW/dsp_trunk/tags/Sphinx_0p2/testing_app/system_integration/bin/Py_210123_eval/Release/dsp_verification.o
 .debug_pubnames
                0x00000091       0x68 D:/PYRAMID_SW/dsp_trunk/tags/Sphinx_0p2/testing_app/system_integration/bin/Py_210123_eval/Release/main.o
 .debug_pubnames
                0x000000f9      0x119 D:/PYRAMID_SW/dsp_trunk/tags/Sphinx_0p2/testing_app/system_integration/bin/Py_210123_eval/Release/src/dsp_bootloader.o
 .debug_pubnames
                0x00000212      0x253 D:/PYRAMID_SW/dsp_trunk/tags/Sphinx_0p2/testing_app/system_integration/bin/Py_210123_eval/Release/src/dsp_cli_nfca_rx.o
 .debug_pubnames
                0x00000465      0x249 D:/PYRAMID_SW/dsp_trunk/tags/Sphinx_0p2/testing_app/system_integration/bin/Py_210123_eval/Release/src/dsp_cli_nfca_tx.o
 .debug_pubnames
                0x000006ae      0x130 D:/PYRAMID_SW/dsp_trunk/tags/Sphinx_0p2/testing_app/system_integration/bin/Py_210123_eval/Release/src/dsp_cli_nfcb_rx.o
 .debug_pubnames
                0x000007de      0x15b D:/PYRAMID_SW/dsp_trunk/tags/Sphinx_0p2/testing_app/system_integration/bin/Py_210123_eval/Release/src/dsp_cli_nfcb_tx.o
 .debug_pubnames
                0x00000939      0x15a D:/PYRAMID_SW/dsp_trunk/tags/Sphinx_0p2/testing_app/system_integration/bin/Py_210123_eval/Release/src/dsp_cli_nfcf_rx.o
 .debug_pubnames
                0x00000a93      0x17a D:/PYRAMID_SW/dsp_trunk/tags/Sphinx_0p2/testing_app/system_integration/bin/Py_210123_eval/Release/src/dsp_cli_nfcf_tx.o
 .debug_pubnames
                0x00000c0d      0x112 D:/PYRAMID_SW/dsp_trunk/tags/Sphinx_0p2/testing_app/system_integration/bin/Py_210123_eval/Release/src/dsp_cli_nfcv_rx.o
 .debug_pubnames
                0x00000d1f      0x18c D:/PYRAMID_SW/dsp_trunk/tags/Sphinx_0p2/testing_app/system_integration/bin/Py_210123_eval/Release/src/dsp_cli_nfcv_tx.o
 .debug_pubnames
                0x00000eab       0xf4 D:/PYRAMID_SW/dsp_trunk/tags/Sphinx_0p2/testing_app/system_integration/bin/Py_210123_eval/Release/src/dsp_cli_rx.o
 .debug_pubnames
                0x00000f9f      0x135 D:/PYRAMID_SW/dsp_trunk/tags/Sphinx_0p2/testing_app/system_integration/bin/Py_210123_eval/Release/src/dsp_cli_tx.o
 .debug_pubnames
                0x000010d4       0xf4 D:/PYRAMID_SW/dsp_trunk/tags/Sphinx_0p2/testing_app/system_integration/bin/Py_210123_eval/Release/src/dsp_cli_utils.o
 .debug_pubnames
                0x000011c8      0x293 D:/PYRAMID_SW/dsp_trunk/tags/Sphinx_0p2/testing_app/system_integration/bin/Py_210123_eval/Release/src/dsp_cli_wind_lut.o
 .debug_pubnames
                0x0000145b       0xeb D:/PYRAMID_SW/dsp_trunk/tags/Sphinx_0p2/testing_app/system_integration/bin/Py_210123_eval/Release/src/dsp_evnt_mngr.o
 .debug_pubnames
                0x00001546      0x124 D:/PYRAMID_SW/dsp_trunk/tags/Sphinx_0p2/testing_app/system_integration/bin/Py_210123_eval/Release/src/dsp_hal.o
 .debug_pubnames
                0x0000166a       0x56 D:/PYRAMID_SW/dsp_trunk/tags/Sphinx_0p2/testing_app/system_integration/bin/Py_210123_eval/Release/src/dsp_hal_activetop.o
 .debug_pubnames
                0x000016c0      0x48d D:/PYRAMID_SW/dsp_trunk/tags/Sphinx_0p2/testing_app/system_integration/bin/Py_210123_eval/Release/src/dsp_hal_cli_top.o
 .debug_pubnames
                0x00001b4d       0x8f D:/PYRAMID_SW/dsp_trunk/tags/Sphinx_0p2/testing_app/system_integration/bin/Py_210123_eval/Release/src/dsp_hal_dsp_top.o
 .debug_pubnames
                0x00001bdc       0xac D:/PYRAMID_SW/dsp_trunk/tags/Sphinx_0p2/testing_app/system_integration/bin/Py_210123_eval/Release/src/dsp_hal_fifo.o
 .debug_pubnames
                0x00001c88       0xbb D:/PYRAMID_SW/dsp_trunk/tags/Sphinx_0p2/testing_app/system_integration/bin/Py_210123_eval/Release/src/dsp_hal_hmb.o
 .debug_pubnames
                0x00001d43      0x110 D:/PYRAMID_SW/dsp_trunk/tags/Sphinx_0p2/testing_app/system_integration/bin/Py_210123_eval/Release/src/dsp_hal_intr.o
 .debug_pubnames
                0x00001e53       0x82 D:/PYRAMID_SW/dsp_trunk/tags/Sphinx_0p2/testing_app/system_integration/bin/Py_210123_eval/Release/src/dsp_hal_mdm_top.o
 .debug_pubnames
                0x00001ed5       0x79 D:/PYRAMID_SW/dsp_trunk/tags/Sphinx_0p2/testing_app/system_integration/bin/Py_210123_eval/Release/src/dsp_hal_sml1_top.o
 .debug_pubnames
                0x00001f4e      0x2eb D:/PYRAMID_SW/dsp_trunk/tags/Sphinx_0p2/testing_app/system_integration/bin/Py_210123_eval/Release/src/dsp_hal_sml3.o
 .debug_pubnames
                0x00002239      0x170 D:/PYRAMID_SW/dsp_trunk/tags/Sphinx_0p2/testing_app/system_integration/bin/Py_210123_eval/Release/src/dsp_hal_timer.o
 .debug_pubnames
                0x000023a9      0x136 D:/PYRAMID_SW/dsp_trunk/tags/Sphinx_0p2/testing_app/system_integration/bin/Py_210123_eval/Release/src/dsp_intr_hndlr.o
 .debug_pubnames
                0x000024df       0xfd D:/PYRAMID_SW/dsp_trunk/tags/Sphinx_0p2/testing_app/system_integration/bin/Py_210123_eval/Release/src/dsp_logs.o
 .debug_pubnames
                0x000025dc       0xe3 D:/PYRAMID_SW/dsp_trunk/tags/Sphinx_0p2/testing_app/system_integration/bin/Py_210123_eval/Release/src/dsp_m0_common.o
 .debug_pubnames
                0x000026bf      0x1b4 D:/PYRAMID_SW/dsp_trunk/tags/Sphinx_0p2/testing_app/system_integration/bin/Py_210123_eval/Release/src/dsp_mngr.o
 .debug_pubnames
                0x00002873       0x8b D:/PYRAMID_SW/dsp_trunk/tags/Sphinx_0p2/testing_app/system_integration/bin/Py_210123_eval/Release/src/dsp_sml0_apc.o
 .debug_pubnames
                0x000028fe       0x93 D:/PYRAMID_SW/dsp_trunk/tags/Sphinx_0p2/testing_app/system_integration/bin/Py_210123_eval/Release/src/dsp_sml0_lmac.o
 .debug_pubnames
                0x00002991      0x114 D:/PYRAMID_SW/dsp_trunk/tags/Sphinx_0p2/testing_app/system_integration/bin/Py_210123_eval/Release/src/dsp_sml1.o
 .debug_pubnames
                0x00002aa5      0x14b D:/PYRAMID_SW/dsp_trunk/tags/Sphinx_0p2/testing_app/system_integration/bin/Py_210123_eval/Release/src/dsp_sml1_dyn_reg.o
 .debug_pubnames
                0x00002bf0      0x131 D:/PYRAMID_SW/dsp_trunk/tags/Sphinx_0p2/testing_app/system_integration/bin/Py_210123_eval/Release/src/dsp_sml1_pcm.o
 .debug_pubnames
                0x00002d21     0x17f7 D:/PYRAMID_SW/dsp_trunk/tags/Sphinx_0p2/testing_app/system_integration/bin/Py_210123_eval/Release/src/dsp_sml1_pcm_dyn_reg_lut.o
 .debug_pubnames
                0x00004518      0x25b D:/PYRAMID_SW/dsp_trunk/tags/Sphinx_0p2/testing_app/system_integration/bin/Py_210123_eval/Release/src/dsp_sml1_pcm_listener.o
 .debug_pubnames
                0x00004773      0x1b6 D:/PYRAMID_SW/dsp_trunk/tags/Sphinx_0p2/testing_app/system_integration/bin/Py_210123_eval/Release/src/dsp_sml1_pcm_listener_user_ta.o
 .debug_pubnames
                0x00004929      0x267 D:/PYRAMID_SW/dsp_trunk/tags/Sphinx_0p2/testing_app/system_integration/bin/Py_210123_eval/Release/src/dsp_sml1_pcm_poller.o
 .debug_pubnames
                0x00004b90      0x3ea D:/PYRAMID_SW/dsp_trunk/tags/Sphinx_0p2/testing_app/system_integration/bin/Py_210123_eval/Release/src/dsp_sml1_pcm_poller_user_ta.o
 .debug_pubnames
                0x00004f7a       0xcb D:/PYRAMID_SW/dsp_trunk/tags/Sphinx_0p2/testing_app/system_integration/bin/Py_210123_eval/Release/src/dsp_sml1_user_ta_lut.o
 .debug_pubnames
                0x00005045       0x5f D:/PYRAMID_SW/dsp_trunk/tags/Sphinx_0p2/testing_app/system_integration/bin/Py_210123_eval/Release/test_10_loopbck_nfcv_rw.o
 .debug_pubnames
                0x000050a4       0x5f D:/PYRAMID_SW/dsp_trunk/tags/Sphinx_0p2/testing_app/system_integration/bin/Py_210123_eval/Release/test_1_loopbck_nfcf_rw_std.o
 .debug_pubnames
                0x00005103       0x5f D:/PYRAMID_SW/dsp_trunk/tags/Sphinx_0p2/testing_app/system_integration/bin/Py_210123_eval/Release/test_2_loopbck_nfcf_ce.o
 .debug_pubnames
                0x00005162       0x5f D:/PYRAMID_SW/dsp_trunk/tags/Sphinx_0p2/testing_app/system_integration/bin/Py_210123_eval/Release/test_3_loopbck_nfca_rw_std.o
 .debug_pubnames
                0x000051c1       0x5f D:/PYRAMID_SW/dsp_trunk/tags/Sphinx_0p2/testing_app/system_integration/bin/Py_210123_eval/Release/test_4_loopbck_nfca_ce.o
 .debug_pubnames
                0x00005220       0x5f D:/PYRAMID_SW/dsp_trunk/tags/Sphinx_0p2/testing_app/system_integration/bin/Py_210123_eval/Release/test_5_loopbck_nfca_rw_sdd.o
 .debug_pubnames
                0x0000527f       0x5f D:/PYRAMID_SW/dsp_trunk/tags/Sphinx_0p2/testing_app/system_integration/bin/Py_210123_eval/Release/test_6_loopbck_nfca_ce_swp_intf.o
 .debug_pubnames
                0x000052de       0x5f D:/PYRAMID_SW/dsp_trunk/tags/Sphinx_0p2/testing_app/system_integration/bin/Py_210123_eval/Release/test_7_loopbck_nfcb_rw.o
 .debug_pubnames
                0x0000533d       0x5f D:/PYRAMID_SW/dsp_trunk/tags/Sphinx_0p2/testing_app/system_integration/bin/Py_210123_eval/Release/test_8_loopbck_nfcb_ce.o
 .debug_pubnames
                0x0000539c       0x5f D:/PYRAMID_SW/dsp_trunk/tags/Sphinx_0p2/testing_app/system_integration/bin/Py_210123_eval/Release/test_9_loopbck_nfca_rw_t1t.o
 .debug_pubnames
                0x000053fb       0x5f D:/PYRAMID_SW/dsp_trunk/tags/Sphinx_0p2/testing_app/system_integration/bin/Py_210123_eval/Release/test_integration.o

.debug_info     0x00000000   0x47bbdb
 *(.debug_info)
 .debug_info    0x00000000       0xd6 C:/usr/xtensa/XtDevTools/install/builds/RI-2021.6-win32/Py_210123_eval/xtensa-elf/arch/lib/crt1-tiny.o
 .debug_info    0x000000d6      0x273 D:/PYRAMID_SW/dsp_trunk/tags/Sphinx_0p2/testing_app/system_integration/bin/Py_210123_eval/Release/dsp_verification.o
 .debug_info    0x00000349     0xa5ef D:/PYRAMID_SW/dsp_trunk/tags/Sphinx_0p2/testing_app/system_integration/bin/Py_210123_eval/Release/main.o
 .debug_info    0x0000a938    0x1b8f9 D:/PYRAMID_SW/dsp_trunk/tags/Sphinx_0p2/testing_app/system_integration/bin/Py_210123_eval/Release/src/dsp_bootloader.o
 .debug_info    0x00026231    0x133b7 D:/PYRAMID_SW/dsp_trunk/tags/Sphinx_0p2/testing_app/system_integration/bin/Py_210123_eval/Release/src/dsp_cli_nfca_rx.o
 .debug_info    0x000395e8    0x33c4b D:/PYRAMID_SW/dsp_trunk/tags/Sphinx_0p2/testing_app/system_integration/bin/Py_210123_eval/Release/src/dsp_cli_nfca_tx.o
 .debug_info    0x0006d233     0xbf41 D:/PYRAMID_SW/dsp_trunk/tags/Sphinx_0p2/testing_app/system_integration/bin/Py_210123_eval/Release/src/dsp_cli_nfcb_rx.o
 .debug_info    0x00079174     0xbf67 D:/PYRAMID_SW/dsp_trunk/tags/Sphinx_0p2/testing_app/system_integration/bin/Py_210123_eval/Release/src/dsp_cli_nfcb_tx.o
 .debug_info    0x000850db     0xc05a D:/PYRAMID_SW/dsp_trunk/tags/Sphinx_0p2/testing_app/system_integration/bin/Py_210123_eval/Release/src/dsp_cli_nfcf_rx.o
 .debug_info    0x00091135     0xc0d5 D:/PYRAMID_SW/dsp_trunk/tags/Sphinx_0p2/testing_app/system_integration/bin/Py_210123_eval/Release/src/dsp_cli_nfcf_tx.o
 .debug_info    0x0009d20a     0xbef0 D:/PYRAMID_SW/dsp_trunk/tags/Sphinx_0p2/testing_app/system_integration/bin/Py_210123_eval/Release/src/dsp_cli_nfcv_rx.o
 .debug_info    0x000a90fa     0xbf5b D:/PYRAMID_SW/dsp_trunk/tags/Sphinx_0p2/testing_app/system_integration/bin/Py_210123_eval/Release/src/dsp_cli_nfcv_tx.o
 .debug_info    0x000b5055     0xbcfa D:/PYRAMID_SW/dsp_trunk/tags/Sphinx_0p2/testing_app/system_integration/bin/Py_210123_eval/Release/src/dsp_cli_rx.o
 .debug_info    0x000c0d4f     0xddc0 D:/PYRAMID_SW/dsp_trunk/tags/Sphinx_0p2/testing_app/system_integration/bin/Py_210123_eval/Release/src/dsp_cli_tx.o
 .debug_info    0x000ceb0f     0x1531 D:/PYRAMID_SW/dsp_trunk/tags/Sphinx_0p2/testing_app/system_integration/bin/Py_210123_eval/Release/src/dsp_cli_utils.o
 .debug_info    0x000d0040      0x4da D:/PYRAMID_SW/dsp_trunk/tags/Sphinx_0p2/testing_app/system_integration/bin/Py_210123_eval/Release/src/dsp_cli_wind_lut.o
 .debug_info    0x000d051a     0xa795 D:/PYRAMID_SW/dsp_trunk/tags/Sphinx_0p2/testing_app/system_integration/bin/Py_210123_eval/Release/src/dsp_evnt_mngr.o
 .debug_info    0x000dacaf    0x14e53 D:/PYRAMID_SW/dsp_trunk/tags/Sphinx_0p2/testing_app/system_integration/bin/Py_210123_eval/Release/src/dsp_hal.o
 .debug_info    0x000efb02     0xdee8 D:/PYRAMID_SW/dsp_trunk/tags/Sphinx_0p2/testing_app/system_integration/bin/Py_210123_eval/Release/src/dsp_hal_activetop.o
 .debug_info    0x000fd9ea    0x1db46 D:/PYRAMID_SW/dsp_trunk/tags/Sphinx_0p2/testing_app/system_integration/bin/Py_210123_eval/Release/src/dsp_hal_cli_top.o
 .debug_info    0x0011b530     0x5263 D:/PYRAMID_SW/dsp_trunk/tags/Sphinx_0p2/testing_app/system_integration/bin/Py_210123_eval/Release/src/dsp_hal_dsp_top.o
 .debug_info    0x00120793     0xa682 D:/PYRAMID_SW/dsp_trunk/tags/Sphinx_0p2/testing_app/system_integration/bin/Py_210123_eval/Release/src/dsp_hal_fifo.o
 .debug_info    0x0012ae15     0xc41e D:/PYRAMID_SW/dsp_trunk/tags/Sphinx_0p2/testing_app/system_integration/bin/Py_210123_eval/Release/src/dsp_hal_hmb.o
 .debug_info    0x00137233      0x43f D:/PYRAMID_SW/dsp_trunk/tags/Sphinx_0p2/testing_app/system_integration/bin/Py_210123_eval/Release/src/dsp_hal_intr.o
 .debug_info    0x00137672    0x25d80 D:/PYRAMID_SW/dsp_trunk/tags/Sphinx_0p2/testing_app/system_integration/bin/Py_210123_eval/Release/src/dsp_hal_mdm_top.o
 .debug_info    0x0015d3f2     0xbbb8 D:/PYRAMID_SW/dsp_trunk/tags/Sphinx_0p2/testing_app/system_integration/bin/Py_210123_eval/Release/src/dsp_hal_sml1_top.o
 .debug_info    0x00168faa    0x479c8 D:/PYRAMID_SW/dsp_trunk/tags/Sphinx_0p2/testing_app/system_integration/bin/Py_210123_eval/Release/src/dsp_hal_sml3.o
 .debug_info    0x001b0972     0xbc8d D:/PYRAMID_SW/dsp_trunk/tags/Sphinx_0p2/testing_app/system_integration/bin/Py_210123_eval/Release/src/dsp_hal_timer.o
 .debug_info    0x001bc5ff    0x5c1d6 D:/PYRAMID_SW/dsp_trunk/tags/Sphinx_0p2/testing_app/system_integration/bin/Py_210123_eval/Release/src/dsp_intr_hndlr.o
 .debug_info    0x002187d5     0x5614 D:/PYRAMID_SW/dsp_trunk/tags/Sphinx_0p2/testing_app/system_integration/bin/Py_210123_eval/Release/src/dsp_logs.o
 .debug_info    0x0021dde9     0x2f8b D:/PYRAMID_SW/dsp_trunk/tags/Sphinx_0p2/testing_app/system_integration/bin/Py_210123_eval/Release/src/dsp_m0_common.o
 .debug_info    0x00220d74    0x41aad D:/PYRAMID_SW/dsp_trunk/tags/Sphinx_0p2/testing_app/system_integration/bin/Py_210123_eval/Release/src/dsp_mngr.o
 .debug_info    0x00262821    0x37639 D:/PYRAMID_SW/dsp_trunk/tags/Sphinx_0p2/testing_app/system_integration/bin/Py_210123_eval/Release/src/dsp_sml0_apc.o
 .debug_info    0x00299e5a    0x24998 D:/PYRAMID_SW/dsp_trunk/tags/Sphinx_0p2/testing_app/system_integration/bin/Py_210123_eval/Release/src/dsp_sml0_lmac.o
 .debug_info    0x002be7f2     0xbcca D:/PYRAMID_SW/dsp_trunk/tags/Sphinx_0p2/testing_app/system_integration/bin/Py_210123_eval/Release/src/dsp_sml1.o
 .debug_info    0x002ca4bc    0x31bb6 D:/PYRAMID_SW/dsp_trunk/tags/Sphinx_0p2/testing_app/system_integration/bin/Py_210123_eval/Release/src/dsp_sml1_dyn_reg.o
 .debug_info    0x002fc072    0x72dc5 D:/PYRAMID_SW/dsp_trunk/tags/Sphinx_0p2/testing_app/system_integration/bin/Py_210123_eval/Release/src/dsp_sml1_pcm.o
 .debug_info    0x0036ee37     0x246f D:/PYRAMID_SW/dsp_trunk/tags/Sphinx_0p2/testing_app/system_integration/bin/Py_210123_eval/Release/src/dsp_sml1_pcm_dyn_reg_lut.o
 .debug_info    0x003712a6    0x4b3aa D:/PYRAMID_SW/dsp_trunk/tags/Sphinx_0p2/testing_app/system_integration/bin/Py_210123_eval/Release/src/dsp_sml1_pcm_listener.o
 .debug_info    0x003bc650    0x30bf1 D:/PYRAMID_SW/dsp_trunk/tags/Sphinx_0p2/testing_app/system_integration/bin/Py_210123_eval/Release/src/dsp_sml1_pcm_listener_user_ta.o
 .debug_info    0x003ed241    0x43592 D:/PYRAMID_SW/dsp_trunk/tags/Sphinx_0p2/testing_app/system_integration/bin/Py_210123_eval/Release/src/dsp_sml1_pcm_poller.o
 .debug_info    0x004307d3    0x4884e D:/PYRAMID_SW/dsp_trunk/tags/Sphinx_0p2/testing_app/system_integration/bin/Py_210123_eval/Release/src/dsp_sml1_pcm_poller_user_ta.o
 .debug_info    0x00479021      0x29f D:/PYRAMID_SW/dsp_trunk/tags/Sphinx_0p2/testing_app/system_integration/bin/Py_210123_eval/Release/src/dsp_sml1_user_ta_lut.o
 .debug_info    0x004792c0      0x1a4 D:/PYRAMID_SW/dsp_trunk/tags/Sphinx_0p2/testing_app/system_integration/bin/Py_210123_eval/Release/test_10_loopbck_nfcv_rw.o
 .debug_info    0x00479464      0x1a7 D:/PYRAMID_SW/dsp_trunk/tags/Sphinx_0p2/testing_app/system_integration/bin/Py_210123_eval/Release/test_1_loopbck_nfcf_rw_std.o
 .debug_info    0x0047960b      0x1a3 D:/PYRAMID_SW/dsp_trunk/tags/Sphinx_0p2/testing_app/system_integration/bin/Py_210123_eval/Release/test_2_loopbck_nfcf_ce.o
 .debug_info    0x004797ae      0x1a7 D:/PYRAMID_SW/dsp_trunk/tags/Sphinx_0p2/testing_app/system_integration/bin/Py_210123_eval/Release/test_3_loopbck_nfca_rw_std.o
 .debug_info    0x00479955      0x1a3 D:/PYRAMID_SW/dsp_trunk/tags/Sphinx_0p2/testing_app/system_integration/bin/Py_210123_eval/Release/test_4_loopbck_nfca_ce.o
 .debug_info    0x00479af8      0x1a7 D:/PYRAMID_SW/dsp_trunk/tags/Sphinx_0p2/testing_app/system_integration/bin/Py_210123_eval/Release/test_5_loopbck_nfca_rw_sdd.o
 .debug_info    0x00479c9f      0x1ac D:/PYRAMID_SW/dsp_trunk/tags/Sphinx_0p2/testing_app/system_integration/bin/Py_210123_eval/Release/test_6_loopbck_nfca_ce_swp_intf.o
 .debug_info    0x00479e4b      0x1a3 D:/PYRAMID_SW/dsp_trunk/tags/Sphinx_0p2/testing_app/system_integration/bin/Py_210123_eval/Release/test_7_loopbck_nfcb_rw.o
 .debug_info    0x00479fee      0x1a3 D:/PYRAMID_SW/dsp_trunk/tags/Sphinx_0p2/testing_app/system_integration/bin/Py_210123_eval/Release/test_8_loopbck_nfcb_ce.o
 .debug_info    0x0047a191      0x1a7 D:/PYRAMID_SW/dsp_trunk/tags/Sphinx_0p2/testing_app/system_integration/bin/Py_210123_eval/Release/test_9_loopbck_nfca_rw_t1t.o
 .debug_info    0x0047a338      0x19d D:/PYRAMID_SW/dsp_trunk/tags/Sphinx_0p2/testing_app/system_integration/bin/Py_210123_eval/Release/test_integration.o
 .debug_info    0x0047a4d5       0xf2 C:/usr/xtensa/XtDevTools/install/builds/RI-2021.6-win32/Py_210123_eval/xtensa-elf/lib/xcc/\libgcc.a(_udivsi3.o)
 .debug_info    0x0047a5c7       0xe3 C:/usr/xtensa/XtDevTools/install/builds/RI-2021.6-win32/Py_210123_eval/xtensa-elf/arch/lib/\libhandler-reset-unpack.a(reset-vector-unpack.o)
 .debug_info    0x0047a6aa       0xa6 C:/usr/xtensa/XtDevTools/install/builds/RI-2021.6-win32/Py_210123_eval/xtensa-elf/arch/lib/\libhandlers-board.a(xtos-interrupt-enable.o)
 .debug_info    0x0047a750       0xa6 C:/usr/xtensa/XtDevTools/install/builds/RI-2021.6-win32/Py_210123_eval/xtensa-elf/arch/lib/\libhandlers-board.a(xtos-interrupt-disable.o)
 .debug_info    0x0047a7f6       0xb8 C:/usr/xtensa/XtDevTools/install/builds/RI-2021.6-win32/Py_210123_eval/xtensa-elf/arch/lib/\libhandlers-board.a(xtos-interrupt-clear.o)
 .debug_info    0x0047a8ae      0x148 C:/usr/xtensa/XtDevTools/install/builds/RI-2021.6-win32/Py_210123_eval/xtensa-elf/arch/lib/\libhandlers-board.a(xtos-set-inthandler.o)
 .debug_info    0x0047a9f6       0xea C:/usr/xtensa/XtDevTools/install/builds/RI-2021.6-win32/Py_210123_eval/xtensa-elf/arch/lib/\libhandlers-board.a(xtos-set-exchandler.o)
 .debug_info    0x0047aae0       0xe5 C:/usr/xtensa/XtDevTools/install/builds/RI-2021.6-win32/Py_210123_eval/xtensa-elf/arch/lib/\libhandlers-board.a(exc-syscall-handler.o)
 .debug_info    0x0047abc5       0xdb C:/usr/xtensa/XtDevTools/install/builds/RI-2021.6-win32/Py_210123_eval/xtensa-elf/arch/lib/\libhandlers-board.a(exc-table.o)
 .debug_info    0x0047aca0       0xe1 C:/usr/xtensa/XtDevTools/install/builds/RI-2021.6-win32/Py_210123_eval/xtensa-elf/arch/lib/\libhandlers-board.a(interrupt-table.o)
 .debug_info    0x0047ad81       0xdd C:/usr/xtensa/XtDevTools/install/builds/RI-2021.6-win32/Py_210123_eval/xtensa-elf/arch/lib/\libhandlers-board.a(user-vector.o)
 .debug_info    0x0047ae5e       0xe7 C:/usr/xtensa/XtDevTools/install/builds/RI-2021.6-win32/Py_210123_eval/xtensa-elf/arch/lib/\libhandlers-board.a(exc-c-wrapper-handler.o)
 .debug_info    0x0047af45       0xdc C:/usr/xtensa/XtDevTools/install/builds/RI-2021.6-win32/Py_210123_eval/xtensa-elf/arch/lib/\libhandlers-board.a(exc-return.o)
 .debug_info    0x0047b021       0xe7 C:/usr/xtensa/XtDevTools/install/builds/RI-2021.6-win32/Py_210123_eval/xtensa-elf/arch/lib/\libhandlers-board.a(int-lowpri-dispatcher.o)
 .debug_info    0x0047b108       0xe0 C:/usr/xtensa/XtDevTools/install/builds/RI-2021.6-win32/Py_210123_eval/xtensa-elf/arch/lib/\libhandlers-board.a(window-vectors.o)
 .debug_info    0x0047b1e8       0xdf C:/usr/xtensa/XtDevTools/install/builds/RI-2021.6-win32/Py_210123_eval/xtensa-elf/arch/lib/\libhandlers-board.a(int-init-level1.o)
 .debug_info    0x0047b2c7       0xdf C:/usr/xtensa/XtDevTools/install/builds/RI-2021.6-win32/Py_210123_eval/xtensa-elf/arch/lib/\libhandlers-board.a(int-init-level2.o)
 .debug_info    0x0047b3a6       0xdf C:/usr/xtensa/XtDevTools/install/builds/RI-2021.6-win32/Py_210123_eval/xtensa-elf/arch/lib/\libhandlers-board.a(int-init-level3.o)
 .debug_info    0x0047b485       0xdf C:/usr/xtensa/XtDevTools/install/builds/RI-2021.6-win32/Py_210123_eval/xtensa-elf/arch/lib/\libhandlers-board.a(exc-unhandled.o)
 .debug_info    0x0047b564       0xdc C:/usr/xtensa/XtDevTools/install/builds/RI-2021.6-win32/Py_210123_eval/xtensa-elf/arch/lib/\libhandlers-board.a(int-vector-level2.o)
 .debug_info    0x0047b640       0xdc C:/usr/xtensa/XtDevTools/install/builds/RI-2021.6-win32/Py_210123_eval/xtensa-elf/arch/lib/\libhandlers-board.a(int-vector-level3.o)
 .debug_info    0x0047b71c       0xe7 C:/usr/xtensa/XtDevTools/install/builds/RI-2021.6-win32/Py_210123_eval/xtensa-elf/arch/lib/\libhandlers-board.a(int-handler-level2.o)
 .debug_info    0x0047b803       0xe7 C:/usr/xtensa/XtDevTools/install/builds/RI-2021.6-win32/Py_210123_eval/xtensa-elf/arch/lib/\libhandlers-board.a(int-handler-level3.o)
 .debug_info    0x0047b8ea       0xde C:/usr/xtensa/XtDevTools/install/builds/RI-2021.6-win32/Py_210123_eval/xtensa-elf/arch/lib/\libhandlers-board.a(debug-vector.o)
 .debug_info    0x0047b9c8       0xda C:/usr/xtensa/XtDevTools/install/builds/RI-2021.6-win32/Py_210123_eval/xtensa-elf/arch/lib/\libhandlers-board.a(double-vector.o)
 .debug_info    0x0047baa2       0xdf C:/usr/xtensa/XtDevTools/install/builds/RI-2021.6-win32/Py_210123_eval/xtensa-elf/arch/lib/\libhandlers-board.a(kernel-vector.o)
 .debug_info    0x0047bb81       0x5a C:/usr/xtensa/XtDevTools/install/builds/RI-2021.6-win32/Py_210123_eval/xtensa-elf/arch/lib/\libhal.a(const--intlevel.o)

.debug_abbrev   0x00000000     0x4fbc
 *(.debug_abbrev)
 .debug_abbrev  0x00000000       0x14 C:/usr/xtensa/XtDevTools/install/builds/RI-2021.6-win32/Py_210123_eval/xtensa-elf/arch/lib/crt1-tiny.o
 .debug_abbrev  0x00000014       0xd3 D:/PYRAMID_SW/dsp_trunk/tags/Sphinx_0p2/testing_app/system_integration/bin/Py_210123_eval/Release/dsp_verification.o
 .debug_abbrev  0x000000e7      0x133 D:/PYRAMID_SW/dsp_trunk/tags/Sphinx_0p2/testing_app/system_integration/bin/Py_210123_eval/Release/main.o
 .debug_abbrev  0x0000021a      0x1ba D:/PYRAMID_SW/dsp_trunk/tags/Sphinx_0p2/testing_app/system_integration/bin/Py_210123_eval/Release/src/dsp_bootloader.o
 .debug_abbrev  0x000003d4      0x27a D:/PYRAMID_SW/dsp_trunk/tags/Sphinx_0p2/testing_app/system_integration/bin/Py_210123_eval/Release/src/dsp_cli_nfca_rx.o
 .debug_abbrev  0x0000064e      0x272 D:/PYRAMID_SW/dsp_trunk/tags/Sphinx_0p2/testing_app/system_integration/bin/Py_210123_eval/Release/src/dsp_cli_nfca_tx.o
 .debug_abbrev  0x000008c0      0x1eb D:/PYRAMID_SW/dsp_trunk/tags/Sphinx_0p2/testing_app/system_integration/bin/Py_210123_eval/Release/src/dsp_cli_nfcb_rx.o
 .debug_abbrev  0x00000aab      0x1dd D:/PYRAMID_SW/dsp_trunk/tags/Sphinx_0p2/testing_app/system_integration/bin/Py_210123_eval/Release/src/dsp_cli_nfcb_tx.o
 .debug_abbrev  0x00000c88      0x21e D:/PYRAMID_SW/dsp_trunk/tags/Sphinx_0p2/testing_app/system_integration/bin/Py_210123_eval/Release/src/dsp_cli_nfcf_rx.o
 .debug_abbrev  0x00000ea6      0x232 D:/PYRAMID_SW/dsp_trunk/tags/Sphinx_0p2/testing_app/system_integration/bin/Py_210123_eval/Release/src/dsp_cli_nfcf_tx.o
 .debug_abbrev  0x000010d8      0x1eb D:/PYRAMID_SW/dsp_trunk/tags/Sphinx_0p2/testing_app/system_integration/bin/Py_210123_eval/Release/src/dsp_cli_nfcv_rx.o
 .debug_abbrev  0x000012c3      0x1dd D:/PYRAMID_SW/dsp_trunk/tags/Sphinx_0p2/testing_app/system_integration/bin/Py_210123_eval/Release/src/dsp_cli_nfcv_tx.o
 .debug_abbrev  0x000014a0      0x20e D:/PYRAMID_SW/dsp_trunk/tags/Sphinx_0p2/testing_app/system_integration/bin/Py_210123_eval/Release/src/dsp_cli_rx.o
 .debug_abbrev  0x000016ae      0x220 D:/PYRAMID_SW/dsp_trunk/tags/Sphinx_0p2/testing_app/system_integration/bin/Py_210123_eval/Release/src/dsp_cli_tx.o
 .debug_abbrev  0x000018ce      0x15e D:/PYRAMID_SW/dsp_trunk/tags/Sphinx_0p2/testing_app/system_integration/bin/Py_210123_eval/Release/src/dsp_cli_utils.o
 .debug_abbrev  0x00001a2c       0x6e D:/PYRAMID_SW/dsp_trunk/tags/Sphinx_0p2/testing_app/system_integration/bin/Py_210123_eval/Release/src/dsp_cli_wind_lut.o
 .debug_abbrev  0x00001a9a      0x196 D:/PYRAMID_SW/dsp_trunk/tags/Sphinx_0p2/testing_app/system_integration/bin/Py_210123_eval/Release/src/dsp_evnt_mngr.o
 .debug_abbrev  0x00001c30      0x1af D:/PYRAMID_SW/dsp_trunk/tags/Sphinx_0p2/testing_app/system_integration/bin/Py_210123_eval/Release/src/dsp_hal.o
 .debug_abbrev  0x00001ddf       0xd5 D:/PYRAMID_SW/dsp_trunk/tags/Sphinx_0p2/testing_app/system_integration/bin/Py_210123_eval/Release/src/dsp_hal_activetop.o
 .debug_abbrev  0x00001eb4      0x288 D:/PYRAMID_SW/dsp_trunk/tags/Sphinx_0p2/testing_app/system_integration/bin/Py_210123_eval/Release/src/dsp_hal_cli_top.o
 .debug_abbrev  0x0000213c       0xef D:/PYRAMID_SW/dsp_trunk/tags/Sphinx_0p2/testing_app/system_integration/bin/Py_210123_eval/Release/src/dsp_hal_dsp_top.o
 .debug_abbrev  0x0000222b      0x163 D:/PYRAMID_SW/dsp_trunk/tags/Sphinx_0p2/testing_app/system_integration/bin/Py_210123_eval/Release/src/dsp_hal_fifo.o
 .debug_abbrev  0x0000238e      0x1a9 D:/PYRAMID_SW/dsp_trunk/tags/Sphinx_0p2/testing_app/system_integration/bin/Py_210123_eval/Release/src/dsp_hal_hmb.o
 .debug_abbrev  0x00002537       0xee D:/PYRAMID_SW/dsp_trunk/tags/Sphinx_0p2/testing_app/system_integration/bin/Py_210123_eval/Release/src/dsp_hal_intr.o
 .debug_abbrev  0x00002625       0xee D:/PYRAMID_SW/dsp_trunk/tags/Sphinx_0p2/testing_app/system_integration/bin/Py_210123_eval/Release/src/dsp_hal_mdm_top.o
 .debug_abbrev  0x00002713      0x18f D:/PYRAMID_SW/dsp_trunk/tags/Sphinx_0p2/testing_app/system_integration/bin/Py_210123_eval/Release/src/dsp_hal_sml1_top.o
 .debug_abbrev  0x000028a2      0x205 D:/PYRAMID_SW/dsp_trunk/tags/Sphinx_0p2/testing_app/system_integration/bin/Py_210123_eval/Release/src/dsp_hal_sml3.o
 .debug_abbrev  0x00002aa7      0x203 D:/PYRAMID_SW/dsp_trunk/tags/Sphinx_0p2/testing_app/system_integration/bin/Py_210123_eval/Release/src/dsp_hal_timer.o
 .debug_abbrev  0x00002caa      0x21d D:/PYRAMID_SW/dsp_trunk/tags/Sphinx_0p2/testing_app/system_integration/bin/Py_210123_eval/Release/src/dsp_intr_hndlr.o
 .debug_abbrev  0x00002ec7      0x1b2 D:/PYRAMID_SW/dsp_trunk/tags/Sphinx_0p2/testing_app/system_integration/bin/Py_210123_eval/Release/src/dsp_logs.o
 .debug_abbrev  0x00003079      0x179 D:/PYRAMID_SW/dsp_trunk/tags/Sphinx_0p2/testing_app/system_integration/bin/Py_210123_eval/Release/src/dsp_m0_common.o
 .debug_abbrev  0x000031f2      0x1a8 D:/PYRAMID_SW/dsp_trunk/tags/Sphinx_0p2/testing_app/system_integration/bin/Py_210123_eval/Release/src/dsp_mngr.o
 .debug_abbrev  0x0000339a      0x1a5 D:/PYRAMID_SW/dsp_trunk/tags/Sphinx_0p2/testing_app/system_integration/bin/Py_210123_eval/Release/src/dsp_sml0_apc.o
 .debug_abbrev  0x0000353f       0xf1 D:/PYRAMID_SW/dsp_trunk/tags/Sphinx_0p2/testing_app/system_integration/bin/Py_210123_eval/Release/src/dsp_sml0_lmac.o
 .debug_abbrev  0x00003630      0x19d D:/PYRAMID_SW/dsp_trunk/tags/Sphinx_0p2/testing_app/system_integration/bin/Py_210123_eval/Release/src/dsp_sml1.o
 .debug_abbrev  0x000037cd      0x264 D:/PYRAMID_SW/dsp_trunk/tags/Sphinx_0p2/testing_app/system_integration/bin/Py_210123_eval/Release/src/dsp_sml1_dyn_reg.o
 .debug_abbrev  0x00003a31      0x21a D:/PYRAMID_SW/dsp_trunk/tags/Sphinx_0p2/testing_app/system_integration/bin/Py_210123_eval/Release/src/dsp_sml1_pcm.o
 .debug_abbrev  0x00003c4b       0xa5 D:/PYRAMID_SW/dsp_trunk/tags/Sphinx_0p2/testing_app/system_integration/bin/Py_210123_eval/Release/src/dsp_sml1_pcm_dyn_reg_lut.o
 .debug_abbrev  0x00003cf0      0x25d D:/PYRAMID_SW/dsp_trunk/tags/Sphinx_0p2/testing_app/system_integration/bin/Py_210123_eval/Release/src/dsp_sml1_pcm_listener.o
 .debug_abbrev  0x00003f4d      0x273 D:/PYRAMID_SW/dsp_trunk/tags/Sphinx_0p2/testing_app/system_integration/bin/Py_210123_eval/Release/src/dsp_sml1_pcm_listener_user_ta.o
 .debug_abbrev  0x000041c0      0x230 D:/PYRAMID_SW/dsp_trunk/tags/Sphinx_0p2/testing_app/system_integration/bin/Py_210123_eval/Release/src/dsp_sml1_pcm_poller.o
 .debug_abbrev  0x000043f0      0x342 D:/PYRAMID_SW/dsp_trunk/tags/Sphinx_0p2/testing_app/system_integration/bin/Py_210123_eval/Release/src/dsp_sml1_pcm_poller_user_ta.o
 .debug_abbrev  0x00004732       0x86 D:/PYRAMID_SW/dsp_trunk/tags/Sphinx_0p2/testing_app/system_integration/bin/Py_210123_eval/Release/src/dsp_sml1_user_ta_lut.o
 .debug_abbrev  0x000047b8       0x49 D:/PYRAMID_SW/dsp_trunk/tags/Sphinx_0p2/testing_app/system_integration/bin/Py_210123_eval/Release/test_10_loopbck_nfcv_rw.o
 .debug_abbrev  0x00004801       0x49 D:/PYRAMID_SW/dsp_trunk/tags/Sphinx_0p2/testing_app/system_integration/bin/Py_210123_eval/Release/test_1_loopbck_nfcf_rw_std.o
 .debug_abbrev  0x0000484a       0x49 D:/PYRAMID_SW/dsp_trunk/tags/Sphinx_0p2/testing_app/system_integration/bin/Py_210123_eval/Release/test_2_loopbck_nfcf_ce.o
 .debug_abbrev  0x00004893       0x49 D:/PYRAMID_SW/dsp_trunk/tags/Sphinx_0p2/testing_app/system_integration/bin/Py_210123_eval/Release/test_3_loopbck_nfca_rw_std.o
 .debug_abbrev  0x000048dc       0x49 D:/PYRAMID_SW/dsp_trunk/tags/Sphinx_0p2/testing_app/system_integration/bin/Py_210123_eval/Release/test_4_loopbck_nfca_ce.o
 .debug_abbrev  0x00004925       0x49 D:/PYRAMID_SW/dsp_trunk/tags/Sphinx_0p2/testing_app/system_integration/bin/Py_210123_eval/Release/test_5_loopbck_nfca_rw_sdd.o
 .debug_abbrev  0x0000496e       0x49 D:/PYRAMID_SW/dsp_trunk/tags/Sphinx_0p2/testing_app/system_integration/bin/Py_210123_eval/Release/test_6_loopbck_nfca_ce_swp_intf.o
 .debug_abbrev  0x000049b7       0x49 D:/PYRAMID_SW/dsp_trunk/tags/Sphinx_0p2/testing_app/system_integration/bin/Py_210123_eval/Release/test_7_loopbck_nfcb_rw.o
 .debug_abbrev  0x00004a00       0x49 D:/PYRAMID_SW/dsp_trunk/tags/Sphinx_0p2/testing_app/system_integration/bin/Py_210123_eval/Release/test_8_loopbck_nfcb_ce.o
 .debug_abbrev  0x00004a49       0x49 D:/PYRAMID_SW/dsp_trunk/tags/Sphinx_0p2/testing_app/system_integration/bin/Py_210123_eval/Release/test_9_loopbck_nfca_rw_t1t.o
 .debug_abbrev  0x00004a92       0x49 D:/PYRAMID_SW/dsp_trunk/tags/Sphinx_0p2/testing_app/system_integration/bin/Py_210123_eval/Release/test_integration.o
 .debug_abbrev  0x00004adb       0x14 C:/usr/xtensa/XtDevTools/install/builds/RI-2021.6-win32/Py_210123_eval/xtensa-elf/lib/xcc/\libgcc.a(_udivsi3.o)
 .debug_abbrev  0x00004aef       0x14 C:/usr/xtensa/XtDevTools/install/builds/RI-2021.6-win32/Py_210123_eval/xtensa-elf/arch/lib/\libhandler-reset-unpack.a(reset-vector-unpack.o)
 .debug_abbrev  0x00004b03       0x71 C:/usr/xtensa/XtDevTools/install/builds/RI-2021.6-win32/Py_210123_eval/xtensa-elf/arch/lib/\libhandlers-board.a(xtos-interrupt-enable.o)
 .debug_abbrev  0x00004b74       0x71 C:/usr/xtensa/XtDevTools/install/builds/RI-2021.6-win32/Py_210123_eval/xtensa-elf/arch/lib/\libhandlers-board.a(xtos-interrupt-disable.o)
 .debug_abbrev  0x00004be5       0x98 C:/usr/xtensa/XtDevTools/install/builds/RI-2021.6-win32/Py_210123_eval/xtensa-elf/arch/lib/\libhandlers-board.a(xtos-interrupt-clear.o)
 .debug_abbrev  0x00004c7d       0xce C:/usr/xtensa/XtDevTools/install/builds/RI-2021.6-win32/Py_210123_eval/xtensa-elf/arch/lib/\libhandlers-board.a(xtos-set-inthandler.o)
 .debug_abbrev  0x00004d4b       0x9a C:/usr/xtensa/XtDevTools/install/builds/RI-2021.6-win32/Py_210123_eval/xtensa-elf/arch/lib/\libhandlers-board.a(xtos-set-exchandler.o)
 .debug_abbrev  0x00004de5       0x14 C:/usr/xtensa/XtDevTools/install/builds/RI-2021.6-win32/Py_210123_eval/xtensa-elf/arch/lib/\libhandlers-board.a(exc-syscall-handler.o)
 .debug_abbrev  0x00004df9       0x14 C:/usr/xtensa/XtDevTools/install/builds/RI-2021.6-win32/Py_210123_eval/xtensa-elf/arch/lib/\libhandlers-board.a(exc-table.o)
 .debug_abbrev  0x00004e0d       0x14 C:/usr/xtensa/XtDevTools/install/builds/RI-2021.6-win32/Py_210123_eval/xtensa-elf/arch/lib/\libhandlers-board.a(interrupt-table.o)
 .debug_abbrev  0x00004e21       0x14 C:/usr/xtensa/XtDevTools/install/builds/RI-2021.6-win32/Py_210123_eval/xtensa-elf/arch/lib/\libhandlers-board.a(user-vector.o)
 .debug_abbrev  0x00004e35       0x14 C:/usr/xtensa/XtDevTools/install/builds/RI-2021.6-win32/Py_210123_eval/xtensa-elf/arch/lib/\libhandlers-board.a(exc-c-wrapper-handler.o)
 .debug_abbrev  0x00004e49       0x14 C:/usr/xtensa/XtDevTools/install/builds/RI-2021.6-win32/Py_210123_eval/xtensa-elf/arch/lib/\libhandlers-board.a(exc-return.o)
 .debug_abbrev  0x00004e5d       0x14 C:/usr/xtensa/XtDevTools/install/builds/RI-2021.6-win32/Py_210123_eval/xtensa-elf/arch/lib/\libhandlers-board.a(int-lowpri-dispatcher.o)
 .debug_abbrev  0x00004e71       0x14 C:/usr/xtensa/XtDevTools/install/builds/RI-2021.6-win32/Py_210123_eval/xtensa-elf/arch/lib/\libhandlers-board.a(window-vectors.o)
 .debug_abbrev  0x00004e85       0x14 C:/usr/xtensa/XtDevTools/install/builds/RI-2021.6-win32/Py_210123_eval/xtensa-elf/arch/lib/\libhandlers-board.a(int-init-level1.o)
 .debug_abbrev  0x00004e99       0x14 C:/usr/xtensa/XtDevTools/install/builds/RI-2021.6-win32/Py_210123_eval/xtensa-elf/arch/lib/\libhandlers-board.a(int-init-level2.o)
 .debug_abbrev  0x00004ead       0x14 C:/usr/xtensa/XtDevTools/install/builds/RI-2021.6-win32/Py_210123_eval/xtensa-elf/arch/lib/\libhandlers-board.a(int-init-level3.o)
 .debug_abbrev  0x00004ec1       0x14 C:/usr/xtensa/XtDevTools/install/builds/RI-2021.6-win32/Py_210123_eval/xtensa-elf/arch/lib/\libhandlers-board.a(exc-unhandled.o)
 .debug_abbrev  0x00004ed5       0x14 C:/usr/xtensa/XtDevTools/install/builds/RI-2021.6-win32/Py_210123_eval/xtensa-elf/arch/lib/\libhandlers-board.a(int-vector-level2.o)
 .debug_abbrev  0x00004ee9       0x14 C:/usr/xtensa/XtDevTools/install/builds/RI-2021.6-win32/Py_210123_eval/xtensa-elf/arch/lib/\libhandlers-board.a(int-vector-level3.o)
 .debug_abbrev  0x00004efd       0x14 C:/usr/xtensa/XtDevTools/install/builds/RI-2021.6-win32/Py_210123_eval/xtensa-elf/arch/lib/\libhandlers-board.a(int-handler-level2.o)
 .debug_abbrev  0x00004f11       0x14 C:/usr/xtensa/XtDevTools/install/builds/RI-2021.6-win32/Py_210123_eval/xtensa-elf/arch/lib/\libhandlers-board.a(int-handler-level3.o)
 .debug_abbrev  0x00004f25       0x14 C:/usr/xtensa/XtDevTools/install/builds/RI-2021.6-win32/Py_210123_eval/xtensa-elf/arch/lib/\libhandlers-board.a(debug-vector.o)
 .debug_abbrev  0x00004f39       0x14 C:/usr/xtensa/XtDevTools/install/builds/RI-2021.6-win32/Py_210123_eval/xtensa-elf/arch/lib/\libhandlers-board.a(double-vector.o)
 .debug_abbrev  0x00004f4d       0x14 C:/usr/xtensa/XtDevTools/install/builds/RI-2021.6-win32/Py_210123_eval/xtensa-elf/arch/lib/\libhandlers-board.a(kernel-vector.o)
 .debug_abbrev  0x00004f61       0x5b C:/usr/xtensa/XtDevTools/install/builds/RI-2021.6-win32/Py_210123_eval/xtensa-elf/arch/lib/\libhal.a(const--intlevel.o)

.debug_line     0x00000000    0x11eea
 *(.debug_line)
 .debug_line    0x00000000       0xe3 C:/usr/xtensa/XtDevTools/install/builds/RI-2021.6-win32/Py_210123_eval/xtensa-elf/arch/lib/crt1-tiny.o
 .debug_line    0x000000e3      0x1ce D:/PYRAMID_SW/dsp_trunk/tags/Sphinx_0p2/testing_app/system_integration/bin/Py_210123_eval/Release/dsp_verification.o
 .debug_line    0x000002b1      0x1b1 D:/PYRAMID_SW/dsp_trunk/tags/Sphinx_0p2/testing_app/system_integration/bin/Py_210123_eval/Release/main.o
 .debug_line    0x00000462      0x230 D:/PYRAMID_SW/dsp_trunk/tags/Sphinx_0p2/testing_app/system_integration/bin/Py_210123_eval/Release/src/dsp_bootloader.o
 .debug_line    0x00000692      0xfcb D:/PYRAMID_SW/dsp_trunk/tags/Sphinx_0p2/testing_app/system_integration/bin/Py_210123_eval/Release/src/dsp_cli_nfca_rx.o
 .debug_line    0x0000165d      0xde0 D:/PYRAMID_SW/dsp_trunk/tags/Sphinx_0p2/testing_app/system_integration/bin/Py_210123_eval/Release/src/dsp_cli_nfca_tx.o
 .debug_line    0x0000243d      0x6d7 D:/PYRAMID_SW/dsp_trunk/tags/Sphinx_0p2/testing_app/system_integration/bin/Py_210123_eval/Release/src/dsp_cli_nfcb_rx.o
 .debug_line    0x00002b14      0x5d4 D:/PYRAMID_SW/dsp_trunk/tags/Sphinx_0p2/testing_app/system_integration/bin/Py_210123_eval/Release/src/dsp_cli_nfcb_tx.o
 .debug_line    0x000030e8      0xa6f D:/PYRAMID_SW/dsp_trunk/tags/Sphinx_0p2/testing_app/system_integration/bin/Py_210123_eval/Release/src/dsp_cli_nfcf_rx.o
 .debug_line    0x00003b57      0x662 D:/PYRAMID_SW/dsp_trunk/tags/Sphinx_0p2/testing_app/system_integration/bin/Py_210123_eval/Release/src/dsp_cli_nfcf_tx.o
 .debug_line    0x000041b9      0x4d7 D:/PYRAMID_SW/dsp_trunk/tags/Sphinx_0p2/testing_app/system_integration/bin/Py_210123_eval/Release/src/dsp_cli_nfcv_rx.o
 .debug_line    0x00004690      0x4e8 D:/PYRAMID_SW/dsp_trunk/tags/Sphinx_0p2/testing_app/system_integration/bin/Py_210123_eval/Release/src/dsp_cli_nfcv_tx.o
 .debug_line    0x00004b78      0x4be D:/PYRAMID_SW/dsp_trunk/tags/Sphinx_0p2/testing_app/system_integration/bin/Py_210123_eval/Release/src/dsp_cli_rx.o
 .debug_line    0x00005036      0x77b D:/PYRAMID_SW/dsp_trunk/tags/Sphinx_0p2/testing_app/system_integration/bin/Py_210123_eval/Release/src/dsp_cli_tx.o
 .debug_line    0x000057b1      0x1c8 D:/PYRAMID_SW/dsp_trunk/tags/Sphinx_0p2/testing_app/system_integration/bin/Py_210123_eval/Release/src/dsp_cli_utils.o
 .debug_line    0x00005979       0x5f D:/PYRAMID_SW/dsp_trunk/tags/Sphinx_0p2/testing_app/system_integration/bin/Py_210123_eval/Release/src/dsp_cli_wind_lut.o
 .debug_line    0x000059d8      0x228 D:/PYRAMID_SW/dsp_trunk/tags/Sphinx_0p2/testing_app/system_integration/bin/Py_210123_eval/Release/src/dsp_evnt_mngr.o
 .debug_line    0x00005c00      0x31e D:/PYRAMID_SW/dsp_trunk/tags/Sphinx_0p2/testing_app/system_integration/bin/Py_210123_eval/Release/src/dsp_hal.o
 .debug_line    0x00005f1e       0x9a D:/PYRAMID_SW/dsp_trunk/tags/Sphinx_0p2/testing_app/system_integration/bin/Py_210123_eval/Release/src/dsp_hal_activetop.o
 .debug_line    0x00005fb8      0x80c D:/PYRAMID_SW/dsp_trunk/tags/Sphinx_0p2/testing_app/system_integration/bin/Py_210123_eval/Release/src/dsp_hal_cli_top.o
 .debug_line    0x000067c4      0x1ac D:/PYRAMID_SW/dsp_trunk/tags/Sphinx_0p2/testing_app/system_integration/bin/Py_210123_eval/Release/src/dsp_hal_dsp_top.o
 .debug_line    0x00006970      0x1fd D:/PYRAMID_SW/dsp_trunk/tags/Sphinx_0p2/testing_app/system_integration/bin/Py_210123_eval/Release/src/dsp_hal_fifo.o
 .debug_line    0x00006b6d      0x30a D:/PYRAMID_SW/dsp_trunk/tags/Sphinx_0p2/testing_app/system_integration/bin/Py_210123_eval/Release/src/dsp_hal_hmb.o
 .debug_line    0x00006e77      0x20f D:/PYRAMID_SW/dsp_trunk/tags/Sphinx_0p2/testing_app/system_integration/bin/Py_210123_eval/Release/src/dsp_hal_intr.o
 .debug_line    0x00007086      0x2ae D:/PYRAMID_SW/dsp_trunk/tags/Sphinx_0p2/testing_app/system_integration/bin/Py_210123_eval/Release/src/dsp_hal_mdm_top.o
 .debug_line    0x00007334      0x1ef D:/PYRAMID_SW/dsp_trunk/tags/Sphinx_0p2/testing_app/system_integration/bin/Py_210123_eval/Release/src/dsp_hal_sml1_top.o
 .debug_line    0x00007523      0x419 D:/PYRAMID_SW/dsp_trunk/tags/Sphinx_0p2/testing_app/system_integration/bin/Py_210123_eval/Release/src/dsp_hal_sml3.o
 .debug_line    0x0000793c      0x4c8 D:/PYRAMID_SW/dsp_trunk/tags/Sphinx_0p2/testing_app/system_integration/bin/Py_210123_eval/Release/src/dsp_hal_timer.o
 .debug_line    0x00007e04      0x4ac D:/PYRAMID_SW/dsp_trunk/tags/Sphinx_0p2/testing_app/system_integration/bin/Py_210123_eval/Release/src/dsp_intr_hndlr.o
 .debug_line    0x000082b0      0x2c5 D:/PYRAMID_SW/dsp_trunk/tags/Sphinx_0p2/testing_app/system_integration/bin/Py_210123_eval/Release/src/dsp_logs.o
 .debug_line    0x00008575      0x1aa D:/PYRAMID_SW/dsp_trunk/tags/Sphinx_0p2/testing_app/system_integration/bin/Py_210123_eval/Release/src/dsp_m0_common.o
 .debug_line    0x0000871f      0x621 D:/PYRAMID_SW/dsp_trunk/tags/Sphinx_0p2/testing_app/system_integration/bin/Py_210123_eval/Release/src/dsp_mngr.o
 .debug_line    0x00008d40      0x363 D:/PYRAMID_SW/dsp_trunk/tags/Sphinx_0p2/testing_app/system_integration/bin/Py_210123_eval/Release/src/dsp_sml0_apc.o
 .debug_line    0x000090a3      0x191 D:/PYRAMID_SW/dsp_trunk/tags/Sphinx_0p2/testing_app/system_integration/bin/Py_210123_eval/Release/src/dsp_sml0_lmac.o
 .debug_line    0x00009234      0x26b D:/PYRAMID_SW/dsp_trunk/tags/Sphinx_0p2/testing_app/system_integration/bin/Py_210123_eval/Release/src/dsp_sml1.o
 .debug_line    0x0000949f      0x6c7 D:/PYRAMID_SW/dsp_trunk/tags/Sphinx_0p2/testing_app/system_integration/bin/Py_210123_eval/Release/src/dsp_sml1_dyn_reg.o
 .debug_line    0x00009b66      0x653 D:/PYRAMID_SW/dsp_trunk/tags/Sphinx_0p2/testing_app/system_integration/bin/Py_210123_eval/Release/src/dsp_sml1_pcm.o
 .debug_line    0x0000a1b9      0x175 D:/PYRAMID_SW/dsp_trunk/tags/Sphinx_0p2/testing_app/system_integration/bin/Py_210123_eval/Release/src/dsp_sml1_pcm_dyn_reg_lut.o
 .debug_line    0x0000a32e     0x1077 D:/PYRAMID_SW/dsp_trunk/tags/Sphinx_0p2/testing_app/system_integration/bin/Py_210123_eval/Release/src/dsp_sml1_pcm_listener.o
 .debug_line    0x0000b3a5      0xe54 D:/PYRAMID_SW/dsp_trunk/tags/Sphinx_0p2/testing_app/system_integration/bin/Py_210123_eval/Release/src/dsp_sml1_pcm_listener_user_ta.o
 .debug_line    0x0000c1f9      0xf15 D:/PYRAMID_SW/dsp_trunk/tags/Sphinx_0p2/testing_app/system_integration/bin/Py_210123_eval/Release/src/dsp_sml1_pcm_poller.o
 .debug_line    0x0000d10e     0x1883 D:/PYRAMID_SW/dsp_trunk/tags/Sphinx_0p2/testing_app/system_integration/bin/Py_210123_eval/Release/src/dsp_sml1_pcm_poller_user_ta.o
 .debug_line    0x0000e991      0x171 D:/PYRAMID_SW/dsp_trunk/tags/Sphinx_0p2/testing_app/system_integration/bin/Py_210123_eval/Release/src/dsp_sml1_user_ta_lut.o
 .debug_line    0x0000eb02      0x18f D:/PYRAMID_SW/dsp_trunk/tags/Sphinx_0p2/testing_app/system_integration/bin/Py_210123_eval/Release/test_10_loopbck_nfcv_rw.o
 .debug_line    0x0000ec91      0x192 D:/PYRAMID_SW/dsp_trunk/tags/Sphinx_0p2/testing_app/system_integration/bin/Py_210123_eval/Release/test_1_loopbck_nfcf_rw_std.o
 .debug_line    0x0000ee23      0x18e D:/PYRAMID_SW/dsp_trunk/tags/Sphinx_0p2/testing_app/system_integration/bin/Py_210123_eval/Release/test_2_loopbck_nfcf_ce.o
 .debug_line    0x0000efb1      0x192 D:/PYRAMID_SW/dsp_trunk/tags/Sphinx_0p2/testing_app/system_integration/bin/Py_210123_eval/Release/test_3_loopbck_nfca_rw_std.o
 .debug_line    0x0000f143      0x18e D:/PYRAMID_SW/dsp_trunk/tags/Sphinx_0p2/testing_app/system_integration/bin/Py_210123_eval/Release/test_4_loopbck_nfca_ce.o
 .debug_line    0x0000f2d1      0x192 D:/PYRAMID_SW/dsp_trunk/tags/Sphinx_0p2/testing_app/system_integration/bin/Py_210123_eval/Release/test_5_loopbck_nfca_rw_sdd.o
 .debug_line    0x0000f463      0x197 D:/PYRAMID_SW/dsp_trunk/tags/Sphinx_0p2/testing_app/system_integration/bin/Py_210123_eval/Release/test_6_loopbck_nfca_ce_swp_intf.o
 .debug_line    0x0000f5fa      0x18e D:/PYRAMID_SW/dsp_trunk/tags/Sphinx_0p2/testing_app/system_integration/bin/Py_210123_eval/Release/test_7_loopbck_nfcb_rw.o
 .debug_line    0x0000f788      0x18e D:/PYRAMID_SW/dsp_trunk/tags/Sphinx_0p2/testing_app/system_integration/bin/Py_210123_eval/Release/test_8_loopbck_nfcb_ce.o
 .debug_line    0x0000f916      0x192 D:/PYRAMID_SW/dsp_trunk/tags/Sphinx_0p2/testing_app/system_integration/bin/Py_210123_eval/Release/test_9_loopbck_nfca_rw_t1t.o
 .debug_line    0x0000faa8      0x188 D:/PYRAMID_SW/dsp_trunk/tags/Sphinx_0p2/testing_app/system_integration/bin/Py_210123_eval/Release/test_integration.o
 .debug_line    0x0000fc30      0x123 C:/usr/xtensa/XtDevTools/install/builds/RI-2021.6-win32/Py_210123_eval/xtensa-elf/lib/xcc/\libgcc.a(_udivsi3.o)
 .debug_line    0x0000fd53      0x17d C:/usr/xtensa/XtDevTools/install/builds/RI-2021.6-win32/Py_210123_eval/xtensa-elf/arch/lib/\libhandler-reset-unpack.a(reset-vector-unpack.o)
 .debug_line    0x0000fed0      0x20c C:/usr/xtensa/XtDevTools/install/builds/RI-2021.6-win32/Py_210123_eval/xtensa-elf/arch/lib/\libhandlers-board.a(xtos-interrupt-enable.o)
 .debug_line    0x000100dc      0x20f C:/usr/xtensa/XtDevTools/install/builds/RI-2021.6-win32/Py_210123_eval/xtensa-elf/arch/lib/\libhandlers-board.a(xtos-interrupt-disable.o)
 .debug_line    0x000102eb      0x236 C:/usr/xtensa/XtDevTools/install/builds/RI-2021.6-win32/Py_210123_eval/xtensa-elf/arch/lib/\libhandlers-board.a(xtos-interrupt-clear.o)
 .debug_line    0x00010521      0x27b C:/usr/xtensa/XtDevTools/install/builds/RI-2021.6-win32/Py_210123_eval/xtensa-elf/arch/lib/\libhandlers-board.a(xtos-set-inthandler.o)
 .debug_line    0x0001079c      0x258 C:/usr/xtensa/XtDevTools/install/builds/RI-2021.6-win32/Py_210123_eval/xtensa-elf/arch/lib/\libhandlers-board.a(xtos-set-exchandler.o)
 .debug_line    0x000109f4      0x1b8 C:/usr/xtensa/XtDevTools/install/builds/RI-2021.6-win32/Py_210123_eval/xtensa-elf/arch/lib/\libhandlers-board.a(exc-syscall-handler.o)
 .debug_line    0x00010bac       0x93 C:/usr/xtensa/XtDevTools/install/builds/RI-2021.6-win32/Py_210123_eval/xtensa-elf/arch/lib/\libhandlers-board.a(exc-table.o)
 .debug_line    0x00010c3f       0xa0 C:/usr/xtensa/XtDevTools/install/builds/RI-2021.6-win32/Py_210123_eval/xtensa-elf/arch/lib/\libhandlers-board.a(interrupt-table.o)
 .debug_line    0x00010cdf       0xbf C:/usr/xtensa/XtDevTools/install/builds/RI-2021.6-win32/Py_210123_eval/xtensa-elf/arch/lib/\libhandlers-board.a(user-vector.o)
 .debug_line    0x00010d9e      0x1ae C:/usr/xtensa/XtDevTools/install/builds/RI-2021.6-win32/Py_210123_eval/xtensa-elf/arch/lib/\libhandlers-board.a(exc-c-wrapper-handler.o)
 .debug_line    0x00010f4c       0xc5 C:/usr/xtensa/XtDevTools/install/builds/RI-2021.6-win32/Py_210123_eval/xtensa-elf/arch/lib/\libhandlers-board.a(exc-return.o)
 .debug_line    0x00011011      0x270 C:/usr/xtensa/XtDevTools/install/builds/RI-2021.6-win32/Py_210123_eval/xtensa-elf/arch/lib/\libhandlers-board.a(int-lowpri-dispatcher.o)
 .debug_line    0x00011281      0x267 C:/usr/xtensa/XtDevTools/install/builds/RI-2021.6-win32/Py_210123_eval/xtensa-elf/arch/lib/\libhandlers-board.a(window-vectors.o)
 .debug_line    0x000114e8       0x97 C:/usr/xtensa/XtDevTools/install/builds/RI-2021.6-win32/Py_210123_eval/xtensa-elf/arch/lib/\libhandlers-board.a(int-init-level1.o)
 .debug_line    0x0001157f       0x97 C:/usr/xtensa/XtDevTools/install/builds/RI-2021.6-win32/Py_210123_eval/xtensa-elf/arch/lib/\libhandlers-board.a(int-init-level2.o)
 .debug_line    0x00011616       0x97 C:/usr/xtensa/XtDevTools/install/builds/RI-2021.6-win32/Py_210123_eval/xtensa-elf/arch/lib/\libhandlers-board.a(int-init-level3.o)
 .debug_line    0x000116ad       0xa9 C:/usr/xtensa/XtDevTools/install/builds/RI-2021.6-win32/Py_210123_eval/xtensa-elf/arch/lib/\libhandlers-board.a(exc-unhandled.o)
 .debug_line    0x00011756       0x94 C:/usr/xtensa/XtDevTools/install/builds/RI-2021.6-win32/Py_210123_eval/xtensa-elf/arch/lib/\libhandlers-board.a(int-vector-level2.o)
 .debug_line    0x000117ea       0x94 C:/usr/xtensa/XtDevTools/install/builds/RI-2021.6-win32/Py_210123_eval/xtensa-elf/arch/lib/\libhandlers-board.a(int-vector-level3.o)
 .debug_line    0x0001187e      0x1d8 C:/usr/xtensa/XtDevTools/install/builds/RI-2021.6-win32/Py_210123_eval/xtensa-elf/arch/lib/\libhandlers-board.a(int-handler-level2.o)
 .debug_line    0x00011a56      0x1d2 C:/usr/xtensa/XtDevTools/install/builds/RI-2021.6-win32/Py_210123_eval/xtensa-elf/arch/lib/\libhandlers-board.a(int-handler-level3.o)
 .debug_line    0x00011c28       0xa2 C:/usr/xtensa/XtDevTools/install/builds/RI-2021.6-win32/Py_210123_eval/xtensa-elf/arch/lib/\libhandlers-board.a(debug-vector.o)
 .debug_line    0x00011cca       0x92 C:/usr/xtensa/XtDevTools/install/builds/RI-2021.6-win32/Py_210123_eval/xtensa-elf/arch/lib/\libhandlers-board.a(double-vector.o)
 .debug_line    0x00011d5c       0x98 C:/usr/xtensa/XtDevTools/install/builds/RI-2021.6-win32/Py_210123_eval/xtensa-elf/arch/lib/\libhandlers-board.a(kernel-vector.o)
 .debug_line    0x00011df4       0xf6 C:/usr/xtensa/XtDevTools/install/builds/RI-2021.6-win32/Py_210123_eval/xtensa-elf/arch/lib/\libhal.a(const--intlevel.o)

.debug_frame    0x00000000       0xc8
 *(.debug_frame)
 .debug_frame   0x00000000       0x28 C:/usr/xtensa/XtDevTools/install/builds/RI-2021.6-win32/Py_210123_eval/xtensa-elf/arch/lib/\libhandlers-board.a(xtos-interrupt-enable.o)
 .debug_frame   0x00000028       0x28 C:/usr/xtensa/XtDevTools/install/builds/RI-2021.6-win32/Py_210123_eval/xtensa-elf/arch/lib/\libhandlers-board.a(xtos-interrupt-disable.o)
 .debug_frame   0x00000050       0x28 C:/usr/xtensa/XtDevTools/install/builds/RI-2021.6-win32/Py_210123_eval/xtensa-elf/arch/lib/\libhandlers-board.a(xtos-interrupt-clear.o)
 .debug_frame   0x00000078       0x28 C:/usr/xtensa/XtDevTools/install/builds/RI-2021.6-win32/Py_210123_eval/xtensa-elf/arch/lib/\libhandlers-board.a(xtos-set-inthandler.o)
 .debug_frame   0x000000a0       0x28 C:/usr/xtensa/XtDevTools/install/builds/RI-2021.6-win32/Py_210123_eval/xtensa-elf/arch/lib/\libhandlers-board.a(xtos-set-exchandler.o)

.debug_str      0x00000000      0x47c
 *(.debug_str)
 .debug_str     0x00000000      0x133 C:/usr/xtensa/XtDevTools/install/builds/RI-2021.6-win32/Py_210123_eval/xtensa-elf/arch/lib/\libhandlers-board.a(xtos-interrupt-enable.o)
                                        0x13f (size before relaxing)
 .debug_str     0x00000133       0x7c C:/usr/xtensa/XtDevTools/install/builds/RI-2021.6-win32/Py_210123_eval/xtensa-elf/arch/lib/\libhandlers-board.a(xtos-interrupt-disable.o)
                                        0x141 (size before relaxing)
 .debug_str     0x000001af       0x8e C:/usr/xtensa/XtDevTools/install/builds/RI-2021.6-win32/Py_210123_eval/xtensa-elf/arch/lib/\libhandlers-board.a(xtos-interrupt-clear.o)
                                        0x146 (size before relaxing)
 .debug_str     0x0000023d       0xd2 C:/usr/xtensa/XtDevTools/install/builds/RI-2021.6-win32/Py_210123_eval/xtensa-elf/arch/lib/\libhandlers-board.a(xtos-set-inthandler.o)
                                        0x192 (size before relaxing)
 .debug_str     0x0000030f       0x8a C:/usr/xtensa/XtDevTools/install/builds/RI-2021.6-win32/Py_210123_eval/xtensa-elf/arch/lib/\libhandlers-board.a(xtos-set-exchandler.o)
                                        0x168 (size before relaxing)
 .debug_str     0x00000399       0xe3 C:/usr/xtensa/XtDevTools/install/builds/RI-2021.6-win32/Py_210123_eval/xtensa-elf/arch/lib/\libhal.a(const--intlevel.o)
                                        0x10b (size before relaxing)

.debug_loc      0x00000000      0x16a
 *(.debug_loc)
 .debug_loc     0x00000000       0x4f C:/usr/xtensa/XtDevTools/install/builds/RI-2021.6-win32/Py_210123_eval/xtensa-elf/arch/lib/\libhandlers-board.a(xtos-interrupt-enable.o)
 .debug_loc     0x0000004f       0x44 C:/usr/xtensa/XtDevTools/install/builds/RI-2021.6-win32/Py_210123_eval/xtensa-elf/arch/lib/\libhandlers-board.a(xtos-interrupt-disable.o)
 .debug_loc     0x00000093       0x31 C:/usr/xtensa/XtDevTools/install/builds/RI-2021.6-win32/Py_210123_eval/xtensa-elf/arch/lib/\libhandlers-board.a(xtos-interrupt-clear.o)
 .debug_loc     0x000000c4       0x44 C:/usr/xtensa/XtDevTools/install/builds/RI-2021.6-win32/Py_210123_eval/xtensa-elf/arch/lib/\libhandlers-board.a(xtos-set-inthandler.o)
 .debug_loc     0x00000108       0x62 C:/usr/xtensa/XtDevTools/install/builds/RI-2021.6-win32/Py_210123_eval/xtensa-elf/arch/lib/\libhandlers-board.a(xtos-set-exchandler.o)

.debug_macinfo
 *(.debug_macinfo)

.debug_weaknames
 *(.debug_weaknames)

.debug_funcnames
 *(.debug_funcnames)

.debug_typenames
 *(.debug_typenames)

.debug_varnames
 *(.debug_varnames)

.xt.insn
 *(.xt.insn)
 *(.gnu.linkonce.x.*)

.xt.prop        0x00000000     0xb154
 *(.xt.prop)
 .xt.prop       0x00000000       0x48 C:/usr/xtensa/XtDevTools/install/builds/RI-2021.6-win32/Py_210123_eval/xtensa-elf/arch/lib/crt1-tiny.o
 .xt.prop       0x00000048       0x6c D:/PYRAMID_SW/dsp_trunk/tags/Sphinx_0p2/testing_app/system_integration/bin/Py_210123_eval/Release/dsp_verification.o
                                         0x9c (size before relaxing)
 .xt.prop       0x000000b4       0x3c D:/PYRAMID_SW/dsp_trunk/tags/Sphinx_0p2/testing_app/system_integration/bin/Py_210123_eval/Release/main.o
 .xt.prop       0x000000f0       0xcc D:/PYRAMID_SW/dsp_trunk/tags/Sphinx_0p2/testing_app/system_integration/bin/Py_210123_eval/Release/src/dsp_bootloader.o
                                         0xd8 (size before relaxing)
 .xt.prop       0x000001bc      0xdc8 D:/PYRAMID_SW/dsp_trunk/tags/Sphinx_0p2/testing_app/system_integration/bin/Py_210123_eval/Release/src/dsp_cli_nfca_rx.o
                                        0xe70 (size before relaxing)
 .xt.prop       0x00000f84      0xc9c D:/PYRAMID_SW/dsp_trunk/tags/Sphinx_0p2/testing_app/system_integration/bin/Py_210123_eval/Release/src/dsp_cli_nfca_tx.o
                                        0xccc (size before relaxing)
 .xt.prop       0x00001c20      0x618 D:/PYRAMID_SW/dsp_trunk/tags/Sphinx_0p2/testing_app/system_integration/bin/Py_210123_eval/Release/src/dsp_cli_nfcb_rx.o
                                        0x624 (size before relaxing)
 .xt.prop       0x00002238      0x5ac D:/PYRAMID_SW/dsp_trunk/tags/Sphinx_0p2/testing_app/system_integration/bin/Py_210123_eval/Release/src/dsp_cli_nfcb_tx.o
 .xt.prop       0x000027e4      0x8dc D:/PYRAMID_SW/dsp_trunk/tags/Sphinx_0p2/testing_app/system_integration/bin/Py_210123_eval/Release/src/dsp_cli_nfcf_rx.o
 .xt.prop       0x000030c0      0x720 D:/PYRAMID_SW/dsp_trunk/tags/Sphinx_0p2/testing_app/system_integration/bin/Py_210123_eval/Release/src/dsp_cli_nfcf_tx.o
 .xt.prop       0x000037e0      0x480 D:/PYRAMID_SW/dsp_trunk/tags/Sphinx_0p2/testing_app/system_integration/bin/Py_210123_eval/Release/src/dsp_cli_nfcv_rx.o
                                        0x48c (size before relaxing)
 .xt.prop       0x00003c60      0x408 D:/PYRAMID_SW/dsp_trunk/tags/Sphinx_0p2/testing_app/system_integration/bin/Py_210123_eval/Release/src/dsp_cli_nfcv_tx.o
 .xt.prop       0x00004068      0x3cc D:/PYRAMID_SW/dsp_trunk/tags/Sphinx_0p2/testing_app/system_integration/bin/Py_210123_eval/Release/src/dsp_cli_rx.o
 .xt.prop       0x00004434      0x438 D:/PYRAMID_SW/dsp_trunk/tags/Sphinx_0p2/testing_app/system_integration/bin/Py_210123_eval/Release/src/dsp_cli_tx.o
                                        0x45c (size before relaxing)
 .xt.prop       0x0000486c       0x60 D:/PYRAMID_SW/dsp_trunk/tags/Sphinx_0p2/testing_app/system_integration/bin/Py_210123_eval/Release/src/dsp_cli_utils.o
                                         0x84 (size before relaxing)
 .xt.prop       0x000048cc      0x108 D:/PYRAMID_SW/dsp_trunk/tags/Sphinx_0p2/testing_app/system_integration/bin/Py_210123_eval/Release/src/dsp_cli_wind_lut.o
                                        0x138 (size before relaxing)
 .xt.prop       0x000049d4       0x9c D:/PYRAMID_SW/dsp_trunk/tags/Sphinx_0p2/testing_app/system_integration/bin/Py_210123_eval/Release/src/dsp_evnt_mngr.o
                                         0xa8 (size before relaxing)
 .xt.prop       0x00004a70      0x204 D:/PYRAMID_SW/dsp_trunk/tags/Sphinx_0p2/testing_app/system_integration/bin/Py_210123_eval/Release/src/dsp_hal.o
 .xt.prop       0x00004c74       0x48 D:/PYRAMID_SW/dsp_trunk/tags/Sphinx_0p2/testing_app/system_integration/bin/Py_210123_eval/Release/src/dsp_hal_activetop.o
 .xt.prop       0x00004cbc      0x564 D:/PYRAMID_SW/dsp_trunk/tags/Sphinx_0p2/testing_app/system_integration/bin/Py_210123_eval/Release/src/dsp_hal_cli_top.o
                                        0x594 (size before relaxing)
 .xt.prop       0x00005220       0x3c D:/PYRAMID_SW/dsp_trunk/tags/Sphinx_0p2/testing_app/system_integration/bin/Py_210123_eval/Release/src/dsp_hal_dsp_top.o
                                         0x48 (size before relaxing)
 .xt.prop       0x0000525c       0xcc D:/PYRAMID_SW/dsp_trunk/tags/Sphinx_0p2/testing_app/system_integration/bin/Py_210123_eval/Release/src/dsp_hal_fifo.o
                                         0xd8 (size before relaxing)
 .xt.prop       0x00005328      0x234 D:/PYRAMID_SW/dsp_trunk/tags/Sphinx_0p2/testing_app/system_integration/bin/Py_210123_eval/Release/src/dsp_hal_hmb.o
 .xt.prop       0x0000555c       0x9c D:/PYRAMID_SW/dsp_trunk/tags/Sphinx_0p2/testing_app/system_integration/bin/Py_210123_eval/Release/src/dsp_hal_intr.o
                                         0xa8 (size before relaxing)
 .xt.prop       0x000055f8       0x84 D:/PYRAMID_SW/dsp_trunk/tags/Sphinx_0p2/testing_app/system_integration/bin/Py_210123_eval/Release/src/dsp_hal_mdm_top.o
 .xt.prop       0x0000567c       0xcc D:/PYRAMID_SW/dsp_trunk/tags/Sphinx_0p2/testing_app/system_integration/bin/Py_210123_eval/Release/src/dsp_hal_sml1_top.o
                                         0xd8 (size before relaxing)
 .xt.prop       0x00005748      0x324 D:/PYRAMID_SW/dsp_trunk/tags/Sphinx_0p2/testing_app/system_integration/bin/Py_210123_eval/Release/src/dsp_hal_sml3.o
                                        0x39c (size before relaxing)
 .xt.prop       0x00005a6c      0x24c D:/PYRAMID_SW/dsp_trunk/tags/Sphinx_0p2/testing_app/system_integration/bin/Py_210123_eval/Release/src/dsp_hal_timer.o
                                        0x294 (size before relaxing)
 .xt.prop       0x00005cb8      0x258 D:/PYRAMID_SW/dsp_trunk/tags/Sphinx_0p2/testing_app/system_integration/bin/Py_210123_eval/Release/src/dsp_intr_hndlr.o
 .xt.prop       0x00005f10      0x108 D:/PYRAMID_SW/dsp_trunk/tags/Sphinx_0p2/testing_app/system_integration/bin/Py_210123_eval/Release/src/dsp_logs.o
                                        0x15c (size before relaxing)
 .xt.prop       0x00006018       0x6c D:/PYRAMID_SW/dsp_trunk/tags/Sphinx_0p2/testing_app/system_integration/bin/Py_210123_eval/Release/src/dsp_m0_common.o
                                         0xb4 (size before relaxing)
 .xt.prop       0x00006084      0x3a8 D:/PYRAMID_SW/dsp_trunk/tags/Sphinx_0p2/testing_app/system_integration/bin/Py_210123_eval/Release/src/dsp_mngr.o
                                        0x3f0 (size before relaxing)
 .xt.prop       0x0000642c      0x2d0 D:/PYRAMID_SW/dsp_trunk/tags/Sphinx_0p2/testing_app/system_integration/bin/Py_210123_eval/Release/src/dsp_sml0_apc.o
 .xt.prop       0x000066fc       0x24 D:/PYRAMID_SW/dsp_trunk/tags/Sphinx_0p2/testing_app/system_integration/bin/Py_210123_eval/Release/src/dsp_sml0_lmac.o
                                         0x3c (size before relaxing)
 .xt.prop       0x00006720      0x12c D:/PYRAMID_SW/dsp_trunk/tags/Sphinx_0p2/testing_app/system_integration/bin/Py_210123_eval/Release/src/dsp_sml1.o
                                        0x138 (size before relaxing)
 .xt.prop       0x0000684c      0x3c0 D:/PYRAMID_SW/dsp_trunk/tags/Sphinx_0p2/testing_app/system_integration/bin/Py_210123_eval/Release/src/dsp_sml1_dyn_reg.o
 .xt.prop       0x00006c0c      0x360 D:/PYRAMID_SW/dsp_trunk/tags/Sphinx_0p2/testing_app/system_integration/bin/Py_210123_eval/Release/src/dsp_sml1_pcm.o
 .xt.prop       0x00006f6c      0xc18 D:/PYRAMID_SW/dsp_trunk/tags/Sphinx_0p2/testing_app/system_integration/bin/Py_210123_eval/Release/src/dsp_sml1_pcm_dyn_reg_lut.o
                                        0xcf0 (size before relaxing)
 .xt.prop       0x00007b84      0x8d0 D:/PYRAMID_SW/dsp_trunk/tags/Sphinx_0p2/testing_app/system_integration/bin/Py_210123_eval/Release/src/dsp_sml1_pcm_listener.o
                                        0x8dc (size before relaxing)
 .xt.prop       0x00008454      0x930 D:/PYRAMID_SW/dsp_trunk/tags/Sphinx_0p2/testing_app/system_integration/bin/Py_210123_eval/Release/src/dsp_sml1_pcm_listener_user_ta.o
                                        0x93c (size before relaxing)
 .xt.prop       0x00008d84      0xb34 D:/PYRAMID_SW/dsp_trunk/tags/Sphinx_0p2/testing_app/system_integration/bin/Py_210123_eval/Release/src/dsp_sml1_pcm_poller.o
 .xt.prop       0x000098b8      0xf24 D:/PYRAMID_SW/dsp_trunk/tags/Sphinx_0p2/testing_app/system_integration/bin/Py_210123_eval/Release/src/dsp_sml1_pcm_poller_user_ta.o
                                        0xf48 (size before relaxing)
 .xt.prop       0x0000a7dc       0xb4 D:/PYRAMID_SW/dsp_trunk/tags/Sphinx_0p2/testing_app/system_integration/bin/Py_210123_eval/Release/src/dsp_sml1_user_ta_lut.o
                                         0xcc (size before relaxing)
 .xt.prop       0x0000a890       0x9c C:/usr/xtensa/XtDevTools/install/builds/RI-2021.6-win32/Py_210123_eval/xtensa-elf/lib/xcc/\libgcc.a(_udivsi3.o)
                                         0xa8 (size before relaxing)
 .xt.prop       0x0000a92c       0xcc C:/usr/xtensa/XtDevTools/install/builds/RI-2021.6-win32/Py_210123_eval/xtensa-elf/arch/lib/\libhandler-reset-unpack.a(reset-vector-unpack.o)
 .xt.prop       0x0000a9f8       0x54 C:/usr/xtensa/XtDevTools/install/builds/RI-2021.6-win32/Py_210123_eval/xtensa-elf/arch/lib/\libhandlers-board.a(xtos-interrupt-enable.o)
 .xt.prop       0x0000aa4c       0x48 C:/usr/xtensa/XtDevTools/install/builds/RI-2021.6-win32/Py_210123_eval/xtensa-elf/arch/lib/\libhandlers-board.a(xtos-interrupt-disable.o)
                                         0x54 (size before relaxing)
 .xt.prop       0x0000aa94       0x30 C:/usr/xtensa/XtDevTools/install/builds/RI-2021.6-win32/Py_210123_eval/xtensa-elf/arch/lib/\libhandlers-board.a(xtos-interrupt-clear.o)
 .xt.prop       0x0000aac4       0x84 C:/usr/xtensa/XtDevTools/install/builds/RI-2021.6-win32/Py_210123_eval/xtensa-elf/arch/lib/\libhandlers-board.a(xtos-set-inthandler.o)
 .xt.prop       0x0000ab48       0x6c C:/usr/xtensa/XtDevTools/install/builds/RI-2021.6-win32/Py_210123_eval/xtensa-elf/arch/lib/\libhandlers-board.a(xtos-set-exchandler.o)
 .xt.prop       0x0000abb4       0xd8 C:/usr/xtensa/XtDevTools/install/builds/RI-2021.6-win32/Py_210123_eval/xtensa-elf/arch/lib/\libhandlers-board.a(exc-syscall-handler.o)
 .xt.prop       0x0000ac8c       0x24 C:/usr/xtensa/XtDevTools/install/builds/RI-2021.6-win32/Py_210123_eval/xtensa-elf/arch/lib/\libhandlers-board.a(exc-table.o)
 .xt.prop       0x0000acb0       0x30 C:/usr/xtensa/XtDevTools/install/builds/RI-2021.6-win32/Py_210123_eval/xtensa-elf/arch/lib/\libhandlers-board.a(interrupt-table.o)
 .xt.prop       0x0000ace0       0x24 C:/usr/xtensa/XtDevTools/install/builds/RI-2021.6-win32/Py_210123_eval/xtensa-elf/arch/lib/\libhandlers-board.a(user-vector.o)
 .xt.prop       0x0000ad04       0x84 C:/usr/xtensa/XtDevTools/install/builds/RI-2021.6-win32/Py_210123_eval/xtensa-elf/arch/lib/\libhandlers-board.a(exc-c-wrapper-handler.o)
 .xt.prop       0x0000ad88       0x18 C:/usr/xtensa/XtDevTools/install/builds/RI-2021.6-win32/Py_210123_eval/xtensa-elf/arch/lib/\libhandlers-board.a(exc-return.o)
 .xt.prop       0x0000ada0       0xb4 C:/usr/xtensa/XtDevTools/install/builds/RI-2021.6-win32/Py_210123_eval/xtensa-elf/arch/lib/\libhandlers-board.a(int-lowpri-dispatcher.o)
                                         0xc0 (size before relaxing)
 .xt.prop       0x0000ae54       0xc0 C:/usr/xtensa/XtDevTools/install/builds/RI-2021.6-win32/Py_210123_eval/xtensa-elf/arch/lib/\libhandlers-board.a(window-vectors.o)
                                         0xfc (size before relaxing)
 .xt.prop       0x0000af14       0x24 C:/usr/xtensa/XtDevTools/install/builds/RI-2021.6-win32/Py_210123_eval/xtensa-elf/arch/lib/\libhandlers-board.a(int-init-level1.o)
 .xt.prop       0x0000af38       0x24 C:/usr/xtensa/XtDevTools/install/builds/RI-2021.6-win32/Py_210123_eval/xtensa-elf/arch/lib/\libhandlers-board.a(int-init-level2.o)
 .xt.prop       0x0000af5c       0x24 C:/usr/xtensa/XtDevTools/install/builds/RI-2021.6-win32/Py_210123_eval/xtensa-elf/arch/lib/\libhandlers-board.a(int-init-level3.o)
 .xt.prop       0x0000af80       0x18 C:/usr/xtensa/XtDevTools/install/builds/RI-2021.6-win32/Py_210123_eval/xtensa-elf/arch/lib/\libhandlers-board.a(exc-unhandled.o)
 .xt.prop       0x0000af98       0x18 C:/usr/xtensa/XtDevTools/install/builds/RI-2021.6-win32/Py_210123_eval/xtensa-elf/arch/lib/\libhandlers-board.a(int-vector-level2.o)
 .xt.prop       0x0000afb0       0x18 C:/usr/xtensa/XtDevTools/install/builds/RI-2021.6-win32/Py_210123_eval/xtensa-elf/arch/lib/\libhandlers-board.a(int-vector-level3.o)
 .xt.prop       0x0000afc8       0x9c C:/usr/xtensa/XtDevTools/install/builds/RI-2021.6-win32/Py_210123_eval/xtensa-elf/arch/lib/\libhandlers-board.a(int-handler-level2.o)
 .xt.prop       0x0000b064       0x9c C:/usr/xtensa/XtDevTools/install/builds/RI-2021.6-win32/Py_210123_eval/xtensa-elf/arch/lib/\libhandlers-board.a(int-handler-level3.o)
 .xt.prop       0x0000b100       0x24 C:/usr/xtensa/XtDevTools/install/builds/RI-2021.6-win32/Py_210123_eval/xtensa-elf/arch/lib/\libhandlers-board.a(debug-vector.o)
 .xt.prop       0x0000b124       0x18 C:/usr/xtensa/XtDevTools/install/builds/RI-2021.6-win32/Py_210123_eval/xtensa-elf/arch/lib/\libhandlers-board.a(double-vector.o)
 .xt.prop       0x0000b13c       0x18 C:/usr/xtensa/XtDevTools/install/builds/RI-2021.6-win32/Py_210123_eval/xtensa-elf/arch/lib/\libhandlers-board.a(kernel-vector.o)
 *(.xt.prop.*)
 *(.gnu.linkonce.prop.*)

.xt.lit         0x00000000      0x150
 *(.xt.lit)
 .xt.lit        0x00000000        0x8 C:/usr/xtensa/XtDevTools/install/builds/RI-2021.6-win32/Py_210123_eval/xtensa-elf/arch/lib/crt1-tiny.o
 .xt.lit        0x00000008        0x8 D:/PYRAMID_SW/dsp_trunk/tags/Sphinx_0p2/testing_app/system_integration/bin/Py_210123_eval/Release/dsp_verification.o
 .xt.lit        0x00000010        0x8 D:/PYRAMID_SW/dsp_trunk/tags/Sphinx_0p2/testing_app/system_integration/bin/Py_210123_eval/Release/main.o
 .xt.lit        0x00000018        0x8 D:/PYRAMID_SW/dsp_trunk/tags/Sphinx_0p2/testing_app/system_integration/bin/Py_210123_eval/Release/src/dsp_bootloader.o
 .xt.lit        0x00000020        0x8 D:/PYRAMID_SW/dsp_trunk/tags/Sphinx_0p2/testing_app/system_integration/bin/Py_210123_eval/Release/src/dsp_cli_nfca_rx.o
 .xt.lit        0x00000028        0x8 D:/PYRAMID_SW/dsp_trunk/tags/Sphinx_0p2/testing_app/system_integration/bin/Py_210123_eval/Release/src/dsp_cli_nfca_tx.o
 .xt.lit        0x00000030        0x8 D:/PYRAMID_SW/dsp_trunk/tags/Sphinx_0p2/testing_app/system_integration/bin/Py_210123_eval/Release/src/dsp_cli_nfcb_rx.o
 .xt.lit        0x00000038        0x8 D:/PYRAMID_SW/dsp_trunk/tags/Sphinx_0p2/testing_app/system_integration/bin/Py_210123_eval/Release/src/dsp_cli_nfcb_tx.o
 .xt.lit        0x00000040        0x8 D:/PYRAMID_SW/dsp_trunk/tags/Sphinx_0p2/testing_app/system_integration/bin/Py_210123_eval/Release/src/dsp_cli_nfcf_rx.o
 .xt.lit        0x00000048        0x8 D:/PYRAMID_SW/dsp_trunk/tags/Sphinx_0p2/testing_app/system_integration/bin/Py_210123_eval/Release/src/dsp_cli_nfcf_tx.o
 .xt.lit        0x00000050        0x8 D:/PYRAMID_SW/dsp_trunk/tags/Sphinx_0p2/testing_app/system_integration/bin/Py_210123_eval/Release/src/dsp_cli_nfcv_rx.o
 .xt.lit        0x00000058        0x8 D:/PYRAMID_SW/dsp_trunk/tags/Sphinx_0p2/testing_app/system_integration/bin/Py_210123_eval/Release/src/dsp_cli_nfcv_tx.o
 .xt.lit        0x00000060        0x8 D:/PYRAMID_SW/dsp_trunk/tags/Sphinx_0p2/testing_app/system_integration/bin/Py_210123_eval/Release/src/dsp_cli_rx.o
 .xt.lit        0x00000068        0x8 D:/PYRAMID_SW/dsp_trunk/tags/Sphinx_0p2/testing_app/system_integration/bin/Py_210123_eval/Release/src/dsp_cli_tx.o
 .xt.lit        0x00000070        0x0 D:/PYRAMID_SW/dsp_trunk/tags/Sphinx_0p2/testing_app/system_integration/bin/Py_210123_eval/Release/src/dsp_cli_utils.o
                                          0x8 (size before relaxing)
 .xt.lit        0x00000070        0x8 D:/PYRAMID_SW/dsp_trunk/tags/Sphinx_0p2/testing_app/system_integration/bin/Py_210123_eval/Release/src/dsp_evnt_mngr.o
 .xt.lit        0x00000078        0x8 D:/PYRAMID_SW/dsp_trunk/tags/Sphinx_0p2/testing_app/system_integration/bin/Py_210123_eval/Release/src/dsp_hal.o
 .xt.lit        0x00000080        0x8 D:/PYRAMID_SW/dsp_trunk/tags/Sphinx_0p2/testing_app/system_integration/bin/Py_210123_eval/Release/src/dsp_hal_activetop.o
 .xt.lit        0x00000088        0x8 D:/PYRAMID_SW/dsp_trunk/tags/Sphinx_0p2/testing_app/system_integration/bin/Py_210123_eval/Release/src/dsp_hal_cli_top.o
 .xt.lit        0x00000090        0x0 D:/PYRAMID_SW/dsp_trunk/tags/Sphinx_0p2/testing_app/system_integration/bin/Py_210123_eval/Release/src/dsp_hal_dsp_top.o
                                          0x8 (size before relaxing)
 .xt.lit        0x00000090        0x0 D:/PYRAMID_SW/dsp_trunk/tags/Sphinx_0p2/testing_app/system_integration/bin/Py_210123_eval/Release/src/dsp_hal_fifo.o
                                          0x8 (size before relaxing)
 .xt.lit        0x00000090        0x8 D:/PYRAMID_SW/dsp_trunk/tags/Sphinx_0p2/testing_app/system_integration/bin/Py_210123_eval/Release/src/dsp_hal_hmb.o
 .xt.lit        0x00000098        0x8 D:/PYRAMID_SW/dsp_trunk/tags/Sphinx_0p2/testing_app/system_integration/bin/Py_210123_eval/Release/src/dsp_hal_mdm_top.o
 .xt.lit        0x000000a0        0x0 D:/PYRAMID_SW/dsp_trunk/tags/Sphinx_0p2/testing_app/system_integration/bin/Py_210123_eval/Release/src/dsp_hal_sml1_top.o
                                          0x8 (size before relaxing)
 .xt.lit        0x000000a0        0x8 D:/PYRAMID_SW/dsp_trunk/tags/Sphinx_0p2/testing_app/system_integration/bin/Py_210123_eval/Release/src/dsp_hal_sml3.o
 .xt.lit        0x000000a8        0x8 D:/PYRAMID_SW/dsp_trunk/tags/Sphinx_0p2/testing_app/system_integration/bin/Py_210123_eval/Release/src/dsp_hal_timer.o
 .xt.lit        0x000000b0        0x8 D:/PYRAMID_SW/dsp_trunk/tags/Sphinx_0p2/testing_app/system_integration/bin/Py_210123_eval/Release/src/dsp_intr_hndlr.o
 .xt.lit        0x000000b8        0x8 D:/PYRAMID_SW/dsp_trunk/tags/Sphinx_0p2/testing_app/system_integration/bin/Py_210123_eval/Release/src/dsp_logs.o
 .xt.lit        0x000000c0        0x8 D:/PYRAMID_SW/dsp_trunk/tags/Sphinx_0p2/testing_app/system_integration/bin/Py_210123_eval/Release/src/dsp_m0_common.o
 .xt.lit        0x000000c8        0x8 D:/PYRAMID_SW/dsp_trunk/tags/Sphinx_0p2/testing_app/system_integration/bin/Py_210123_eval/Release/src/dsp_mngr.o
 .xt.lit        0x000000d0        0x8 D:/PYRAMID_SW/dsp_trunk/tags/Sphinx_0p2/testing_app/system_integration/bin/Py_210123_eval/Release/src/dsp_sml0_apc.o
 .xt.lit        0x000000d8        0x0 D:/PYRAMID_SW/dsp_trunk/tags/Sphinx_0p2/testing_app/system_integration/bin/Py_210123_eval/Release/src/dsp_sml0_lmac.o
                                          0x8 (size before relaxing)
 .xt.lit        0x000000d8        0x0 D:/PYRAMID_SW/dsp_trunk/tags/Sphinx_0p2/testing_app/system_integration/bin/Py_210123_eval/Release/src/dsp_sml1.o
                                          0x8 (size before relaxing)
 .xt.lit        0x000000d8        0x8 D:/PYRAMID_SW/dsp_trunk/tags/Sphinx_0p2/testing_app/system_integration/bin/Py_210123_eval/Release/src/dsp_sml1_dyn_reg.o
 .xt.lit        0x000000e0        0x8 D:/PYRAMID_SW/dsp_trunk/tags/Sphinx_0p2/testing_app/system_integration/bin/Py_210123_eval/Release/src/dsp_sml1_pcm.o
 .xt.lit        0x000000e8        0x8 D:/PYRAMID_SW/dsp_trunk/tags/Sphinx_0p2/testing_app/system_integration/bin/Py_210123_eval/Release/src/dsp_sml1_pcm_listener.o
 .xt.lit        0x000000f0        0x8 D:/PYRAMID_SW/dsp_trunk/tags/Sphinx_0p2/testing_app/system_integration/bin/Py_210123_eval/Release/src/dsp_sml1_pcm_listener_user_ta.o
 .xt.lit        0x000000f8        0x8 D:/PYRAMID_SW/dsp_trunk/tags/Sphinx_0p2/testing_app/system_integration/bin/Py_210123_eval/Release/src/dsp_sml1_pcm_poller.o
 .xt.lit        0x00000100        0x8 D:/PYRAMID_SW/dsp_trunk/tags/Sphinx_0p2/testing_app/system_integration/bin/Py_210123_eval/Release/src/dsp_sml1_pcm_poller_user_ta.o
 .xt.lit        0x00000108        0x8 C:/usr/xtensa/XtDevTools/install/builds/RI-2021.6-win32/Py_210123_eval/xtensa-elf/arch/lib/\libhandler-reset-unpack.a(reset-vector-unpack.o)
 .xt.lit        0x00000110        0x8 C:/usr/xtensa/XtDevTools/install/builds/RI-2021.6-win32/Py_210123_eval/xtensa-elf/arch/lib/\libhandlers-board.a(xtos-interrupt-enable.o)
 .xt.lit        0x00000118        0x0 C:/usr/xtensa/XtDevTools/install/builds/RI-2021.6-win32/Py_210123_eval/xtensa-elf/arch/lib/\libhandlers-board.a(xtos-interrupt-disable.o)
                                          0x8 (size before relaxing)
 .xt.lit        0x00000118        0x8 C:/usr/xtensa/XtDevTools/install/builds/RI-2021.6-win32/Py_210123_eval/xtensa-elf/arch/lib/\libhandlers-board.a(xtos-set-inthandler.o)
 .xt.lit        0x00000120        0x8 C:/usr/xtensa/XtDevTools/install/builds/RI-2021.6-win32/Py_210123_eval/xtensa-elf/arch/lib/\libhandlers-board.a(xtos-set-exchandler.o)
 .xt.lit        0x00000128        0x8 C:/usr/xtensa/XtDevTools/install/builds/RI-2021.6-win32/Py_210123_eval/xtensa-elf/arch/lib/\libhandlers-board.a(exc-syscall-handler.o)
 .xt.lit        0x00000130        0x8 C:/usr/xtensa/XtDevTools/install/builds/RI-2021.6-win32/Py_210123_eval/xtensa-elf/arch/lib/\libhandlers-board.a(user-vector.o)
 .xt.lit        0x00000138        0x8 C:/usr/xtensa/XtDevTools/install/builds/RI-2021.6-win32/Py_210123_eval/xtensa-elf/arch/lib/\libhandlers-board.a(exc-c-wrapper-handler.o)
 .xt.lit        0x00000140        0x0 C:/usr/xtensa/XtDevTools/install/builds/RI-2021.6-win32/Py_210123_eval/xtensa-elf/arch/lib/\libhandlers-board.a(int-lowpri-dispatcher.o)
                                          0x8 (size before relaxing)
 .xt.lit        0x00000140        0x8 C:/usr/xtensa/XtDevTools/install/builds/RI-2021.6-win32/Py_210123_eval/xtensa-elf/arch/lib/\libhandlers-board.a(int-handler-level2.o)
 .xt.lit        0x00000148        0x8 C:/usr/xtensa/XtDevTools/install/builds/RI-2021.6-win32/Py_210123_eval/xtensa-elf/arch/lib/\libhandlers-board.a(int-handler-level3.o)
 *(.xt.lit.*)
 *(.gnu.linkonce.p.*)

.debug.xt.callgraph
 *(.debug.xt.callgraph .debug.xt.callgraph.* .gnu.linkonce.xt.callgraph.*)

.note.gnu.build-id
 *(.note.gnu.build-id)
OUTPUT(D:/PYRAMID_SW/dsp_trunk/tags/Sphinx_0p2/testing_app/system_integration/bin/Py_210123_eval/Release/system_integration elf32-xtensa-le)

.xtensa.info    0x00000000      0x210
 .xtensa.info   0x00000000      0x210 C:/usr/xtensa/XtDevTools/install/builds/RI-2021.6-win32/Py_210123_eval/xtensa-elf/arch/lib/crt1-tiny.o
 .xtensa.info   0x00000000        0x0 D:/PYRAMID_SW/dsp_trunk/tags/Sphinx_0p2/testing_app/system_integration/bin/Py_210123_eval/Release/dsp_verification.o
 .xtensa.info   0x00000000        0x0 D:/PYRAMID_SW/dsp_trunk/tags/Sphinx_0p2/testing_app/system_integration/bin/Py_210123_eval/Release/main.o
 .xtensa.info   0x00000000        0x0 D:/PYRAMID_SW/dsp_trunk/tags/Sphinx_0p2/testing_app/system_integration/bin/Py_210123_eval/Release/src/dsp_bootloader.o
 .xtensa.info   0x00000000        0x0 D:/PYRAMID_SW/dsp_trunk/tags/Sphinx_0p2/testing_app/system_integration/bin/Py_210123_eval/Release/src/dsp_cli_nfca_rx.o
 .xtensa.info   0x00000000        0x0 D:/PYRAMID_SW/dsp_trunk/tags/Sphinx_0p2/testing_app/system_integration/bin/Py_210123_eval/Release/src/dsp_cli_nfca_tx.o
 .xtensa.info   0x00000000        0x0 D:/PYRAMID_SW/dsp_trunk/tags/Sphinx_0p2/testing_app/system_integration/bin/Py_210123_eval/Release/src/dsp_cli_nfcb_rx.o
 .xtensa.info   0x00000000        0x0 D:/PYRAMID_SW/dsp_trunk/tags/Sphinx_0p2/testing_app/system_integration/bin/Py_210123_eval/Release/src/dsp_cli_nfcb_tx.o
 .xtensa.info   0x00000000        0x0 D:/PYRAMID_SW/dsp_trunk/tags/Sphinx_0p2/testing_app/system_integration/bin/Py_210123_eval/Release/src/dsp_cli_nfcf_rx.o
 .xtensa.info   0x00000000        0x0 D:/PYRAMID_SW/dsp_trunk/tags/Sphinx_0p2/testing_app/system_integration/bin/Py_210123_eval/Release/src/dsp_cli_nfcf_tx.o
 .xtensa.info   0x00000000        0x0 D:/PYRAMID_SW/dsp_trunk/tags/Sphinx_0p2/testing_app/system_integration/bin/Py_210123_eval/Release/src/dsp_cli_nfcv_rx.o
 .xtensa.info   0x00000000        0x0 D:/PYRAMID_SW/dsp_trunk/tags/Sphinx_0p2/testing_app/system_integration/bin/Py_210123_eval/Release/src/dsp_cli_nfcv_tx.o
 .xtensa.info   0x00000000        0x0 D:/PYRAMID_SW/dsp_trunk/tags/Sphinx_0p2/testing_app/system_integration/bin/Py_210123_eval/Release/src/dsp_cli_rx.o
 .xtensa.info   0x00000000        0x0 D:/PYRAMID_SW/dsp_trunk/tags/Sphinx_0p2/testing_app/system_integration/bin/Py_210123_eval/Release/src/dsp_cli_tx.o
 .xtensa.info   0x00000000        0x0 D:/PYRAMID_SW/dsp_trunk/tags/Sphinx_0p2/testing_app/system_integration/bin/Py_210123_eval/Release/src/dsp_cli_utils.o
 .xtensa.info   0x00000000        0x0 D:/PYRAMID_SW/dsp_trunk/tags/Sphinx_0p2/testing_app/system_integration/bin/Py_210123_eval/Release/src/dsp_cli_wind_lut.o
 .xtensa.info   0x00000000        0x0 D:/PYRAMID_SW/dsp_trunk/tags/Sphinx_0p2/testing_app/system_integration/bin/Py_210123_eval/Release/src/dsp_evnt_mngr.o
 .xtensa.info   0x00000000        0x0 D:/PYRAMID_SW/dsp_trunk/tags/Sphinx_0p2/testing_app/system_integration/bin/Py_210123_eval/Release/src/dsp_hal.o
 .xtensa.info   0x00000000        0x0 D:/PYRAMID_SW/dsp_trunk/tags/Sphinx_0p2/testing_app/system_integration/bin/Py_210123_eval/Release/src/dsp_hal_activetop.o
 .xtensa.info   0x00000000        0x0 D:/PYRAMID_SW/dsp_trunk/tags/Sphinx_0p2/testing_app/system_integration/bin/Py_210123_eval/Release/src/dsp_hal_cli_top.o
 .xtensa.info   0x00000000        0x0 D:/PYRAMID_SW/dsp_trunk/tags/Sphinx_0p2/testing_app/system_integration/bin/Py_210123_eval/Release/src/dsp_hal_dsp_top.o
 .xtensa.info   0x00000000        0x0 D:/PYRAMID_SW/dsp_trunk/tags/Sphinx_0p2/testing_app/system_integration/bin/Py_210123_eval/Release/src/dsp_hal_fifo.o
 .xtensa.info   0x00000000        0x0 D:/PYRAMID_SW/dsp_trunk/tags/Sphinx_0p2/testing_app/system_integration/bin/Py_210123_eval/Release/src/dsp_hal_hmb.o
 .xtensa.info   0x00000000        0x0 D:/PYRAMID_SW/dsp_trunk/tags/Sphinx_0p2/testing_app/system_integration/bin/Py_210123_eval/Release/src/dsp_hal_intr.o
 .xtensa.info   0x00000000        0x0 D:/PYRAMID_SW/dsp_trunk/tags/Sphinx_0p2/testing_app/system_integration/bin/Py_210123_eval/Release/src/dsp_hal_mdm_top.o
 .xtensa.info   0x00000000        0x0 D:/PYRAMID_SW/dsp_trunk/tags/Sphinx_0p2/testing_app/system_integration/bin/Py_210123_eval/Release/src/dsp_hal_sml1_top.o
 .xtensa.info   0x00000000        0x0 D:/PYRAMID_SW/dsp_trunk/tags/Sphinx_0p2/testing_app/system_integration/bin/Py_210123_eval/Release/src/dsp_hal_sml3.o
 .xtensa.info   0x00000000        0x0 D:/PYRAMID_SW/dsp_trunk/tags/Sphinx_0p2/testing_app/system_integration/bin/Py_210123_eval/Release/src/dsp_hal_timer.o
 .xtensa.info   0x00000000        0x0 D:/PYRAMID_SW/dsp_trunk/tags/Sphinx_0p2/testing_app/system_integration/bin/Py_210123_eval/Release/src/dsp_intr_hndlr.o
 .xtensa.info   0x00000000        0x0 D:/PYRAMID_SW/dsp_trunk/tags/Sphinx_0p2/testing_app/system_integration/bin/Py_210123_eval/Release/src/dsp_logs.o
 .xtensa.info   0x00000000        0x0 D:/PYRAMID_SW/dsp_trunk/tags/Sphinx_0p2/testing_app/system_integration/bin/Py_210123_eval/Release/src/dsp_m0_common.o
 .xtensa.info   0x00000000        0x0 D:/PYRAMID_SW/dsp_trunk/tags/Sphinx_0p2/testing_app/system_integration/bin/Py_210123_eval/Release/src/dsp_mngr.o
 .xtensa.info   0x00000000        0x0 D:/PYRAMID_SW/dsp_trunk/tags/Sphinx_0p2/testing_app/system_integration/bin/Py_210123_eval/Release/src/dsp_sml0_apc.o
 .xtensa.info   0x00000000        0x0 D:/PYRAMID_SW/dsp_trunk/tags/Sphinx_0p2/testing_app/system_integration/bin/Py_210123_eval/Release/src/dsp_sml0_lmac.o
 .xtensa.info   0x00000000        0x0 D:/PYRAMID_SW/dsp_trunk/tags/Sphinx_0p2/testing_app/system_integration/bin/Py_210123_eval/Release/src/dsp_sml1.o
 .xtensa.info   0x00000000        0x0 D:/PYRAMID_SW/dsp_trunk/tags/Sphinx_0p2/testing_app/system_integration/bin/Py_210123_eval/Release/src/dsp_sml1_dyn_reg.o
 .xtensa.info   0x00000000        0x0 D:/PYRAMID_SW/dsp_trunk/tags/Sphinx_0p2/testing_app/system_integration/bin/Py_210123_eval/Release/src/dsp_sml1_pcm.o
 .xtensa.info   0x00000000        0x0 D:/PYRAMID_SW/dsp_trunk/tags/Sphinx_0p2/testing_app/system_integration/bin/Py_210123_eval/Release/src/dsp_sml1_pcm_dyn_reg_lut.o
 .xtensa.info   0x00000000        0x0 D:/PYRAMID_SW/dsp_trunk/tags/Sphinx_0p2/testing_app/system_integration/bin/Py_210123_eval/Release/src/dsp_sml1_pcm_listener.o
 .xtensa.info   0x00000000        0x0 D:/PYRAMID_SW/dsp_trunk/tags/Sphinx_0p2/testing_app/system_integration/bin/Py_210123_eval/Release/src/dsp_sml1_pcm_listener_user_ta.o
 .xtensa.info   0x00000000        0x0 D:/PYRAMID_SW/dsp_trunk/tags/Sphinx_0p2/testing_app/system_integration/bin/Py_210123_eval/Release/src/dsp_sml1_pcm_poller.o
 .xtensa.info   0x00000000        0x0 D:/PYRAMID_SW/dsp_trunk/tags/Sphinx_0p2/testing_app/system_integration/bin/Py_210123_eval/Release/src/dsp_sml1_pcm_poller_user_ta.o
 .xtensa.info   0x00000000        0x0 D:/PYRAMID_SW/dsp_trunk/tags/Sphinx_0p2/testing_app/system_integration/bin/Py_210123_eval/Release/src/dsp_sml1_user_ta_lut.o
 .xtensa.info   0x00000000        0x0 D:/PYRAMID_SW/dsp_trunk/tags/Sphinx_0p2/testing_app/system_integration/bin/Py_210123_eval/Release/test_10_loopbck_nfcv_rw.o
 .xtensa.info   0x00000000        0x0 D:/PYRAMID_SW/dsp_trunk/tags/Sphinx_0p2/testing_app/system_integration/bin/Py_210123_eval/Release/test_1_loopbck_nfcf_rw_std.o
 .xtensa.info   0x00000000        0x0 D:/PYRAMID_SW/dsp_trunk/tags/Sphinx_0p2/testing_app/system_integration/bin/Py_210123_eval/Release/test_2_loopbck_nfcf_ce.o
 .xtensa.info   0x00000000        0x0 D:/PYRAMID_SW/dsp_trunk/tags/Sphinx_0p2/testing_app/system_integration/bin/Py_210123_eval/Release/test_3_loopbck_nfca_rw_std.o
 .xtensa.info   0x00000000        0x0 D:/PYRAMID_SW/dsp_trunk/tags/Sphinx_0p2/testing_app/system_integration/bin/Py_210123_eval/Release/test_4_loopbck_nfca_ce.o
 .xtensa.info   0x00000000        0x0 D:/PYRAMID_SW/dsp_trunk/tags/Sphinx_0p2/testing_app/system_integration/bin/Py_210123_eval/Release/test_5_loopbck_nfca_rw_sdd.o
 .xtensa.info   0x00000000        0x0 D:/PYRAMID_SW/dsp_trunk/tags/Sphinx_0p2/testing_app/system_integration/bin/Py_210123_eval/Release/test_6_loopbck_nfca_ce_swp_intf.o
 .xtensa.info   0x00000000        0x0 D:/PYRAMID_SW/dsp_trunk/tags/Sphinx_0p2/testing_app/system_integration/bin/Py_210123_eval/Release/test_7_loopbck_nfcb_rw.o
 .xtensa.info   0x00000000        0x0 D:/PYRAMID_SW/dsp_trunk/tags/Sphinx_0p2/testing_app/system_integration/bin/Py_210123_eval/Release/test_8_loopbck_nfcb_ce.o
 .xtensa.info   0x00000000        0x0 D:/PYRAMID_SW/dsp_trunk/tags/Sphinx_0p2/testing_app/system_integration/bin/Py_210123_eval/Release/test_9_loopbck_nfca_rw_t1t.o
 .xtensa.info   0x00000000        0x0 D:/PYRAMID_SW/dsp_trunk/tags/Sphinx_0p2/testing_app/system_integration/bin/Py_210123_eval/Release/test_integration.o
 .xtensa.info   0x00000000        0x0 C:/usr/xtensa/XtDevTools/install/builds/RI-2021.6-win32/Py_210123_eval/xtensa-elf/lib/xcc/\libgcc.a(_udivsi3.o)
 .xtensa.info   0x00000000        0x0 C:/usr/xtensa/XtDevTools/install/builds/RI-2021.6-win32/Py_210123_eval/xtensa-elf/arch/lib/\libhandler-reset-unpack.a(reset-vector-unpack.o)
 .xtensa.info   0x00000000        0x0 C:/usr/xtensa/XtDevTools/install/builds/RI-2021.6-win32/Py_210123_eval/xtensa-elf/arch/lib/\libhandlers-board.a(xtos-interrupt-enable.o)
 .xtensa.info   0x00000000        0x0 C:/usr/xtensa/XtDevTools/install/builds/RI-2021.6-win32/Py_210123_eval/xtensa-elf/arch/lib/\libhandlers-board.a(xtos-interrupt-disable.o)
 .xtensa.info   0x00000000        0x0 C:/usr/xtensa/XtDevTools/install/builds/RI-2021.6-win32/Py_210123_eval/xtensa-elf/arch/lib/\libhandlers-board.a(xtos-interrupt-clear.o)
 .xtensa.info   0x00000000        0x0 C:/usr/xtensa/XtDevTools/install/builds/RI-2021.6-win32/Py_210123_eval/xtensa-elf/arch/lib/\libhandlers-board.a(xtos-set-inthandler.o)
 .xtensa.info   0x00000000        0x0 C:/usr/xtensa/XtDevTools/install/builds/RI-2021.6-win32/Py_210123_eval/xtensa-elf/arch/lib/\libhandlers-board.a(xtos-set-exchandler.o)
 .xtensa.info   0x00000000        0x0 C:/usr/xtensa/XtDevTools/install/builds/RI-2021.6-win32/Py_210123_eval/xtensa-elf/arch/lib/\libhandlers-board.a(exc-syscall-handler.o)
 .xtensa.info   0x00000000        0x0 C:/usr/xtensa/XtDevTools/install/builds/RI-2021.6-win32/Py_210123_eval/xtensa-elf/arch/lib/\libhandlers-board.a(exc-table.o)
 .xtensa.info   0x00000000        0x0 C:/usr/xtensa/XtDevTools/install/builds/RI-2021.6-win32/Py_210123_eval/xtensa-elf/arch/lib/\libhandlers-board.a(interrupt-table.o)
 .xtensa.info   0x00000000        0x0 C:/usr/xtensa/XtDevTools/install/builds/RI-2021.6-win32/Py_210123_eval/xtensa-elf/arch/lib/\libhandlers-board.a(user-vector.o)
 .xtensa.info   0x00000000        0x0 C:/usr/xtensa/XtDevTools/install/builds/RI-2021.6-win32/Py_210123_eval/xtensa-elf/arch/lib/\libhandlers-board.a(exc-c-wrapper-handler.o)
 .xtensa.info   0x00000000        0x0 C:/usr/xtensa/XtDevTools/install/builds/RI-2021.6-win32/Py_210123_eval/xtensa-elf/arch/lib/\libhandlers-board.a(exc-return.o)
 .xtensa.info   0x00000000        0x0 C:/usr/xtensa/XtDevTools/install/builds/RI-2021.6-win32/Py_210123_eval/xtensa-elf/arch/lib/\libhandlers-board.a(int-lowpri-dispatcher.o)
 .xtensa.info   0x00000000        0x0 C:/usr/xtensa/XtDevTools/install/builds/RI-2021.6-win32/Py_210123_eval/xtensa-elf/arch/lib/\libhandlers-board.a(window-vectors.o)
 .xtensa.info   0x00000000        0x0 C:/usr/xtensa/XtDevTools/install/builds/RI-2021.6-win32/Py_210123_eval/xtensa-elf/arch/lib/\libhandlers-board.a(int-init-level1.o)
 .xtensa.info   0x00000000        0x0 C:/usr/xtensa/XtDevTools/install/builds/RI-2021.6-win32/Py_210123_eval/xtensa-elf/arch/lib/\libhandlers-board.a(int-init-level2.o)
 .xtensa.info   0x00000000        0x0 C:/usr/xtensa/XtDevTools/install/builds/RI-2021.6-win32/Py_210123_eval/xtensa-elf/arch/lib/\libhandlers-board.a(int-init-level3.o)
 .xtensa.info   0x00000000        0x0 C:/usr/xtensa/XtDevTools/install/builds/RI-2021.6-win32/Py_210123_eval/xtensa-elf/arch/lib/\libhandlers-board.a(exc-unhandled.o)
 .xtensa.info   0x00000000        0x0 C:/usr/xtensa/XtDevTools/install/builds/RI-2021.6-win32/Py_210123_eval/xtensa-elf/arch/lib/\libhandlers-board.a(tiny-refs-S--level1int-.o)
 .xtensa.info   0x00000000        0x0 C:/usr/xtensa/XtDevTools/install/builds/RI-2021.6-win32/Py_210123_eval/xtensa-elf/arch/lib/\libhandlers-board.a(int-vector-level2.o)
 .xtensa.info   0x00000000        0x0 C:/usr/xtensa/XtDevTools/install/builds/RI-2021.6-win32/Py_210123_eval/xtensa-elf/arch/lib/\libhandlers-board.a(int-vector-level3.o)
 .xtensa.info   0x00000000        0x0 C:/usr/xtensa/XtDevTools/install/builds/RI-2021.6-win32/Py_210123_eval/xtensa-elf/arch/lib/\libhandlers-board.a(int-handler-level2.o)
 .xtensa.info   0x00000000        0x0 C:/usr/xtensa/XtDevTools/install/builds/RI-2021.6-win32/Py_210123_eval/xtensa-elf/arch/lib/\libhandlers-board.a(int-handler-level3.o)
 .xtensa.info   0x00000000        0x0 C:/usr/xtensa/XtDevTools/install/builds/RI-2021.6-win32/Py_210123_eval/xtensa-elf/arch/lib/\libhandlers-min.a(tiny-refs-min.o)
 .xtensa.info   0x00000000        0x0 C:/usr/xtensa/XtDevTools/install/builds/RI-2021.6-win32/Py_210123_eval/xtensa-elf/arch/lib/\libhandlers-null.a(_vectors.o)
 .xtensa.info   0x00000000        0x0 C:/usr/xtensa/XtDevTools/install/builds/RI-2021.6-win32/Py_210123_eval/xtensa-elf/arch/lib/\libhandlers-null.a(_sharedvectors.o)
 .xtensa.info   0x00000000        0x0 C:/usr/xtensa/XtDevTools/install/builds/RI-2021.6-win32/Py_210123_eval/xtensa-elf/arch/lib/\libhandlers-board.a(debug-vector.o)
 .xtensa.info   0x00000000        0x0 C:/usr/xtensa/XtDevTools/install/builds/RI-2021.6-win32/Py_210123_eval/xtensa-elf/arch/lib/\libhandlers-board.a(double-vector.o)
 .xtensa.info   0x00000000        0x0 C:/usr/xtensa/XtDevTools/install/builds/RI-2021.6-win32/Py_210123_eval/xtensa-elf/arch/lib/\libhandlers-board.a(kernel-vector.o)
 .xtensa.info   0x00000000        0x0 C:/usr/xtensa/XtDevTools/install/builds/RI-2021.6-win32/Py_210123_eval/xtensa-elf/arch/lib/\libhal.a(cache_asm--hw_configid0.o)
 .xtensa.info   0x00000000        0x0 C:/usr/xtensa/XtDevTools/install/builds/RI-2021.6-win32/Py_210123_eval/xtensa-elf/arch/lib/\libhal.a(cache_asm--hw_configid1.o)
 .xtensa.info   0x00000000        0x0 C:/usr/xtensa/XtDevTools/install/builds/RI-2021.6-win32/Py_210123_eval/xtensa-elf/arch/lib/\libhal.a(cache_asm--release_major.o)
 .xtensa.info   0x00000000        0x0 C:/usr/xtensa/XtDevTools/install/builds/RI-2021.6-win32/Py_210123_eval/xtensa-elf/arch/lib/\libhal.a(cache_asm--release_minor.o)
 .xtensa.info   0x00000000        0x0 C:/usr/xtensa/XtDevTools/install/builds/RI-2021.6-win32/Py_210123_eval/xtensa-elf/arch/lib/\libhal.a(const--intlevel.o)

.comment        0x00000000     0x1aa7
 .comment       0x00000000       0x94 D:/PYRAMID_SW/dsp_trunk/tags/Sphinx_0p2/testing_app/system_integration/bin/Py_210123_eval/Release/dsp_verification.o
                                         0x95 (size before relaxing)
 .comment       0x00000094       0x88 D:/PYRAMID_SW/dsp_trunk/tags/Sphinx_0p2/testing_app/system_integration/bin/Py_210123_eval/Release/main.o
                                         0x89 (size before relaxing)
 .comment       0x0000011c       0x77 D:/PYRAMID_SW/dsp_trunk/tags/Sphinx_0p2/testing_app/system_integration/bin/Py_210123_eval/Release/src/dsp_bootloader.o
                                         0x78 (size before relaxing)
 .comment       0x00000193       0x78 D:/PYRAMID_SW/dsp_trunk/tags/Sphinx_0p2/testing_app/system_integration/bin/Py_210123_eval/Release/src/dsp_cli_nfca_rx.o
                                         0x79 (size before relaxing)
 .comment       0x0000020b       0x78 D:/PYRAMID_SW/dsp_trunk/tags/Sphinx_0p2/testing_app/system_integration/bin/Py_210123_eval/Release/src/dsp_cli_nfca_tx.o
                                         0x79 (size before relaxing)
 .comment       0x00000283       0x78 D:/PYRAMID_SW/dsp_trunk/tags/Sphinx_0p2/testing_app/system_integration/bin/Py_210123_eval/Release/src/dsp_cli_nfcb_rx.o
                                         0x79 (size before relaxing)
 .comment       0x000002fb       0x78 D:/PYRAMID_SW/dsp_trunk/tags/Sphinx_0p2/testing_app/system_integration/bin/Py_210123_eval/Release/src/dsp_cli_nfcb_tx.o
                                         0x79 (size before relaxing)
 .comment       0x00000373       0x78 D:/PYRAMID_SW/dsp_trunk/tags/Sphinx_0p2/testing_app/system_integration/bin/Py_210123_eval/Release/src/dsp_cli_nfcf_rx.o
                                         0x79 (size before relaxing)
 .comment       0x000003eb       0x78 D:/PYRAMID_SW/dsp_trunk/tags/Sphinx_0p2/testing_app/system_integration/bin/Py_210123_eval/Release/src/dsp_cli_nfcf_tx.o
                                         0x79 (size before relaxing)
 .comment       0x00000463       0x78 D:/PYRAMID_SW/dsp_trunk/tags/Sphinx_0p2/testing_app/system_integration/bin/Py_210123_eval/Release/src/dsp_cli_nfcv_rx.o
                                         0x79 (size before relaxing)
 .comment       0x000004db       0x78 D:/PYRAMID_SW/dsp_trunk/tags/Sphinx_0p2/testing_app/system_integration/bin/Py_210123_eval/Release/src/dsp_cli_nfcv_tx.o
                                         0x79 (size before relaxing)
 .comment       0x00000553       0x73 D:/PYRAMID_SW/dsp_trunk/tags/Sphinx_0p2/testing_app/system_integration/bin/Py_210123_eval/Release/src/dsp_cli_rx.o
                                         0x74 (size before relaxing)
 .comment       0x000005c6       0x73 D:/PYRAMID_SW/dsp_trunk/tags/Sphinx_0p2/testing_app/system_integration/bin/Py_210123_eval/Release/src/dsp_cli_tx.o
                                         0x74 (size before relaxing)
 .comment       0x00000639       0x76 D:/PYRAMID_SW/dsp_trunk/tags/Sphinx_0p2/testing_app/system_integration/bin/Py_210123_eval/Release/src/dsp_cli_utils.o
                                         0x77 (size before relaxing)
 .comment       0x000006af       0x79 D:/PYRAMID_SW/dsp_trunk/tags/Sphinx_0p2/testing_app/system_integration/bin/Py_210123_eval/Release/src/dsp_cli_wind_lut.o
                                         0x7a (size before relaxing)
 .comment       0x00000728       0x76 D:/PYRAMID_SW/dsp_trunk/tags/Sphinx_0p2/testing_app/system_integration/bin/Py_210123_eval/Release/src/dsp_evnt_mngr.o
                                         0x77 (size before relaxing)
 .comment       0x0000079e       0x70 D:/PYRAMID_SW/dsp_trunk/tags/Sphinx_0p2/testing_app/system_integration/bin/Py_210123_eval/Release/src/dsp_hal.o
                                         0x71 (size before relaxing)
 .comment       0x0000080e       0x7a D:/PYRAMID_SW/dsp_trunk/tags/Sphinx_0p2/testing_app/system_integration/bin/Py_210123_eval/Release/src/dsp_hal_activetop.o
                                         0x7b (size before relaxing)
 .comment       0x00000888       0x78 D:/PYRAMID_SW/dsp_trunk/tags/Sphinx_0p2/testing_app/system_integration/bin/Py_210123_eval/Release/src/dsp_hal_cli_top.o
                                         0x79 (size before relaxing)
 .comment       0x00000900       0x78 D:/PYRAMID_SW/dsp_trunk/tags/Sphinx_0p2/testing_app/system_integration/bin/Py_210123_eval/Release/src/dsp_hal_dsp_top.o
                                         0x79 (size before relaxing)
 .comment       0x00000978       0x75 D:/PYRAMID_SW/dsp_trunk/tags/Sphinx_0p2/testing_app/system_integration/bin/Py_210123_eval/Release/src/dsp_hal_fifo.o
                                         0x76 (size before relaxing)
 .comment       0x000009ed       0x74 D:/PYRAMID_SW/dsp_trunk/tags/Sphinx_0p2/testing_app/system_integration/bin/Py_210123_eval/Release/src/dsp_hal_hmb.o
                                         0x75 (size before relaxing)
 .comment       0x00000a61       0x75 D:/PYRAMID_SW/dsp_trunk/tags/Sphinx_0p2/testing_app/system_integration/bin/Py_210123_eval/Release/src/dsp_hal_intr.o
                                         0x76 (size before relaxing)
 .comment       0x00000ad6       0x78 D:/PYRAMID_SW/dsp_trunk/tags/Sphinx_0p2/testing_app/system_integration/bin/Py_210123_eval/Release/src/dsp_hal_mdm_top.o
                                         0x79 (size before relaxing)
 .comment       0x00000b4e       0x79 D:/PYRAMID_SW/dsp_trunk/tags/Sphinx_0p2/testing_app/system_integration/bin/Py_210123_eval/Release/src/dsp_hal_sml1_top.o
                                         0x7a (size before relaxing)
 .comment       0x00000bc7       0x75 D:/PYRAMID_SW/dsp_trunk/tags/Sphinx_0p2/testing_app/system_integration/bin/Py_210123_eval/Release/src/dsp_hal_sml3.o
                                         0x76 (size before relaxing)
 .comment       0x00000c3c       0x76 D:/PYRAMID_SW/dsp_trunk/tags/Sphinx_0p2/testing_app/system_integration/bin/Py_210123_eval/Release/src/dsp_hal_timer.o
                                         0x77 (size before relaxing)
 .comment       0x00000cb2       0x77 D:/PYRAMID_SW/dsp_trunk/tags/Sphinx_0p2/testing_app/system_integration/bin/Py_210123_eval/Release/src/dsp_intr_hndlr.o
                                         0x78 (size before relaxing)
 .comment       0x00000d29       0x71 D:/PYRAMID_SW/dsp_trunk/tags/Sphinx_0p2/testing_app/system_integration/bin/Py_210123_eval/Release/src/dsp_logs.o
                                         0x72 (size before relaxing)
 .comment       0x00000d9a       0x76 D:/PYRAMID_SW/dsp_trunk/tags/Sphinx_0p2/testing_app/system_integration/bin/Py_210123_eval/Release/src/dsp_m0_common.o
                                         0x77 (size before relaxing)
 .comment       0x00000e10       0x71 D:/PYRAMID_SW/dsp_trunk/tags/Sphinx_0p2/testing_app/system_integration/bin/Py_210123_eval/Release/src/dsp_mngr.o
                                         0x72 (size before relaxing)
 .comment       0x00000e81       0x75 D:/PYRAMID_SW/dsp_trunk/tags/Sphinx_0p2/testing_app/system_integration/bin/Py_210123_eval/Release/src/dsp_sml0_apc.o
                                         0x76 (size before relaxing)
 .comment       0x00000ef6       0x76 D:/PYRAMID_SW/dsp_trunk/tags/Sphinx_0p2/testing_app/system_integration/bin/Py_210123_eval/Release/src/dsp_sml0_lmac.o
                                         0x77 (size before relaxing)
 .comment       0x00000f6c       0x71 D:/PYRAMID_SW/dsp_trunk/tags/Sphinx_0p2/testing_app/system_integration/bin/Py_210123_eval/Release/src/dsp_sml1.o
                                         0x72 (size before relaxing)
 .comment       0x00000fdd       0x79 D:/PYRAMID_SW/dsp_trunk/tags/Sphinx_0p2/testing_app/system_integration/bin/Py_210123_eval/Release/src/dsp_sml1_dyn_reg.o
                                         0x7a (size before relaxing)
 .comment       0x00001056       0x75 D:/PYRAMID_SW/dsp_trunk/tags/Sphinx_0p2/testing_app/system_integration/bin/Py_210123_eval/Release/src/dsp_sml1_pcm.o
                                         0x76 (size before relaxing)
 .comment       0x000010cb       0x81 D:/PYRAMID_SW/dsp_trunk/tags/Sphinx_0p2/testing_app/system_integration/bin/Py_210123_eval/Release/src/dsp_sml1_pcm_dyn_reg_lut.o
                                         0x82 (size before relaxing)
 .comment       0x0000114c       0x7e D:/PYRAMID_SW/dsp_trunk/tags/Sphinx_0p2/testing_app/system_integration/bin/Py_210123_eval/Release/src/dsp_sml1_pcm_listener.o
                                         0x7f (size before relaxing)
 .comment       0x000011ca       0x86 D:/PYRAMID_SW/dsp_trunk/tags/Sphinx_0p2/testing_app/system_integration/bin/Py_210123_eval/Release/src/dsp_sml1_pcm_listener_user_ta.o
                                         0x87 (size before relaxing)
 .comment       0x00001250       0x7c D:/PYRAMID_SW/dsp_trunk/tags/Sphinx_0p2/testing_app/system_integration/bin/Py_210123_eval/Release/src/dsp_sml1_pcm_poller.o
                                         0x7d (size before relaxing)
 .comment       0x000012cc       0x84 D:/PYRAMID_SW/dsp_trunk/tags/Sphinx_0p2/testing_app/system_integration/bin/Py_210123_eval/Release/src/dsp_sml1_pcm_poller_user_ta.o
                                         0x85 (size before relaxing)
 .comment       0x00001350       0x7d D:/PYRAMID_SW/dsp_trunk/tags/Sphinx_0p2/testing_app/system_integration/bin/Py_210123_eval/Release/src/dsp_sml1_user_ta_lut.o
                                         0x7e (size before relaxing)
 .comment       0x000013cd       0x9b D:/PYRAMID_SW/dsp_trunk/tags/Sphinx_0p2/testing_app/system_integration/bin/Py_210123_eval/Release/test_10_loopbck_nfcv_rw.o
                                         0x9c (size before relaxing)
 .comment       0x00001468       0x9e D:/PYRAMID_SW/dsp_trunk/tags/Sphinx_0p2/testing_app/system_integration/bin/Py_210123_eval/Release/test_1_loopbck_nfcf_rw_std.o
                                         0x9f (size before relaxing)
 .comment       0x00001506       0x9a D:/PYRAMID_SW/dsp_trunk/tags/Sphinx_0p2/testing_app/system_integration/bin/Py_210123_eval/Release/test_2_loopbck_nfcf_ce.o
                                         0x9b (size before relaxing)
 .comment       0x000015a0       0x9e D:/PYRAMID_SW/dsp_trunk/tags/Sphinx_0p2/testing_app/system_integration/bin/Py_210123_eval/Release/test_3_loopbck_nfca_rw_std.o
                                         0x9f (size before relaxing)
 .comment       0x0000163e       0x9a D:/PYRAMID_SW/dsp_trunk/tags/Sphinx_0p2/testing_app/system_integration/bin/Py_210123_eval/Release/test_4_loopbck_nfca_ce.o
                                         0x9b (size before relaxing)
 .comment       0x000016d8       0x9e D:/PYRAMID_SW/dsp_trunk/tags/Sphinx_0p2/testing_app/system_integration/bin/Py_210123_eval/Release/test_5_loopbck_nfca_rw_sdd.o
                                         0x9f (size before relaxing)
 .comment       0x00001776       0xa3 D:/PYRAMID_SW/dsp_trunk/tags/Sphinx_0p2/testing_app/system_integration/bin/Py_210123_eval/Release/test_6_loopbck_nfca_ce_swp_intf.o
                                         0xa4 (size before relaxing)
 .comment       0x00001819       0x9a D:/PYRAMID_SW/dsp_trunk/tags/Sphinx_0p2/testing_app/system_integration/bin/Py_210123_eval/Release/test_7_loopbck_nfcb_rw.o
                                         0x9b (size before relaxing)
 .comment       0x000018b3       0x9a D:/PYRAMID_SW/dsp_trunk/tags/Sphinx_0p2/testing_app/system_integration/bin/Py_210123_eval/Release/test_8_loopbck_nfcb_ce.o
                                         0x9b (size before relaxing)
 .comment       0x0000194d       0x9e D:/PYRAMID_SW/dsp_trunk/tags/Sphinx_0p2/testing_app/system_integration/bin/Py_210123_eval/Release/test_9_loopbck_nfca_rw_t1t.o
                                         0x9f (size before relaxing)
 .comment       0x000019eb       0x94 D:/PYRAMID_SW/dsp_trunk/tags/Sphinx_0p2/testing_app/system_integration/bin/Py_210123_eval/Release/test_integration.o
                                         0x95 (size before relaxing)
 .comment       0x00001a7f       0x28 C:/usr/xtensa/XtDevTools/install/builds/RI-2021.6-win32/Py_210123_eval/xtensa-elf/arch/lib/\libhandlers-board.a(xtos-interrupt-enable.o)
                                         0x29 (size before relaxing)
 .comment       0x00000000       0x29 C:/usr/xtensa/XtDevTools/install/builds/RI-2021.6-win32/Py_210123_eval/xtensa-elf/arch/lib/\libhandlers-board.a(xtos-interrupt-disable.o)
 .comment       0x00000000       0x29 C:/usr/xtensa/XtDevTools/install/builds/RI-2021.6-win32/Py_210123_eval/xtensa-elf/arch/lib/\libhandlers-board.a(xtos-interrupt-clear.o)
 .comment       0x00000000       0x29 C:/usr/xtensa/XtDevTools/install/builds/RI-2021.6-win32/Py_210123_eval/xtensa-elf/arch/lib/\libhandlers-board.a(xtos-set-inthandler.o)
 .comment       0x00000000       0x29 C:/usr/xtensa/XtDevTools/install/builds/RI-2021.6-win32/Py_210123_eval/xtensa-elf/arch/lib/\libhandlers-board.a(xtos-set-exchandler.o)
 .comment       0x00000000       0x29 C:/usr/xtensa/XtDevTools/install/builds/RI-2021.6-win32/Py_210123_eval/xtensa-elf/arch/lib/\libhal.a(const--intlevel.o)

.note.GNU-stack
                0x00000000        0x0
 .note.GNU-stack
                0x00000000        0x0 C:/usr/xtensa/XtDevTools/install/builds/RI-2021.6-win32/Py_210123_eval/xtensa-elf/arch/lib/\libhandlers-board.a(xtos-interrupt-enable.o)
 .note.GNU-stack
                0x00000000        0x0 C:/usr/xtensa/XtDevTools/install/builds/RI-2021.6-win32/Py_210123_eval/xtensa-elf/arch/lib/\libhandlers-board.a(xtos-interrupt-disable.o)
 .note.GNU-stack
                0x00000000        0x0 C:/usr/xtensa/XtDevTools/install/builds/RI-2021.6-win32/Py_210123_eval/xtensa-elf/arch/lib/\libhandlers-board.a(xtos-interrupt-clear.o)
 .note.GNU-stack
                0x00000000        0x0 C:/usr/xtensa/XtDevTools/install/builds/RI-2021.6-win32/Py_210123_eval/xtensa-elf/arch/lib/\libhandlers-board.a(xtos-set-inthandler.o)
 .note.GNU-stack
                0x00000000        0x0 C:/usr/xtensa/XtDevTools/install/builds/RI-2021.6-win32/Py_210123_eval/xtensa-elf/arch/lib/\libhandlers-board.a(xtos-set-exchandler.o)
 .note.GNU-stack
                0x00000000        0x0 C:/usr/xtensa/XtDevTools/install/builds/RI-2021.6-win32/Py_210123_eval/xtensa-elf/arch/lib/\libhal.a(const--intlevel.o)

Memory Configuration

Name             Origin          Length          Used            Unused          Attributes
irom0_0_seg      0x50000000      0x00000300      0x000000f0      0x00000210      
dv_0_seg         0x50000400      0x00000178      0x0000016c      0x0000000c      
dv_1_seg         0x50000578      0x00000008      0x00000000      0x00000008      
dv_2_seg         0x50000580      0x00000038      0x00000008      0x00000030      
dv_3_seg         0x500005b8      0x00000008      0x00000000      0x00000008      
dv_4_seg         0x500005c0      0x00000038      0x00000008      0x00000030      
dv_5_seg         0x500005f8      0x00000008      0x00000000      0x00000008      
dv_6_seg         0x50000600      0x00000038      0x0000000c      0x0000002c      
dv_7_seg         0x50000638      0x00000008      0x00000000      0x00000008      
dv_8_seg         0x50000640      0x00000038      0x00000008      0x00000030      
dv_9_seg         0x50000678      0x00000008      0x00000004      0x00000004      
dv_10_seg        0x50000680      0x00000038      0x00000018      0x00000020      
dv_11_seg        0x500006b8      0x00000048      0x00000000      0x00000048      
dv_12_seg        0x50000700      0x0000f900      0x0000ec0c      0x00000cf4      
drom0_0_seg      0x50040000      0x00008000      0x00005b0c      0x000024f4      
ipatch_seg       0x50080000      0x00008000      0x00000000      0x00008000      
dnoload_seg      0x500a0000      0x00002200      0x0000218c      0x00000074      
dram0_0_seg      0x500a2200      0x00001600      0x00001590      0x00000070      
dpatch_seg       0x500a3800      0x00004800      0x00000000      0x00004800      
iram1_0_seg      0x500b0000      0x00004000      0x00000000      0x00004000      
iram1_1_seg      0x500b4000      0x00002000      0x00000000      0x00002000      
iram1_2_seg      0x500b6000      0x00002000      0x00000000      0x00002000      
dram1_0_seg      0x500c0000      0x00004000      0x00000000      0x00004000      
dram1_1_seg      0x500c4000      0x00002000      0x00000000      0x00002000      
dram1_2_seg      0x500c6000      0x00002000      0x00000000      0x00002000      
*default*        0x00000000      0xffffffff      
